 game

 Timestamp is 619caa88 (Tue Nov 23 10:47:04 2021)

 Preferred load address is 0000000140000000

 Start         Length     Name                   Class
 0001:00000000 000089f0H .text                   CODE
 0001:000089f0 000607f0H .text$mn                CODE
 0001:000691e0 00001040H .text$mn$00             CODE
 0001:0006a220 00001c36H .text$x                 CODE
 0002:00000000 00000110H .CRT$XCA                DATA
 0002:00000110 00000110H .CRT$XCAA               DATA
 0002:00000220 00000110H .CRT$XCZ                DATA
 0002:00000330 00000110H .CRT$XIA                DATA
 0002:00000440 00000110H .CRT$XIAA               DATA
 0002:00000550 00000110H .CRT$XIAC               DATA
 0002:00000660 00000140H .CRT$XIC                DATA
 0002:000007a0 00000110H .CRT$XIZ                DATA
 0002:000008b0 00000110H .CRT$XPA                DATA
 0002:000009c0 00000120H .CRT$XPX                DATA
 0002:00000ae0 00000110H .CRT$XPXA               DATA
 0002:00000bf0 00000110H .CRT$XPZ                DATA
 0002:00000d00 00000110H .CRT$XTA                DATA
 0002:00000e10 00000110H .CRT$XTZ                DATA
 0002:00000f20 0000ce60H .rdata                  DATA
 0002:0000dd80 00000200H .rdata$CastGuardVftablesA DATA
 0002:0000df80 000001a0H .rdata$CastGuardVftablesC DATA
 0002:0000e120 0000060cH .rdata$r                DATA
 0002:0000e72c 0000015cH .rdata$zzzdbg           DATA
 0002:0000e888 00000110H .rtc$IAA                DATA
 0002:0000e998 00000110H .rtc$IZZ                DATA
 0002:0000eaa8 00000110H .rtc$TAA                DATA
 0002:0000ebb8 00000110H .rtc$TZZ                DATA
 0002:0000ecc8 000063b8H .xdata                  DATA
 0002:00015080 00000196H .xdata$x                DATA
 0002:00015216 00000000H .edata                  DATA
 0003:00000000 00000dd0H .data                   DATA
 0003:00000dd0 00000190H .data$r                 DATA
 0003:00000f60 00000230H .data$rs                DATA
 0003:00001190 00002031H .bss                    DATA
 0004:00000000 00004ef0H .pdata                  DATA
 0005:00000000 00000400H .idata$5                DATA
 0005:00000400 00000028H .idata$2                DATA
 0005:00000428 00000018H .idata$3                DATA
 0005:00000440 00000400H .idata$4                DATA
 0005:00000840 00000850H .idata$6                DATA
 0006:00000000 00000163H .00cfg                  DATA
 0007:00000000 00000232H _RDATA                  DATA

  Address         Publics by Value              Rva+Base               Lib:Object

 0000:00000000       __guard_fids_count         0000000000000000     <absolute>
 0000:00000000       __arm64x_redirection_metadata_count 0000000000000000     <absolute>
 0000:00000000       ___safe_se_handler_table   0000000000000000     <absolute>
 0000:00000000       __hybrid_auxiliary_iat     0000000000000000     <absolute>
 0000:00000000       __x64_code_ranges_to_entry_points_count 0000000000000000     <absolute>
 0000:00000000       __arm64x_native_entrypoint 0000000000000000     <absolute>
 0000:00000000       __arm64x_extra_rfe_table   0000000000000000     <absolute>
 0000:00000000       __hybrid_code_map_count    0000000000000000     <absolute>
 0000:00000000       __AbsoluteZero             0000000000000000     <absolute>
 0000:00000000       __guard_check_icall_a64n_fptr 0000000000000000     <absolute>
 0000:00000000       __enclave_config           0000000000000000     <absolute>
 0000:00000000       __dynamic_value_reloc_table 0000000000000000     <absolute>
 0000:00000000       __guard_eh_cont_count      0000000000000000     <absolute>
 0000:00000000       __hybrid_auxiliary_iat_copy 0000000000000000     <absolute>
 0000:00000000       __guard_iat_count          0000000000000000     <absolute>
 0000:00000000       ___safe_se_handler_count   0000000000000000     <absolute>
 0000:00000000       __guard_eh_cont_table      0000000000000000     <absolute>
 0000:00000000       __arm64x_redirection_metadata 0000000000000000     <absolute>
 0000:00000000       __guard_longjmp_table      0000000000000000     <absolute>
 0000:00000000       __arm64x_extra_rfe_table_size 0000000000000000     <absolute>
 0000:00000000       __volatile_metadata        0000000000000000     <absolute>
 0000:00000000       __guard_longjmp_count      0000000000000000     <absolute>
 0000:00000000       __guard_iat_table          0000000000000000     <absolute>
 0000:00000000       __x64_code_ranges_to_entry_points 0000000000000000     <absolute>
 0000:00000000       __hybrid_code_map          0000000000000000     <absolute>
 0000:00000000       __guard_fids_table         0000000000000000     <absolute>
 0000:00000100       __guard_flags              0000000000000100     <absolute>
 0000:00000000       __ImageBase                0000000140000000     <linker-defined>
 0001:00005ea0       main                       0000000140006ea0 f   main-423f63.o
 0001:00005ed0       vp_start                   0000000140006ed0 f   main-423f63.o
 0001:00005f30       scale_vector               0000000140006f30 f   main-423f63.o
 0001:00005f70       add_vec_to_tex             0000000140006f70 f   main-423f63.o
 0001:00005fb0       OnResize                   0000000140006fb0 f   main-423f63.o
 0001:00005fd0       Update                     0000000140006fd0 f   main-423f63.o
 0001:000089f0       logger_init                00000001400099f0 f   Vipoc:Vipoc.dll
 0001:000089f6       application_create         00000001400099f6 f   Vipoc:Vipoc.dll
 0001:000089fc       vp_load_texture            00000001400099fc f   Vipoc:Vipoc.dll
 0001:00008a02       vp_is_keydown              0000000140009a02 f   Vipoc:Vipoc.dll
 0001:00008a08       vp_render_pushback         0000000140009a08 f   Vipoc:Vipoc.dll
 0001:00008d1c       ?configure_argv@__scrt_narrow_argv_policy@@SAHXZ 0000000140009d1c f i libcmt:exe_main.obj
 0001:00008d38       ?initialize_environment@__scrt_narrow_environment_policy@@SAHXZ 0000000140009d38 f i libcmt:exe_main.obj
 0001:00008d84       ?set_app_type@__scrt_main_policy@@SAXXZ 0000000140009d84 f i libcmt:exe_main.obj
 0001:00008d90       ?set_commode@__scrt_file_policy@@SAXXZ 0000000140009d90 f i libcmt:exe_main.obj
 0001:00008db0       ?set_fmode@__scrt_file_policy@@SAXXZ 0000000140009db0 f i libcmt:exe_main.obj
 0001:00008dcc       mainCRTStartup             0000000140009dcc f   libcmt:exe_main.obj
 0001:00008e7c       NtCurrentTeb               0000000140009e7c f i libcmt:utility.obj
 0001:00008e88       __scrt_acquire_startup_lock 0000000140009e88 f   libcmt:utility.obj
 0001:00008ed0       __scrt_dllmain_after_initialize_c 0000000140009ed0 f   libcmt:utility.obj
 0001:00008f14       __scrt_dllmain_before_initialize_c 0000000140009f14 f   libcmt:utility.obj
 0001:00008f30       __scrt_dllmain_crt_thread_attach 0000000140009f30 f   libcmt:utility.obj
 0001:00008f64       __scrt_dllmain_crt_thread_detach 0000000140009f64 f   libcmt:utility.obj
 0001:00008f80       __scrt_dllmain_exception_filter 0000000140009f80 f   libcmt:utility.obj
 0001:00008ff8       __scrt_dllmain_uninitialize_c 0000000140009ff8 f   libcmt:utility.obj
 0001:00009034       __scrt_dllmain_uninitialize_critical 000000014000a034 f   libcmt:utility.obj
 0001:00009050       __scrt_initialize_crt      000000014000a050 f   libcmt:utility.obj
 0001:000090ac       __scrt_initialize_onexit_tables 000000014000a0ac f   libcmt:utility.obj
 0001:0000915c       __scrt_is_nonwritable_in_current_image 000000014000a15c f   libcmt:utility.obj
 0001:0000921c       __scrt_release_startup_lock 000000014000a21c f   libcmt:utility.obj
 0001:0000924c       __scrt_uninitialize_crt    000000014000a24c f   libcmt:utility.obj
 0001:00009280       _onexit                    000000014000a280 f   libcmt:utility.obj
 0001:000092c8       at_quick_exit              000000014000a2c8 f   libcmt:utility.obj
 0001:000092ec       atexit                     000000014000a2ec f   libcmt:utility.obj
 0001:00009390       __security_init_cookie     000000014000a390 f   libcmt:gs_support.obj
 0001:00009468       _matherr                   000000014000a468 f   libcmt:matherr.obj
 0001:0000946c       _get_startup_argv_mode     000000014000a46c f   libcmt:argv_mode.obj
 0001:00009474       _get_startup_commit_mode   000000014000a474 f   libcmt:commit_mode.obj
 0001:00009478       _get_startup_file_mode     000000014000a478 f   libcmt:file_mode.obj
 0001:00009480       _get_startup_new_mode      000000014000a480 f   libcmt:new_mode.obj
 0001:00009484       _get_startup_thread_locale_mode 000000014000a484 f   libcmt:thread_locale.obj
 0001:00009488       ?__scrt_initialize_type_info@@YAXXZ 000000014000a488 f   libcmt:tncleanup.obj
 0001:0000949c       ?__scrt_uninitialize_type_info@@YAXXZ 000000014000a49c f   libcmt:tncleanup.obj
 0001:000094ac       _should_initialize_environment 000000014000a4ac f   libcmt:env_mode.obj
 0001:000094b0       _initialize_invalid_parameter_handler 000000014000a4b0 f   libcmt:invalid_parameter_handler.obj
 0001:000094b4       _initialize_denormal_control 000000014000a4b4 f   libcmt:denormal_control.obj
 0001:000094b8       __local_stdio_printf_options 000000014000a4b8 f i libcmt:default_local_stdio_options.obj
 0001:000094c4       __local_stdio_scanf_options 000000014000a4c4 f i libcmt:default_local_stdio_options.obj
 0001:000094d0       __scrt_initialize_default_local_stdio_options 000000014000a4d0 f   libcmt:default_local_stdio_options.obj
 0001:000094f4       __scrt_is_user_matherr_present 000000014000a4f4 f   libcmt:matherr_detection.obj
 0001:00009504       __scrt_get_dyn_tls_init_callback 000000014000a504 f   libcmt:dyn_tls_init.obj
 0001:00009510       __scrt_get_dyn_tls_dtor_callback 000000014000a510 f   libcmt:dyn_tls_dtor.obj
 0001:0000951c       __crt_debugger_hook        000000014000a51c f   libcmt:utility_desktop.obj
 0001:00009528       __scrt_fastfail            000000014000a528 f   libcmt:utility_desktop.obj
 0001:000096c8       __scrt_get_show_window_mode 000000014000a6c8 f   libcmt:utility_desktop.obj
 0001:00009710       __scrt_initialize_mta      000000014000a710 f   libcmt:utility_desktop.obj
 0001:00009718       __scrt_initialize_winrt    000000014000a718 f   libcmt:utility_desktop.obj
 0001:0000971c       __scrt_is_managed_app      000000014000a71c f   libcmt:utility_desktop.obj
 0001:00009784       __scrt_set_unhandled_exception_filter 000000014000a784 f   libcmt:utility_desktop.obj
 0001:00009798       __scrt_exe_initialize_mta  000000014000a798 f   libcmt:utility_desktop.obj
 0001:00009798       __scrt_stub_for_initialize_mta 000000014000a798 f   libcmt:utility_desktop.obj
 0001:0000979c       __scrt_unhandled_exception_filter 000000014000a79c f   libcmt:utility_desktop.obj
 0001:00009810       _RTC_Initialize            000000014000a810 f   libcmt:initsect.obj
 0001:0000985c       _RTC_Terminate             000000014000a85c f   libcmt:initsect.obj
 0001:000098a8       _guard_check_icall_nop     000000014000a8a8 f i libcmt:guard_support.obj
 0001:000098ac       ReadNoFence64              000000014000a8ac f i libcmt:guard_support.obj
 0001:000098b0       ReadPointerNoFence         000000014000a8b0 f i libcmt:guard_support.obj
 0001:000098b4       __castguard_check_failure_debugbreak 000000014000a8b4 f i libcmt:guard_support.obj
 0001:000098d8       __castguard_check_failure_fastfail 000000014000a8d8 f i libcmt:guard_support.obj
 0001:00009904       __castguard_check_failure_nop 000000014000a904 f i libcmt:guard_support.obj
 0001:00009908       __castguard_check_failure_os_handled 000000014000a908 f i libcmt:guard_support.obj
 0001:0000999c       __castguard_slow_path_check_debugbreak 000000014000a99c f i libcmt:guard_support.obj
 0001:000099e0       __castguard_slow_path_check_fastfail 000000014000a9e0 f i libcmt:guard_support.obj
 0001:00009a28       __castguard_slow_path_check_nop 000000014000aa28 f i libcmt:guard_support.obj
 0001:00009a2c       __castguard_slow_path_check_os_handled 000000014000aa2c f i libcmt:guard_support.obj
 0001:00009ab4       _guard_icall_checks_enforced 000000014000aab4 f i libcmt:guard_support.obj
 0001:00009ad0       _guard_rf_checks_enforced  000000014000aad0 f i libcmt:guard_support.obj
 0001:00009ad4       __isa_available_init       000000014000aad4 f   libcmt:cpu_disp.obj
 0001:00009ce0       __scrt_is_ucrt_dll_in_use  000000014000ace0 f   libcmt:ucrt_detection.obj
 0001:00009cf0       QueryPerformanceCounter    000000014000acf0 f   kernel32:KERNEL32.dll
 0001:00009cf6       GetCurrentProcessId        000000014000acf6 f   kernel32:KERNEL32.dll
 0001:00009cfc       GetCurrentThreadId         000000014000acfc f   kernel32:KERNEL32.dll
 0001:00009d02       GetSystemTimeAsFileTime    000000014000ad02 f   kernel32:KERNEL32.dll
 0001:00009d08       InitializeSListHead        000000014000ad08 f   kernel32:KERNEL32.dll
 0001:00009d0e       RtlCaptureContext          000000014000ad0e f   kernel32:KERNEL32.dll
 0001:00009d14       RtlLookupFunctionEntry     000000014000ad14 f   kernel32:KERNEL32.dll
 0001:00009d1a       RtlVirtualUnwind           000000014000ad1a f   kernel32:KERNEL32.dll
 0001:00009d20       IsDebuggerPresent          000000014000ad20 f   kernel32:KERNEL32.dll
 0001:00009d26       UnhandledExceptionFilter   000000014000ad26 f   kernel32:KERNEL32.dll
 0001:00009d2c       SetUnhandledExceptionFilter 000000014000ad2c f   kernel32:KERNEL32.dll
 0001:00009d32       GetStartupInfoW            000000014000ad32 f   kernel32:KERNEL32.dll
 0001:00009d38       IsProcessorFeaturePresent  000000014000ad38 f   kernel32:KERNEL32.dll
 0001:00009d3e       GetModuleHandleW           000000014000ad3e f   kernel32:KERNEL32.dll
 0001:00009d60       memset_repmovs             000000014000ad60 f   libvcruntime:memset.obj
 0001:00009d80       memset                     000000014000ad80 f   libvcruntime:memset.obj
 0001:00009f80       __C_specific_handler       000000014000af80 f   libvcruntime:riscchandler.obj
 0001:0000a1f4       __vcrt_initialize          000000014000b1f4 f   libvcruntime:initialization.obj
 0001:0000a228       __vcrt_thread_attach       000000014000b228 f   libvcruntime:initialization.obj
 0001:0000a244       __vcrt_thread_detach       000000014000b244 f   libvcruntime:initialization.obj
 0001:0000a25c       __vcrt_uninitialize        000000014000b25c f   libvcruntime:initialization.obj
 0001:0000a27c       __vcrt_uninitialize_critical 000000014000b27c f   libvcruntime:initialization.obj
 0001:0000a2a4       ??$?RD@__crt_internal_free_policy@@QEBAXQEBD@Z 000000014000b2a4 f i libvcruntime:std_type_info.obj
 0001:0000a2b0       ??$?RX@__crt_internal_free_policy@@QEBAXQEBX@Z 000000014000b2b0 f i libvcruntime:std_type_info.obj
 0001:0000a2bc       ??$__crt_interlocked_compare_exchange_pointer@$$CBDPEAD$$T@@YAPEBDPEDSEBDQEAD$$T@Z 000000014000b2bc f i libvcruntime:std_type_info.obj
 0001:0000a2c8       ??$__crt_interlocked_read_pointer@$$CBD@@YAPEBDPEDSEBD@Z 000000014000b2c8 f i libvcruntime:std_type_info.obj
 0001:0000a2d0       ??0?$__crt_unique_heap_ptr@DU__crt_internal_free_policy@@@@QEAA@QEAD@Z 000000014000b2d0 f i libvcruntime:std_type_info.obj
 0001:0000a2d8       ??0?$__crt_unique_heap_ptr@XU__crt_internal_free_policy@@@@QEAA@QEAX@Z 000000014000b2d8 f i libvcruntime:std_type_info.obj
 0001:0000a2e0       ??1?$__crt_unique_heap_ptr@DU__crt_internal_free_policy@@@@QEAA@XZ 000000014000b2e0 f i libvcruntime:std_type_info.obj
 0001:0000a304       ??1?$__crt_unique_heap_ptr@XU__crt_internal_free_policy@@@@QEAA@XZ 000000014000b304 f i libvcruntime:std_type_info.obj
 0001:0000a328       ??B?$__crt_unique_heap_ptr@DU__crt_internal_free_policy@@@@QEBA_NXZ 000000014000b328 f i libvcruntime:std_type_info.obj
 0001:0000a334       ??B?$__crt_unique_heap_ptr@XU__crt_internal_free_policy@@@@QEBA_NXZ 000000014000b334 f i libvcruntime:std_type_info.obj
 0001:0000a370       ?__crt_interlocked_read_64@@YA_JPED_J@Z 000000014000b370 f i libvcruntime:std_type_info.obj
 0001:0000a378       ?detach@?$__crt_unique_heap_ptr@XU__crt_internal_free_policy@@@@QEAAPEAXXZ 000000014000b378 f i libvcruntime:std_type_info.obj
 0001:0000a384       ?get@?$__crt_unique_heap_ptr@DU__crt_internal_free_policy@@@@QEBAPEADXZ 000000014000b384 f i libvcruntime:std_type_info.obj
 0001:0000a388       ?get@?$__crt_unique_heap_ptr@XU__crt_internal_free_policy@@@@QEBAPEAXXZ 000000014000b388 f i libvcruntime:std_type_info.obj
 0001:0000a38c       ?is_valid@?$__crt_unique_heap_ptr@DU__crt_internal_free_policy@@@@QEBA_NXZ 000000014000b38c f i libvcruntime:std_type_info.obj
 0001:0000a398       ?is_valid@?$__crt_unique_heap_ptr@XU__crt_internal_free_policy@@@@QEBA_NXZ 000000014000b398 f i libvcruntime:std_type_info.obj
 0001:0000a3a4       ?release@?$__crt_unique_heap_ptr@DU__crt_internal_free_policy@@@@QEAAXXZ 000000014000b3a4 f i libvcruntime:std_type_info.obj
 0001:0000a3c8       ?release@?$__crt_unique_heap_ptr@XU__crt_internal_free_policy@@@@QEAAXXZ 000000014000b3c8 f i libvcruntime:std_type_info.obj
 0001:0000a3ec       __std_type_info_compare    000000014000b3ec f   libvcruntime:std_type_info.obj
 0001:0000a41c       __std_type_info_destroy_list 000000014000b41c f   libvcruntime:std_type_info.obj
 0001:0000a450       __std_type_info_hash       000000014000b450 f   libvcruntime:std_type_info.obj
 0001:0000a498       __std_type_info_name       000000014000b498 f   libvcruntime:std_type_info.obj
 0001:0000a5f8       __DestructExceptionObject  000000014000b5f8 f   libvcruntime:ehhelpers.obj
 0001:0000a680       ?_CallMemberFunction0@@YAXQEAX0@Z 000000014000b680 f i libvcruntime:ehhelpers.obj
 0001:0000a6f4       ?raw_name@type_info@@QEBAPEBDXZ 000000014000b6f4 f i libvcruntime:ehhelpers.obj
 0001:0000a6fc       _IsExceptionObjectToBeDestroyed 000000014000b6fc f   libvcruntime:ehhelpers.obj
 0001:0000a738       _SetWinRTOutOfMemoryExceptionCallback 000000014000b738 f   libvcruntime:ehhelpers.obj
 0001:0000a744       __AdjustPointer            000000014000b744 f   libvcruntime:ehhelpers.obj
 0001:0000a770       __FrameUnwindFilter        000000014000b770 f   libvcruntime:ehhelpers.obj
 0001:0000a7f0       __GetPlatformExceptionInfo 000000014000b7f0 f   libvcruntime:ehhelpers.obj
 0001:0000a864       __current_exception        000000014000b864 f   libvcruntime:ehhelpers.obj
 0001:0000a87c       __current_exception_context 000000014000b87c f   libvcruntime:ehhelpers.obj
 0001:0000a894       __processing_throw         000000014000b894 f   libvcruntime:ehhelpers.obj
 0001:0000a8ac       __std_terminate            000000014000b8ac f   libvcruntime:ehhelpers.obj
 0001:0000a8b8       _is_exception_typeof       000000014000b8b8 f   libvcruntime:ehhelpers.obj
 0001:0000a9a0       _NLG_Notify                000000014000b9a0 f   libvcruntime:notify.obj
 0001:0000a9c0       __NLG_Dispatch2            000000014000b9c0 f   libvcruntime:notify.obj
 0001:0000a9d0       __NLG_Return2              000000014000b9d0 f   libvcruntime:notify.obj
 0001:0000a9ec       __except_validate_context_record 000000014000b9ec f   libvcruntime:jbcxrval.obj
 0001:0000aa30       __except_validate_jump_buffer 000000014000ba30 f   libvcruntime:jbcxrval.obj
 0001:0000aa80       __except_validate_jump_buffer_common 000000014000ba80 f i libvcruntime:jbcxrval.obj
 0001:0000aaf4       ??$?RU__vcrt_ptd@@@__crt_internal_free_policy@@QEBAXQEBU__vcrt_ptd@@@Z 000000014000baf4 f i libvcruntime:per_thread_data.obj
 0001:0000ab00       ??0?$__crt_unique_heap_ptr@U__vcrt_ptd@@U__crt_internal_free_policy@@@@QEAA@QEAU__vcrt_ptd@@@Z 000000014000bb00 f i libvcruntime:per_thread_data.obj
 0001:0000ab28       ??1?$__crt_unique_heap_ptr@U__vcrt_ptd@@U__crt_internal_free_policy@@@@QEAA@XZ 000000014000bb28 f i libvcruntime:per_thread_data.obj
 0001:0000ab58       ??B?$__crt_unique_heap_ptr@U__vcrt_ptd@@U__crt_internal_free_policy@@@@QEBA_NXZ 000000014000bb58 f i libvcruntime:per_thread_data.obj
 0001:0000ab64       ?detach@?$__crt_unique_heap_ptr@U__vcrt_ptd@@U__crt_internal_free_policy@@@@QEAAPEAU__vcrt_ptd@@XZ 000000014000bb64 f i libvcruntime:per_thread_data.obj
 0001:0000ab70       ?get@?$__crt_unique_heap_ptr@U__vcrt_ptd@@U__crt_internal_free_policy@@@@QEBAPEAU__vcrt_ptd@@XZ 000000014000bb70 f i libvcruntime:per_thread_data.obj
 0001:0000ab74       ?is_valid@?$__crt_unique_heap_ptr@U__vcrt_ptd@@U__crt_internal_free_policy@@@@QEBA_NXZ 000000014000bb74 f i libvcruntime:per_thread_data.obj
 0001:0000ab80       ?release@?$__crt_unique_heap_ptr@U__vcrt_ptd@@U__crt_internal_free_policy@@@@QEAAXXZ 000000014000bb80 f i libvcruntime:per_thread_data.obj
 0001:0000abd8       __vcrt_freefls             000000014000bbd8 f   libvcruntime:per_thread_data.obj
 0001:0000ac00       __vcrt_freeptd             000000014000bc00 f   libvcruntime:per_thread_data.obj
 0001:0000ac60       __vcrt_getptd              000000014000bc60 f   libvcruntime:per_thread_data.obj
 0001:0000ac80       __vcrt_getptd_noexit       000000014000bc80 f   libvcruntime:per_thread_data.obj
 0001:0000ad70       __vcrt_getptd_noinit       000000014000bd70 f   libvcruntime:per_thread_data.obj
 0001:0000add0       __vcrt_initialize_ptd      000000014000bdd0 f   libvcruntime:per_thread_data.obj
 0001:0000ae28       __vcrt_uninitialize_ptd    000000014000be28 f   libvcruntime:per_thread_data.obj
 0001:0000ae54       __vcrt_initialize_locks    000000014000be54 f   libvcruntime:locks.obj
 0001:0000aeac       __vcrt_lock                000000014000beac f   libvcruntime:locks.obj
 0001:0000aecc       __vcrt_uninitialize_locks  000000014000becc f   libvcruntime:locks.obj
 0001:0000af10       __vcrt_unlock              000000014000bf10 f   libvcruntime:locks.obj
 0001:0000af30       ??$?0$00@DName@@QEAA@PEBDU?$StringLifeSelector@$00@@@Z 000000014000bf30 f i libvcruntime:undname.obj
 0001:0000af80       ??$?0$00@pcharNode@@QEAA@PEBDHU?$StringLifeSelector@$00@@@Z 000000014000bf80 f i libvcruntime:undname.obj
 0001:0000af9c       ??$?0$01@DName@@QEAA@PEBDU?$StringLifeSelector@$01@@@Z 000000014000bf9c f i libvcruntime:undname.obj
 0001:0000afec       ??$?0$01@pcharNode@@QEAA@PEBDHU?$StringLifeSelector@$01@@@Z 000000014000bfec f i libvcruntime:undname.obj
 0001:0000b07c       ??$?0$0A@@DName@@QEAA@PEBDU?$StringLifeSelector@$0A@@@@Z 000000014000c07c f i libvcruntime:undname.obj
 0001:0000b0cc       ??$?0$0A@@pcharNode@@QEAA@PEBDHU?$StringLifeSelector@$0A@@@@Z 000000014000c0cc f i libvcruntime:undname.obj
 0001:0000b15c       ??$?0_K$0A@@?$optional@_K@std@@QEAA@$$QEA_K@Z 000000014000c15c f i libvcruntime:undname.obj
 0001:0000b170       ??$?0_K@?$_Optional_construct_base@_K@std@@QEAA@Uin_place_t@1@$$QEA_K@Z 000000014000c170 f i libvcruntime:undname.obj
 0001:0000b184       ??$?0_K@?$_Optional_destruct_base@_K$00@std@@QEAA@Uin_place_t@1@$$QEA_K@Z 000000014000c184 f i libvcruntime:undname.obj
 0001:0000b198       ??$append@VDNameNode@@@DName@@AEAAXPEBVDNameNode@@@Z 000000014000c198 f i libvcruntime:undname.obj
 0001:0000b214       ??$append@VDNameStatusNode@@@DName@@AEAAXPEBVDNameStatusNode@@@Z 000000014000c214 f i libvcruntime:undname.obj
 0001:0000b290       ??$append@VcharNode@@@DName@@AEAAXPEBVcharNode@@@Z 000000014000c290 f i libvcruntime:undname.obj
 0001:0000b30c       ??$append@VpDNameNode@@@DName@@AEAAXPEBVpDNameNode@@@Z 000000014000c30c f i libvcruntime:undname.obj
 0001:0000b388       ??$append@VpcharNode@@@DName@@AEAAXPEBVpcharNode@@@Z 000000014000c388 f i libvcruntime:undname.obj
 0001:0000b404       ??$doPchar@$00@DName@@AEAAXPEBDH@Z 000000014000c404 f i libvcruntime:undname.obj
 0001:0000b4d0       ??$doPchar@$01@DName@@AEAAXPEBDH@Z 000000014000c4d0 f i libvcruntime:undname.obj
 0001:0000b58c       ??$doPchar@$0A@@DName@@AEAAXPEBDH@Z 000000014000c58c f i libvcruntime:undname.obj
 0001:0000b648       ??$forward@_K@std@@YA$$QEA_KAEA_K@Z 000000014000c648 f i libvcruntime:undname.obj
 0001:0000b64c       ??$size@D$04@std@@YA_KAEAY04$$CBD@Z 000000014000c64c f i libvcruntime:undname.obj
 0001:0000b654       ??$size@D$0EB@@std@@YA_KAEAY0EB@$$CBD@Z 000000014000c654 f i libvcruntime:undname.obj
 0001:0000b65c       ??0?$_Optional_construct_base@_K@std@@QEAA@XZ 000000014000c65c f i libvcruntime:undname.obj
 0001:0000b668       ??0?$_Optional_destruct_base@_K$00@std@@QEAA@XZ 000000014000c668 f i libvcruntime:undname.obj
 0001:0000b674       ??0?$optional@_K@std@@QEAA@XZ 000000014000c674 f i libvcruntime:undname.obj
 0001:0000b680       ??0Block@_HeapManager@@QEAA@XZ 000000014000c680 f i libvcruntime:undname.obj
 0001:0000b68c       ??0DName@@QEAA@AEAPEBDD@Z  000000014000c68c f   libvcruntime:undname.obj
 0001:0000b768       ??0DName@@QEAA@AEBUStringLiteral@@@Z 000000014000c768 f   libvcruntime:undname.obj
 0001:0000b7a0       ??0DName@@QEAA@AEBV0@@Z    000000014000c7a0 f i libvcruntime:undname.obj
 0001:0000b7b4       ??0DName@@QEAA@D@Z         000000014000c7b4 f   libvcruntime:undname.obj
 0001:0000b7dc       ??0DName@@QEAA@PEAV0@@Z    000000014000c7dc f   libvcruntime:undname.obj
 0001:0000b880       ??0DName@@QEAA@W4DNameStatus@@@Z 000000014000c880 f   libvcruntime:undname.obj
 0001:0000b8b8       ??0DName@@QEAA@XZ          000000014000c8b8 f i libvcruntime:undname.obj
 0001:0000b8c8       ??0DName@@QEAA@_J@Z        000000014000c8c8 f   libvcruntime:undname.obj
 0001:0000b998       ??0DName@@QEAA@_K@Z        000000014000c998 f   libvcruntime:undname.obj
 0001:0000ba44       ??0DNameNode@@IEAA@XZ      000000014000ca44 f i libvcruntime:undname.obj
 0001:0000ba58       ??0Replicator@@QEAA@XZ     000000014000ca58 f i libvcruntime:undname.obj
 0001:0000ba6c       ??0UnDecorator@@QEAA@PEBDP6APEADJ@ZK@Z 000000014000ca6c f i libvcruntime:undname.obj
 0001:0000bad0       ??0_Nontrivial_dummy_type@std@@QEAA@XZ 000000014000cad0 f i libvcruntime:undname.obj
 0001:0000bad4       ??0charNode@@QEAA@D@Z      000000014000cad4 f i libvcruntime:undname.obj
 0001:0000baec       ??0pDNameNode@@QEAA@PEAVDName@@@Z 000000014000caec f   libvcruntime:undname.obj
 0001:0000bb1c       ??0pairNode@@QEAA@PEBVDNameNode@@0@Z 000000014000cb1c f i libvcruntime:undname.obj
 0001:0000bb44       ??2@YAPEAX_KAEAV_HeapManager@@H@Z 000000014000cb44 f   libvcruntime:undname.obj
 0001:0000bb78       ??4DName@@QEAAAEAV0@AEBUStringLiteral@@@Z 000000014000cb78 f   libvcruntime:undname.obj
 0001:0000bba8       ??4DName@@QEAAAEAV0@AEBV0@@Z 000000014000cba8 f   libvcruntime:undname.obj
 0001:0000bbbc       ??4DName@@QEAAAEAV0@D@Z    000000014000cbbc f i libvcruntime:undname.obj
 0001:0000bbe4       ??4DName@@QEAAAEAV0@PEAV0@@Z 000000014000cbe4 f   libvcruntime:undname.obj
 0001:0000bc78       ??4DName@@QEAAAEAV0@W4DNameStatus@@@Z 000000014000cc78 f   libvcruntime:undname.obj
 0001:0000bcb4       ??AReplicator@@QEBA?AVDName@@H@Z 000000014000ccb4 f   libvcruntime:undname.obj
 0001:0000bd04       ??B?$optional@_K@std@@QEBA_NXZ 000000014000cd04 f i libvcruntime:undname.obj
 0001:0000bd08       ??D?$optional@_K@std@@QEGAAAEA_KXZ 000000014000cd08 f i libvcruntime:undname.obj
 0001:0000bd0c       ??H@YA?AVDName@@AEBUStringLiteral@@AEBV0@@Z 000000014000cd0c f i libvcruntime:undname.obj
 0001:0000bd50       ??H@YA?AVDName@@DAEBV0@@Z  000000014000cd50 f i libvcruntime:undname.obj
 0001:0000bda4       ??H@YA?AVDName@@W4DNameStatus@@AEBV0@@Z 000000014000cda4 f i libvcruntime:undname.obj
 0001:0000be00       ??HDName@@QEBA?AV0@AEBUStringLiteral@@@Z 000000014000ce00 f   libvcruntime:undname.obj
 0001:0000be34       ??HDName@@QEBA?AV0@AEBV0@@Z 000000014000ce34 f   libvcruntime:undname.obj
 0001:0000be68       ??HDName@@QEBA?AV0@D@Z     000000014000ce68 f   libvcruntime:undname.obj
 0001:0000be9c       ??HDName@@QEBA?AV0@PEAV0@@Z 000000014000ce9c f   libvcruntime:undname.obj
 0001:0000bed0       ??HDName@@QEBA?AV0@W4DNameStatus@@@Z 000000014000ced0 f   libvcruntime:undname.obj
 0001:0000bf04       ??HStringLiteral@@QEBA?AU0@H@Z 000000014000cf04 f i libvcruntime:undname.obj
 0001:0000bf20       ??YDName@@QEAAAEAV0@AEBUStringLiteral@@@Z 000000014000cf20 f   libvcruntime:undname.obj
 0001:0000bfc0       ??YDName@@QEAAAEAV0@AEBV0@@Z 000000014000cfc0 f   libvcruntime:undname.obj
 0001:0000c030       ??YDName@@QEAAAEAV0@D@Z    000000014000d030 f   libvcruntime:undname.obj
 0001:0000c0b8       ??YDName@@QEAAAEAV0@PEAV0@@Z 000000014000d0b8 f   libvcruntime:undname.obj
 0001:0000c170       ??YDName@@QEAAAEAV0@W4DNameStatus@@@Z 000000014000d170 f   libvcruntime:undname.obj
 0001:0000c1dc       ??YReplicator@@QEAAAEAV0@AEBVDName@@@Z 000000014000d1dc f   libvcruntime:undname.obj
 0001:0000c24c       ??_5DName@@QEAAAEAV0@AEBV0@@Z 000000014000d24c f   libvcruntime:undname.obj
 0001:0000c268       ??__K_l@@YA?AUStringLiteral@@PEBD_K@Z 000000014000d268 f i libvcruntime:undname.obj
 0001:0000c278       ?Constructor@_HeapManager@@QEAAXP6APEAX_K@ZP6AXPEAX@Z@Z 000000014000d278 f i libvcruntime:undname.obj
 0001:0000c294       ?Destructor@_HeapManager@@QEAAXXZ 000000014000d294 f i libvcruntime:undname.obj
 0001:0000c2f0       ?UScore@UnDecorator@@SA?AUStringLiteral@@W4Tokens@@@Z 000000014000d2f0 f   libvcruntime:undname.obj
 0001:0000c350       ?composeDeclaration@UnDecorator@@CA?AVDName@@AEBV2@@Z 000000014000d350 f i libvcruntime:undname.obj
 0001:0000d58c       ?doAccessSpecifiers@UnDecorator@@SAHXZ 000000014000e58c f i libvcruntime:undname.obj
 0001:0000d5a0       ?doAllocationLanguage@UnDecorator@@SAHXZ 000000014000e5a0 f i libvcruntime:undname.obj
 0001:0000d5b4       ?doAllocationModel@UnDecorator@@SAHXZ 000000014000e5b4 f i libvcruntime:undname.obj
 0001:0000d5c8       ?doEcsu@UnDecorator@@SAHXZ 000000014000e5c8 f i libvcruntime:undname.obj
 0001:0000d5dc       ?doEllipsis@UnDecorator@@SAHXZ 000000014000e5dc f i libvcruntime:undname.obj
 0001:0000d5f0       ?doFunctionReturns@UnDecorator@@SAHXZ 000000014000e5f0 f i libvcruntime:undname.obj
 0001:0000d604       ?doMSKeywords@UnDecorator@@SAHXZ 000000014000e604 f i libvcruntime:undname.obj
 0001:0000d618       ?doMemberTypes@UnDecorator@@SAHXZ 000000014000e618 f i libvcruntime:undname.obj
 0001:0000d62c       ?doNameOnly@UnDecorator@@SAHXZ 000000014000e62c f i libvcruntime:undname.obj
 0001:0000d63c       ?doNoIdentCharCheck@UnDecorator@@SAHXZ 000000014000e63c f i libvcruntime:undname.obj
 0001:0000d64c       ?doPchar@DName@@AEAAXD@Z   000000014000e64c f   libvcruntime:undname.obj
 0001:0000d6b0       ?doPtr64@UnDecorator@@SAHXZ 000000014000e6b0 f i libvcruntime:undname.obj
 0001:0000d6c4       ?doRestrictionSpec@UnDecorator@@SAHXZ 000000014000e6c4 f i libvcruntime:undname.obj
 0001:0000d6d8       ?doThisTypes@UnDecorator@@SAHXZ 000000014000e6d8 f i libvcruntime:undname.obj
 0001:0000d6f0       ?doThrowTypes@UnDecorator@@SAHXZ 000000014000e6f0 f i libvcruntime:undname.obj
 0001:0000d704       ?doTypeOnly@UnDecorator@@SAHXZ 000000014000e704 f i libvcruntime:undname.obj
 0001:0000d714       ?doUnderScore@UnDecorator@@SAHXZ 000000014000e714 f i libvcruntime:undname.obj
 0001:0000d724       ?getAddressOf@UnDecorator@@CA?AVDName@@XZ 000000014000e724 f   libvcruntime:undname.obj
 0001:0000d7d8       ?getArgumentList@UnDecorator@@CA?AVDName@@XZ 000000014000e7d8 f   libvcruntime:undname.obj
 0001:0000d9bc       ?getArgumentTypes@UnDecorator@@CA?AVDName@@XZ 000000014000e9bc f   libvcruntime:undname.obj
 0001:0000db5c       ?getArrayAccess@UnDecorator@@CA?AVDName@@XZ 000000014000eb5c f   libvcruntime:undname.obj
 0001:0000dc1c       ?getArrayObject@UnDecorator@@CA?AVDName@@XZ 000000014000ec1c f   libvcruntime:undname.obj
 0001:0000dd04       ?getArrayType@UnDecorator@@CA?AVDName@@AEBV2@@Z 000000014000ed04 f i libvcruntime:undname.obj
 0001:0000dfdc       ?getBasedType@UnDecorator@@CA?AVDName@@XZ 000000014000efdc f   libvcruntime:undname.obj
 0001:0000e110       ?getBasicDataType@UnDecorator@@CA?AVDName@@AEBV2@@Z 000000014000f110 f   libvcruntime:undname.obj
 0001:0000e818       ?getCHPEName@UnDecorator@@QEAAPEADPEADH@Z 000000014000f818 f i libvcruntime:undname.obj
 0001:0000e97c       ?getCallIndex@UnDecorator@@CA?AVDName@@XZ 000000014000f97c f i libvcruntime:undname.obj
 0001:0000e99c       ?getCallingConvention@UnDecorator@@CA?AVDName@@XZ 000000014000f99c f   libvcruntime:undname.obj
 0001:0000eb3c       ?getDataIndirectType@UnDecorator@@CA?AVDName@@AEBV2@W4IndirectionKind@@0H@Z 000000014000fb3c f   libvcruntime:undname.obj
 0001:0000f630       ?getDataIndirectType@UnDecorator@@CA?AVDName@@XZ 0000000140010630 f i libvcruntime:undname.obj
 0001:0000f678       ?getDataType@UnDecorator@@CA?AVDName@@PEAV2@@Z 0000000140010678 f   libvcruntime:undname.obj
 0001:0000f7d0       ?getDecoratedName@UnDecorator@@CA?AVDName@@XZ 00000001400107d0 f   libvcruntime:undname.obj
 0001:0000fb70       ?getDimension@UnDecorator@@CA?AVDName@@_N@Z 0000000140010b70 f   libvcruntime:undname.obj
 0001:0000fd0c       ?getDispatchTarget@UnDecorator@@CA?AVDName@@XZ 0000000140010d0c f   libvcruntime:undname.obj
 0001:0000fd6c       ?getDisplacement@UnDecorator@@CA?AVDName@@XZ 0000000140010d6c f i libvcruntime:undname.obj
 0001:0000fd8c       ?getECSUDataType@UnDecorator@@CA?AVDName@@XZ 0000000140010d8c f   libvcruntime:undname.obj
 0001:0000ffe4       ?getECSUName@UnDecorator@@CA?AVDName@@XZ 0000000140010fe4 f i libvcruntime:undname.obj
 0001:00010000       ?getEnumType@UnDecorator@@CA?AVDName@@XZ 0000000140011000 f i libvcruntime:undname.obj
 0001:0001017c       ?getExtendedDataIndirectType@UnDecorator@@CA?AVDName@@AEAW4IndirectionKind@@AEA_NH@Z 000000014001117c f   libvcruntime:undname.obj
 0001:00010400       ?getExternalDataType@UnDecorator@@CA?AVDName@@AEBV2@@Z 0000000140011400 f i libvcruntime:undname.obj
 0001:000104f0       ?getFloatingPoint@UnDecorator@@CA?AVDName@@H@Z 00000001400114f0 f   libvcruntime:undname.obj
 0001:00010660       ?getFunctionIndirectType@UnDecorator@@CA?AVDName@@AEBV2@@Z 0000000140011660 f   libvcruntime:undname.obj
 0001:00010ccc       ?getGuardNumber@UnDecorator@@CA?AVDName@@XZ 0000000140011ccc f i libvcruntime:undname.obj
 0001:00010cec       ?getLastChar@DName@@QEBADXZ 0000000140011cec f i libvcruntime:undname.obj
 0001:00010d0c       ?getLastChar@DNameStatusNode@@UEBADXZ 0000000140011d0c f i libvcruntime:undname.obj
 0001:00010d1c       ?getLastChar@charNode@@UEBADXZ 0000000140011d1c f i libvcruntime:undname.obj
 0001:00010d20       ?getLastChar@pDNameNode@@UEBADXZ 0000000140011d20 f i libvcruntime:undname.obj
 0001:00010d54       ?getLastChar@pairNode@@UEBADXZ 0000000140011d54 f i libvcruntime:undname.obj
 0001:00010d98       ?getLastChar@pcharNode@@UEBADXZ 0000000140011d98 f i libvcruntime:undname.obj
 0001:00010db4       ?getLexicalFrame@UnDecorator@@CA?AVDName@@XZ 0000000140011db4 f i libvcruntime:undname.obj
 0001:00010e30       ?getMemberAccess@UnDecorator@@CA?AVDName@@XZ 0000000140011e30 f   libvcruntime:undname.obj
 0001:00010ee8       ?getMemoryWithBuffer@_HeapManager@@QEAAPEAX_K@Z 0000000140011ee8 f   libvcruntime:undname.obj
 0001:00010f9c       ?getMemoryWithoutBuffer@_HeapManager@@QEAAPEAX_K@Z 0000000140011f9c f   libvcruntime:undname.obj
 0001:00010fb4       ?getNoexcept@UnDecorator@@CA?AVDName@@XZ 0000000140011fb4 f   libvcruntime:undname.obj
 0001:00011030       ?getNumberOfDimensions@UnDecorator@@CAHXZ 0000000140012030 f   libvcruntime:undname.obj
 0001:000110b4       ?getOperatorName@UnDecorator@@CA?AVDName@@_NPEA_N@Z 00000001400120b4 f i libvcruntime:undname.obj
 0001:00011d40       ?getPointerToMember@UnDecorator@@CA?AVDName@@XZ 0000000140012d40 f   libvcruntime:undname.obj
 0001:00011e74       ?getPointerType@UnDecorator@@CA?AVDName@@AEBV2@0@Z 0000000140012e74 f i libvcruntime:undname.obj
 0001:00011e98       ?getPointerTypeArray@UnDecorator@@CA?AVDName@@AEBV2@0@Z 0000000140012e98 f i libvcruntime:undname.obj
 0001:00011eb8       ?getPrimaryDataType@UnDecorator@@CA?AVDName@@AEBV2@@Z 0000000140012eb8 f   libvcruntime:undname.obj
 0001:00012220       ?getPtrRefDataType@UnDecorator@@CA?AVDName@@AEBV2@H@Z 0000000140013220 f   libvcruntime:undname.obj
 0001:00012460       ?getPtrRefType@UnDecorator@@CA?AVDName@@AEBV2@0W4IndirectionKind@@@Z 0000000140013460 f   libvcruntime:undname.obj
 0001:000126ac       ?getReferenceType@UnDecorator@@CA?AVDName@@AEBV2@0W4IndirectionKind@@@Z 00000001400136ac f i libvcruntime:undname.obj
 0001:000126c8       ?getRestrictionSpec@UnDecorator@@CA?AVDName@@XZ 00000001400136c8 f   libvcruntime:undname.obj
 0001:00012918       ?getReturnType@UnDecorator@@CA?AVDName@@PEAV2@@Z 0000000140013918 f   libvcruntime:undname.obj
 0001:0001295c       ?getScope@UnDecorator@@CA?AVDName@@XZ 000000014001395c f   libvcruntime:undname.obj
 0001:00012f44       ?getScopedName@UnDecorator@@CA?AVDName@@XZ 0000000140013f44 f   libvcruntime:undname.obj
 0001:000130d0       ?getSignedDimension@UnDecorator@@CA?AVDName@@XZ 00000001400140d0 f   libvcruntime:undname.obj
 0001:00013178       ?getStorageConvention@UnDecorator@@CA?AVDName@@XZ 0000000140014178 f i libvcruntime:undname.obj
 0001:000131c0       ?getString@DName@@QEBAPEADPEAD0@Z 00000001400141c0 f i libvcruntime:undname.obj
 0001:000131e0       ?getString@DName@@QEBAPEADPEADH@Z 00000001400141e0 f i libvcruntime:undname.obj
 0001:00013298       ?getString@DNameStatusNode@@UEBAPEADPEAD0@Z 0000000140014298 f i libvcruntime:undname.obj
 0001:000132f0       ?getString@charNode@@UEBAPEADPEAD0@Z 00000001400142f0 f i libvcruntime:undname.obj
 0001:00013308       ?getString@pDNameNode@@UEBAPEADPEAD0@Z 0000000140014308 f i libvcruntime:undname.obj
 0001:00013340       ?getString@pairNode@@UEBAPEADPEAD0@Z 0000000140014340 f i libvcruntime:undname.obj
 0001:000133a0       ?getString@pcharNode@@UEBAPEADPEAD0@Z 00000001400143a0 f i libvcruntime:undname.obj
 0001:000133e4       ?getStringEncoding@UnDecorator@@CA?AVDName@@W4PrefixKind@@H@Z 00000001400143e4 f   libvcruntime:undname.obj
 0001:00013510       ?getStringHelper@@YAPEADPEADPEBD1H@Z 0000000140014510 f i libvcruntime:undname.obj
 0001:00013548       ?getStringObject@UnDecorator@@CA?AVDName@@XZ 0000000140014548 f   libvcruntime:undname.obj
 0001:000135cc       ?getSymbolName@UnDecorator@@CA?AVDName@@XZ 00000001400145cc f i libvcruntime:undname.obj
 0001:0001362c       ?getTemplateArgumentList@UnDecorator@@CA?AVDName@@XZ 000000014001462c f   libvcruntime:undname.obj
 0001:00013930       ?getTemplateName@UnDecorator@@CA?AVDName@@_N@Z 0000000140014930 f   libvcruntime:undname.obj
 0001:00013c68       ?getTemplateNonTypeArgument@UnDecorator@@CA?AVDName@@XZ 0000000140014c68 f   libvcruntime:undname.obj
 0001:0001430c       ?getTemplateTypeArgument@UnDecorator@@CA?AVDName@@XZ 000000014001530c f   libvcruntime:undname.obj
 0001:000144cc       ?getThisType@UnDecorator@@CA?AVDName@@XZ 00000001400154cc f i libvcruntime:undname.obj
 0001:0001451c       ?getThrowTypes@UnDecorator@@CA?AVDName@@XZ 000000014001551c f   libvcruntime:undname.obj
 0001:00014548       ?getTypeEncoding@UnDecorator@@CAHXZ 0000000140015548 f i libvcruntime:undname.obj
 0001:000149c8       ?getUndecoratedName@UnDecorator@@QEAAPEADPEADH@Z 00000001400159c8 f i libvcruntime:undname.obj
 0001:00014b70       ?getUnionObject@UnDecorator@@CA?AVDName@@XZ 0000000140015b70 f   libvcruntime:undname.obj
 0001:00014c7c       ?getVCallThunkType@UnDecorator@@CA?AVDName@@XZ 0000000140015c7c f i libvcruntime:undname.obj
 0001:00014d10       ?getValue@UnDecorator@@CA?AV?$optional@_K@std@@XZ 0000000140015d10 f   libvcruntime:undname.obj
 0001:00014da0       ?getValueObject@UnDecorator@@CA?AVDName@@XZ 0000000140015da0 f   libvcruntime:undname.obj
 0001:00014f30       ?getVbTableType@UnDecorator@@CA?AVDName@@AEBV2@@Z 0000000140015f30 f i libvcruntime:undname.obj
 0001:00014f4c       ?getVdispMapType@UnDecorator@@CA?AVDName@@AEBV2@@Z 0000000140015f4c f i libvcruntime:undname.obj
 0001:00014fe8       ?getVfTableType@UnDecorator@@CA?AVDName@@AEBV2@@Z 0000000140015fe8 f i libvcruntime:undname.obj
 0001:00015274       ?getZName@UnDecorator@@CA?AVDName@@_N0@Z 0000000140016274 f   libvcruntime:undname.obj
 0001:0001560c       ?haveTemplateParameters@UnDecorator@@SAHXZ 000000014001660c f i libvcruntime:undname.obj
 0001:0001561c       ?isArray@DName@@QEBAHXZ    000000014001661c f i libvcruntime:undname.obj
 0001:00015628       ?isComArray@DName@@QEBAHXZ 0000000140016628 f i libvcruntime:undname.obj
 0001:00015634       ?isEmpty@DName@@QEBAHXZ    0000000140016634 f i libvcruntime:undname.obj
 0001:00015640       ?isFull@Replicator@@QEBAHXZ 0000000140016640 f i libvcruntime:undname.obj
 0001:0001564c       ?isNoTE@DName@@QEBAHXZ     000000014001664c f i libvcruntime:undname.obj
 0001:00015658       ?isPinPtr@DName@@QEBAHXZ   0000000140016658 f i libvcruntime:undname.obj
 0001:00015664       ?isPtrRef@DName@@QEBAHXZ   0000000140016664 f i libvcruntime:undname.obj
 0001:00015670       ?isUDC@DName@@QEBAHXZ      0000000140016670 f i libvcruntime:undname.obj
 0001:0001568c       ?isUDTThunk@DName@@QEBAHXZ 000000014001668c f i libvcruntime:undname.obj
 0001:000156a8       ?isVCallThunk@DName@@QEBAHXZ 00000001400166a8 f i libvcruntime:undname.obj
 0001:000156b4       ?isValid@DName@@QEBAHXZ    00000001400166b4 f i libvcruntime:undname.obj
 0001:000156c0       ?length@DName@@QEBAHXZ     00000001400166c0 f i libvcruntime:undname.obj
 0001:000156e0       ?length@DNameStatusNode@@UEBAHXZ 00000001400166e0 f i libvcruntime:undname.obj
 0001:000156e4       ?length@charNode@@UEBAHXZ  00000001400166e4 f i libvcruntime:undname.obj
 0001:000156ec       ?length@pDNameNode@@UEBAHXZ 00000001400166ec f i libvcruntime:undname.obj
 0001:00015720       ?length@pairNode@@UEBAHXZ  0000000140016720 f i libvcruntime:undname.obj
 0001:00015778       ?length@pcharNode@@UEBAHXZ 0000000140016778 f i libvcruntime:undname.obj
 0001:0001577c       ?make@DNameStatusNode@@SAPEBV1@W4DNameStatus@@@Z 000000014001677c f i libvcruntime:undname.obj
 0001:000157a4       ?parseDecoratedName@UnDecorator@@CA?AVDName@@XZ 00000001400167a4 f   libvcruntime:undname.obj
 0001:000158fc       ?raw_length@DNameStatusNode@@UEBAHXZ 00000001400168fc f i libvcruntime:undname.obj
 0001:00015900       ?raw_length@charNode@@UEBAHXZ 0000000140016900 f i libvcruntime:undname.obj
 0001:00015908       ?raw_length@pDNameNode@@UEBAHXZ 0000000140016908 f i libvcruntime:undname.obj
 0001:0001590c       ?raw_length@pairNode@@UEBAHXZ 000000014001690c f i libvcruntime:undname.obj
 0001:00015910       ?raw_length@pcharNode@@UEBAHXZ 0000000140016910 f i libvcruntime:undname.obj
 0001:00015914       ?setIsArray@DName@@QEAAXXZ 0000000140016914 f i libvcruntime:undname.obj
 0001:0001591c       ?setIsComArray@DName@@QEAAXXZ 000000014001691c f i libvcruntime:undname.obj
 0001:00015924       ?setIsNoTE@DName@@QEAAXXZ  0000000140016924 f i libvcruntime:undname.obj
 0001:0001592c       ?setIsPinPtr@DName@@QEAAXXZ 000000014001692c f i libvcruntime:undname.obj
 0001:00015934       ?setIsUDC@DName@@QEAAXXZ   0000000140016934 f i libvcruntime:undname.obj
 0001:00015944       ?setIsVCallThunk@DName@@QEAAXXZ 0000000140016944 f i libvcruntime:undname.obj
 0001:0001594c       ?setPtrRef@DName@@QEAAAEAV1@XZ 000000014001694c f i libvcruntime:undname.obj
 0001:00015958       ?status@DName@@QEBA?AW4DNameStatus@@XZ 0000000140016958 f i libvcruntime:undname.obj
 0001:000159d0       __unDName                  00000001400169d0 f   libvcruntime:undname.obj
 0001:00015a00       __unDNameEx                0000000140016a00 f   libvcruntime:undname.obj
 0001:00015b80       _vsprintf_s_l              0000000140016b80 f i libvcruntime:undname.obj
 0001:00015bfc       sprintf_s                  0000000140016bfc f i libvcruntime:undname.obj
 0001:00015c64       unDNameGenerateCHPE        0000000140016c64 f   libvcruntime:undname.obj
 0001:00015dac       ??$__crt_interlocked_exchange_pointer@UHINSTANCE__@@PEAU1@@@YAPEAUHINSTANCE__@@PEDSEAU0@QEAU0@@Z 0000000140016dac f i libvcruntime:winapi_downlevel.obj
 0001:00015db4       ??$__crt_interlocked_exchange_pointer@UHINSTANCE__@@PEAX@@YAPEAUHINSTANCE__@@PEDSEAU0@QEAX@Z 0000000140016db4 f i libvcruntime:winapi_downlevel.obj
 0001:00015dbc       ??$__crt_interlocked_exchange_pointer@XPEAX@@YAPEAXPEDSEAXQEAX@Z 0000000140016dbc f i libvcruntime:winapi_downlevel.obj
 0001:00015dc4       ??$__crt_interlocked_read_pointer@UHINSTANCE__@@@@YAPEAUHINSTANCE__@@PEDSEAU0@@Z 0000000140016dc4 f i libvcruntime:winapi_downlevel.obj
 0001:00015dcc       ??$__crt_interlocked_read_pointer@X@@YAPEAXPEDSEAX@Z 0000000140016dcc f i libvcruntime:winapi_downlevel.obj
 0001:00016454       __vcrt_FlsAlloc            0000000140017454 f   libvcruntime:winapi_downlevel.obj
 0001:000164ac       __vcrt_FlsFree             00000001400174ac f   libvcruntime:winapi_downlevel.obj
 0001:00016504       __vcrt_FlsGetValue         0000000140017504 f   libvcruntime:winapi_downlevel.obj
 0001:0001655c       __vcrt_FlsSetValue         000000014001755c f   libvcruntime:winapi_downlevel.obj
 0001:000165c4       __vcrt_InitializeCriticalSectionEx 00000001400175c4 f   libvcruntime:winapi_downlevel.obj
 0001:00016640       ??$__crt_interlocked_exchange_pointer@$$A6AXXZP6AXXZ@@YAP6AXXZPEDS6AXXZQ6AXXZ@Z 0000000140017640 f i libvcruntime:purevirt.obj
 0001:00016648       ??$__crt_interlocked_read_pointer@$$A6AXXZ@@YAP6AXXZPEDS6AXXZ@Z 0000000140017648 f i libvcruntime:purevirt.obj
 0001:00016650       _get_purecall_handler      0000000140017650 f   libvcruntime:purevirt.obj
 0001:0001665c       _purecall                  000000014001765c f   libvcruntime:purevirt.obj
 0001:0001667c       _set_purecall_handler      000000014001767c f   libvcruntime:purevirt.obj
 0001:0001668c       ??$?0AEAViterator@TryBlockMap4@FH4@@AEAV012@$0A@@?$pair@Viterator@TryBlockMap4@FH4@@V123@@std@@QEAA@AEAViterator@TryBlockMap4@FH4@@0@Z 000000014001768c f i libvcruntime:risctrnsctrl.obj
 0001:000166a8       ??$?0AEAViterator@TryBlockMap@__FrameHandler3@@AEAV012@$0A@@?$pair@Viterator@TryBlockMap@__FrameHandler3@@V123@@std@@QEAA@AEAViterator@TryBlockMap@__FrameHandler3@@0@Z 00000001400176a8 f i libvcruntime:risctrnsctrl.obj
 0001:00016850       ??$_CallSETranslator@V__FrameHandler3@@@@YAHPEAUEHExceptionRecord@@PEA_KPEAU_CONTEXT@@PEAU_xDISPATCHER_CONTEXT@@PEBU_s_FuncInfo@@K1H@Z 0000000140017850 f i libvcruntime:risctrnsctrl.obj
 0001:000168b8       ??$_CallSETranslator@V__FrameHandler4@@@@YAHPEAUEHExceptionRecord@@PEA_KPEAU_CONTEXT@@PEAU_xDISPATCHER_CONTEXT@@PEAUFuncInfo4@FH4@@K1H@Z 00000001400178b8 f i libvcruntime:risctrnsctrl.obj
 0001:00016920       ??$forward@AEAViterator@TryBlockMap4@FH4@@@std@@YAAEAViterator@TryBlockMap4@FH4@@AEAV123@@Z 0000000140017920 f i libvcruntime:risctrnsctrl.obj
 0001:00016924       ??$forward@AEAViterator@TryBlockMap@__FrameHandler3@@@std@@YAAEAViterator@TryBlockMap@__FrameHandler3@@AEAV123@@Z 0000000140017924 f i libvcruntime:risctrnsctrl.obj
 0001:00016928       ??0FuncInfo4@FH4@@QEAA@XZ  0000000140017928 f i libvcruntime:risctrnsctrl.obj
 0001:00016940       ??0FuncInfoHeader@FH4@@QEAA@XZ 0000000140017940 f i libvcruntime:risctrnsctrl.obj
 0001:00016948       ??0iterator@TryBlockMap4@FH4@@QEAA@AEAV12@I@Z 0000000140017948 f i libvcruntime:risctrnsctrl.obj
 0001:00016958       ??0iterator@TryBlockMap@__FrameHandler3@@QEAA@AEAV12@I@Z 0000000140017958 f i libvcruntime:risctrnsctrl.obj
 0001:00016968       ??4iterator@TryBlockMap4@FH4@@QEAAAEAV012@AEBV012@@Z 0000000140017968 f i libvcruntime:risctrnsctrl.obj
 0001:00016974       ??9iterator@TryBlockMap4@FH4@@QEBA_NAEBV012@@Z 0000000140017974 f i libvcruntime:risctrnsctrl.obj
 0001:00016980       ??Diterator@TryBlockMap4@FH4@@QEAA?AUTryBlockMapEntry4@2@XZ 0000000140017980 f i libvcruntime:risctrnsctrl.obj
 0001:00016994       ??Eiterator@TryBlockMap4@FH4@@QEAAAEAV012@XZ 0000000140017994 f i libvcruntime:risctrnsctrl.obj
 0001:00016a58       ?CatchTryBlock@__FrameHandler3@@SAPEBU_s_TryBlockMapEntry@@PEBU_s_FuncInfo@@H@Z 0000000140017a58 f   libvcruntime:risctrnsctrl.obj
 0001:00016ad4       ?DecompFuncInfo@FH4@@YA_JPEAEAEAUFuncInfo4@1@_KH@Z 0000000140017ad4 f i libvcruntime:risctrnsctrl.obj
 0001:00016aec       ?DecompFuncInfo@FH4@@YA_JPEAEAEAUFuncInfo4@1@_KH_N@Z 0000000140017aec f i libvcruntime:risctrnsctrl.obj
 0001:00016c58       ?DecompTryBlock@TryBlockMap4@FH4@@AEAAXXZ 0000000140017c58 f i libvcruntime:risctrnsctrl.obj
 0001:00016d10       ?ExecutionInCatch@__FrameHandler3@@SA_NPEAU_xDISPATCHER_CONTEXT@@PEBU_s_FuncInfo@@@Z 0000000140017d10 f   libvcruntime:risctrnsctrl.obj
 0001:00016d44       ?ExecutionInCatch@__FrameHandler4@@SA_NPEAU_xDISPATCHER_CONTEXT@@PEAUFuncInfo4@FH4@@@Z 0000000140017d44 f   libvcruntime:risctrnsctrl.obj
 0001:00016d4c       ?FrameUnwindToEmptyState@__FrameHandler3@@SAXPEA_KPEAU_xDISPATCHER_CONTEXT@@PEBU_s_FuncInfo@@@Z 0000000140017d4c f   libvcruntime:risctrnsctrl.obj
 0001:00016dcc       ?FrameUnwindToEmptyState@__FrameHandler4@@SAXPEA_KPEAU_xDISPATCHER_CONTEXT@@PEAUFuncInfo4@FH4@@@Z 0000000140017dcc f   libvcruntime:risctrnsctrl.obj
 0001:00016e0c       ?GetEstablisherFrame@__FrameHandler3@@SAPEA_KPEA_KPEAU_xDISPATCHER_CONTEXT@@PEBU_s_FuncInfo@@0@Z 0000000140017e0c f   libvcruntime:risctrnsctrl.obj
 0001:00016f0c       ?GetEstablisherFrame@__FrameHandler4@@SAPEA_KPEA_KPEAU_xDISPATCHER_CONTEXT@@PEAUFuncInfo4@FH4@@0@Z 0000000140017f0c f   libvcruntime:risctrnsctrl.obj
 0001:00016f38       ?GetRangeOfTrysToCheck@__FrameHandler3@@SA?AU?$pair@Viterator@TryBlockMap@__FrameHandler3@@V123@@std@@AEAVTryBlockMap@1@HPEAU_xDISPATCHER_CONTEXT@@PEBU_s_FuncInfo@@H@Z 0000000140017f38 f   libvcruntime:risctrnsctrl.obj
 0001:000170c8       ?GetRangeOfTrysToCheck@__FrameHandler4@@SA?AU?$pair@Viterator@TryBlockMap4@FH4@@V123@@std@@AEAVTryBlockMap4@FH4@@HPEAU_xDISPATCHER_CONTEXT@@PEAUFuncInfo4@5@H@Z 00000001400180c8 f   libvcruntime:risctrnsctrl.obj
 0001:0001728c       ?ReadInt@FH4@@YAHPEAPEAE@Z 000000014001828c f i libvcruntime:risctrnsctrl.obj
 0001:0001729c       ?ReadUnsigned@FH4@@YAIPEAPEAE@Z 000000014001829c f i libvcruntime:risctrnsctrl.obj
 0001:000172d8       ?UnwindNestedFrames@__FrameHandler3@@SAXPEA_KPEAUEHExceptionRecord@@PEAU_CONTEXT@@0PEAXPEBU_s_FuncInfo@@HHPEBU_s_HandlerType@@PEAU_xDISPATCHER_CONTEXT@@E@Z 00000001400182d8 f   libvcruntime:risctrnsctrl.obj
 0001:0001741c       ?UnwindNestedFrames@__FrameHandler4@@SAXPEA_KPEAUEHExceptionRecord@@PEAU_CONTEXT@@0PEAXPEAUFuncInfo4@FH4@@HHPEAUHandlerType4@5@PEAU_xDISPATCHER_CONTEXT@@E@Z 000000014001841c f   libvcruntime:risctrnsctrl.obj
 0001:00017584       ?begin@TryBlockMap4@FH4@@QEAA?AViterator@12@XZ 0000000140018584 f i libvcruntime:risctrnsctrl.obj
 0001:00017594       ?end@TryBlockMap4@FH4@@QEAA?AViterator@12@XZ 0000000140018594 f i libvcruntime:risctrnsctrl.obj
 0001:000175a4       ?imageRelToByteBuffer@FH4@@YAPEAE_KH@Z 00000001400185a4 f i libvcruntime:risctrnsctrl.obj
 0001:000175ac       ?incrementToSentinel@iterator@TryBlockMap4@FH4@@QEAAXXZ 00000001400185ac f i libvcruntime:risctrnsctrl.obj
 0001:000175b0       ?setBuffer@TryBlockMap4@FH4@@QEAAXViterator@12@@Z 00000001400185b0 f i libvcruntime:risctrnsctrl.obj
 0001:000177e4       _CreateFrameInfo           00000001400187e4 f   libvcruntime:risctrnsctrl.obj
 0001:0001782c       _FindAndUnlinkFrame        000000014001882c f   libvcruntime:risctrnsctrl.obj
 0001:00017894       _GetImageBase              0000000140018894 f   libvcruntime:risctrnsctrl.obj
 0001:000178ac       _GetThrowImageBase         00000001400188ac f   libvcruntime:risctrnsctrl.obj
 0001:000178c4       _SetImageBase              00000001400188c4 f   libvcruntime:risctrnsctrl.obj
 0001:000178e4       _SetThrowImageBase         00000001400188e4 f   libvcruntime:risctrnsctrl.obj
 0001:00017904       __CxxFrameHandler          0000000140018904 f   libvcruntime:risctrnsctrl.obj
 0001:0001790c       __CxxFrameHandler2         000000014001890c f   libvcruntime:risctrnsctrl.obj
 0001:00017914       __CxxFrameHandler3         0000000140018914 f   libvcruntime:risctrnsctrl.obj
 0001:000179bc       __CxxFrameHandler4         00000001400189bc f   libvcruntime:risctrnsctrl.obj
 0001:00017ac0       memcpy_repmovs             0000000140018ac0 f   libvcruntime:memcpy.obj
 0001:00017ae0       memmove                    0000000140018ae0 f   libvcruntime:memcpy.obj
 0001:00017ae0       memcpy                     0000000140018ae0 f   libvcruntime:memcpy.obj
 0001:00018300       ?GetCurrentState@__FrameHandler3@@SAHPEA_KPEAU_xDISPATCHER_CONTEXT@@PEBU_s_FuncInfo@@@Z 0000000140019300 f   libvcruntime:ehstate.obj
 0001:00018330       ?GetUnwindTryBlock@__FrameHandler3@@SAHPEA_KPEAU_xDISPATCHER_CONTEXT@@PEBU_s_FuncInfo@@@Z 0000000140019330 f   libvcruntime:ehstate.obj
 0001:00018364       ?SetState@__FrameHandler3@@SAXPEA_KPEBU_s_FuncInfo@@H@Z 0000000140019364 f   libvcruntime:ehstate.obj
 0001:00018374       ?SetUnwindTryBlock@__FrameHandler3@@SAXPEA_KPEAU_xDISPATCHER_CONTEXT@@PEBU_s_FuncInfo@@H@Z 0000000140019374 f   libvcruntime:ehstate.obj
 0001:000183c0       ?StateFromControlPc@__FrameHandler3@@SAHPEBU_s_FuncInfo@@PEAU_xDISPATCHER_CONTEXT@@@Z 00000001400193c0 f   libvcruntime:ehstate.obj
 0001:000183cc       ?StateFromControlPc@__FrameHandler4@@SAHPEAUFuncInfo4@FH4@@PEAU_xDISPATCHER_CONTEXT@@@Z 00000001400193cc f   libvcruntime:ehstate.obj
 0001:000183d8       ?StateFromIp@__FrameHandler3@@SAHPEBU_s_FuncInfo@@PEAU_xDISPATCHER_CONTEXT@@_K@Z 00000001400193d8 f   libvcruntime:ehstate.obj
 0001:00018458       ?StateFromIp@__FrameHandler4@@SAHPEAUFuncInfo4@FH4@@PEAU_xDISPATCHER_CONTEXT@@_K@Z 0000000140019458 f   libvcruntime:ehstate.obj
 0001:00018580       ?__FuncRelToRealOffset@@YA_KPEAU_xDISPATCHER_CONTEXT@@I@Z 0000000140019580 f i libvcruntime:ehstate.obj
 0001:00018594       ?__RVAtoRealOffset@@YA_KPEAU_xDISPATCHER_CONTEXT@@H@Z 0000000140019594 f i libvcruntime:ehstate.obj
 0001:0001a130       ??$TypeMatchHelper@V__FrameHandler3@@@@YAHPEBU_s_HandlerType@@PEBU_s_CatchableType@@PEBU_s_ThrowInfo@@@Z 000000014001b130 f i libvcruntime:frame.obj
 0001:0001a2bc       ??$TypeMatchHelper@V__FrameHandler4@@@@YAHPEAUHandlerType4@FH4@@PEBU_s_CatchableType@@PEBU_s_ThrowInfo@@@Z 000000014001b2bc f i libvcruntime:frame.obj
 0001:0001a450       ??$__InternalCxxFrameHandler@V__FrameHandler3@@@@YA?AW4_EXCEPTION_DISPOSITION@@PEAUEHExceptionRecord@@PEA_KPEAU_CONTEXT@@PEAU_xDISPATCHER_CONTEXT@@PEBU_s_FuncInfo@@H1E@Z 000000014001b450 f i libvcruntime:frame.obj
 0001:0001a714       ??$__InternalCxxFrameHandler@V__FrameHandler4@@@@YA?AW4_EXCEPTION_DISPOSITION@@PEAUEHExceptionRecord@@PEA_KPEAU_CONTEXT@@PEAU_xDISPATCHER_CONTEXT@@PEAUFuncInfo4@FH4@@H1E@Z 000000014001b714 f i libvcruntime:frame.obj
 0001:0001aa50       ??0HandlerMap4@FH4@@QEAA@PEBUTryBlockMapEntry4@1@_KH@Z 000000014001ba50 f i libvcruntime:frame.obj
 0001:0001aae8       ??0HandlerMap@__FrameHandler3@@QEAA@PEBU_s_TryBlockMapEntry@@_KI@Z 000000014001bae8 f i libvcruntime:frame.obj
 0001:0001ab04       ??0HandlerType4@FH4@@QEAA@XZ 000000014001bb04 f i libvcruntime:frame.obj
 0001:0001ab20       ??0TryBlockMap4@FH4@@QEAA@PEBUFuncInfo4@1@_K@Z 000000014001bb20 f i libvcruntime:frame.obj
 0001:0001ac2c       ??0TryBlockMap@__FrameHandler3@@QEAA@PEBU_s_FuncInfo@@_K@Z 000000014001bc2c f i libvcruntime:frame.obj
 0001:0001ac3c       ??0UWMap4@FH4@@QEAA@PEBUFuncInfo4@1@_K@Z 000000014001bc3c f i libvcruntime:frame.obj
 0001:0001ac90       ??0bad_exception@std@@QEAA@AEBV01@@Z 000000014001bc90 f i libvcruntime:frame.obj
 0001:0001acdc       ??0bad_exception@std@@QEAA@XZ 000000014001bcdc f i libvcruntime:frame.obj
 0001:0001ad04       ??0exception@std@@QEAA@AEBV01@@Z 000000014001bd04 f i libvcruntime:frame.obj
 0001:0001ad44       ??0exception@std@@QEAA@QEBDH@Z 000000014001bd44 f i libvcruntime:frame.obj
 0001:0001ad60       ??0iterator@HandlerMap4@FH4@@QEAA@AEAV12@I@Z 000000014001bd60 f i libvcruntime:frame.obj
 0001:0001ad70       ??0iterator@HandlerMap@__FrameHandler3@@QEAA@AEAV12@I@Z 000000014001bd70 f i libvcruntime:frame.obj
 0001:0001ad80       ??0iterator@UWMap4@FH4@@QEAA@AEAV12@PEAE@Z 000000014001bd80 f i libvcruntime:frame.obj
 0001:0001ad90       ??1bad_exception@std@@UEAA@XZ 000000014001bd90 f i libvcruntime:frame.obj
 0001:0001ada8       ??1exception@std@@UEAA@XZ  000000014001bda8 f i libvcruntime:frame.obj
 0001:0001adc0       ??4iterator@UWMap4@FH4@@QEAAAEAV012@AEBV012@@Z 000000014001bdc0 f i libvcruntime:frame.obj
 0001:0001ade8       ??8iterator@HandlerMap4@FH4@@QEBA_NAEBV012@@Z 000000014001bde8 f i libvcruntime:frame.obj
 0001:0001adf4       ??8iterator@HandlerMap@__FrameHandler3@@QEBA_NAEBV012@@Z 000000014001bdf4 f i libvcruntime:frame.obj
 0001:0001ae00       ??8type_info@@QEBA_NAEBV0@@Z 000000014001be00 f i libvcruntime:frame.obj
 0001:0001ae24       ??9iterator@HandlerMap4@FH4@@QEBA_NAEBV012@@Z 000000014001be24 f i libvcruntime:frame.obj
 0001:0001ae30       ??9iterator@HandlerMap@__FrameHandler3@@QEBA_NAEBV012@@Z 000000014001be30 f i libvcruntime:frame.obj
 0001:0001ae3c       ??Diterator@HandlerMap4@FH4@@QEAA?AUHandlerType4@2@XZ 000000014001be3c f i libvcruntime:frame.obj
 0001:0001ae64       ??Diterator@HandlerMap@__FrameHandler3@@QEAA?BU_s_HandlerType@@XZ 000000014001be64 f i libvcruntime:frame.obj
 0001:0001ae90       ??Diterator@TryBlockMap@__FrameHandler3@@QEAA?BU_s_TryBlockMapEntry@@XZ 000000014001be90 f i libvcruntime:frame.obj
 0001:0001aec8       ??Diterator@UWMap4@FH4@@QEAA?AUUnwindMapEntry4@2@XZ 000000014001bec8 f i libvcruntime:frame.obj
 0001:0001af30       ??Eiterator@HandlerMap4@FH4@@QEAAAEAV012@XZ 000000014001bf30 f i libvcruntime:frame.obj
 0001:0001af54       ??Eiterator@HandlerMap@__FrameHandler3@@QEAAAEAV012@XZ 000000014001bf54 f i libvcruntime:frame.obj
 0001:0001af5c       ??Eiterator@TryBlockMap@__FrameHandler3@@QEAAAEAV012@XZ 000000014001bf5c f i libvcruntime:frame.obj
 0001:0001af64       ??Eiterator@UWMap4@FH4@@QEAAAEAV012@XZ 000000014001bf64 f i libvcruntime:frame.obj
 0001:0001af8c       ??Giterator@UWMap4@FH4@@QEBA_JAEBV012@@Z 000000014001bf8c f i libvcruntime:frame.obj
 0001:0001af98       ??Miterator@TryBlockMap4@FH4@@QEBA_NAEBV012@@Z 000000014001bf98 f i libvcruntime:frame.obj
 0001:0001afa4       ??Miterator@TryBlockMap@__FrameHandler3@@QEBA_NAEBV012@@Z 000000014001bfa4 f i libvcruntime:frame.obj
 0001:0001afb0       ??Oiterator@UWMap4@FH4@@QEBA_NAEBV012@@Z 000000014001bfb0 f i libvcruntime:frame.obj
 0001:0001afc0       ??Piterator@UWMap4@FH4@@QEBA_NAEBV012@@Z 000000014001bfc0 f i libvcruntime:frame.obj
 0001:0001afd0       ??_Ebad_exception@std@@UEAAPEAXI@Z 000000014001bfd0 f i libvcruntime:frame.obj
 0001:0001afd0       ??_Gbad_exception@std@@UEAAPEAXI@Z 000000014001bfd0 f i libvcruntime:frame.obj
 0001:0001b024       ??_Eexception@std@@UEAAPEAXI@Z 000000014001c024 f i libvcruntime:frame.obj
 0001:0001b024       ??_Gexception@std@@UEAAPEAXI@Z 000000014001c024 f i libvcruntime:frame.obj
 0001:0001b078       ?BuildCatchObject@__FrameHandler3@@SAXPEAUEHExceptionRecord@@PEAXPEBU_s_HandlerType@@PEBU_s_CatchableType@@@Z 000000014001c078 f   libvcruntime:frame.obj
 0001:0001b080       ?BuildCatchObject@__FrameHandler4@@SAXPEAUEHExceptionRecord@@PEAXPEAUHandlerType4@FH4@@PEBU_s_CatchableType@@@Z 000000014001c080 f   libvcruntime:frame.obj
 0001:0001b088       ?BuildCatchObjectHelper@__FrameHandler3@@SAHPEAUEHExceptionRecord@@PEAXPEBU_s_HandlerType@@PEBU_s_CatchableType@@@Z 000000014001c088 f   libvcruntime:frame.obj
 0001:0001b090       ?BuildCatchObjectHelper@__FrameHandler4@@SAHPEAUEHExceptionRecord@@PEAXPEAUHandlerType4@FH4@@PEBU_s_CatchableType@@@Z 000000014001c090 f   libvcruntime:frame.obj
 0001:0001b098       ?CxxCallCatchBlock@__FrameHandler3@@SAPEAXPEAU_EXCEPTION_RECORD@@@Z 000000014001c098 f   libvcruntime:frame.obj
 0001:0001b2fc       ?CxxCallCatchBlock@__FrameHandler4@@SAPEAXPEAU_EXCEPTION_RECORD@@@Z 000000014001c2fc f   libvcruntime:frame.obj
 0001:0001b5e0       ?DecompHandler@HandlerMap4@FH4@@AEAAXXZ 000000014001c5e0 f i libvcruntime:frame.obj
 0001:0001b8c0       ?FrameUnwindToState@__FrameHandler3@@SAXPEA_KPEAU_xDISPATCHER_CONTEXT@@PEBU_s_FuncInfo@@H@Z 000000014001c8c0 f   libvcruntime:frame.obj
 0001:0001baac       ?FrameUnwindToState@__FrameHandler4@@SAXPEA_KPEAU_xDISPATCHER_CONTEXT@@PEAUFuncInfo4@FH4@@H@Z 000000014001caac f   libvcruntime:frame.obj
 0001:0001be64       ?GetHandlerSearchState@__FrameHandler3@@SAHPEA_KPEAU_xDISPATCHER_CONTEXT@@PEBU_s_FuncInfo@@@Z 000000014001ce64 f i libvcruntime:frame.obj
 0001:0001bf20       ?GetHandlerSearchState@__FrameHandler4@@SAHPEA_KPEAU_xDISPATCHER_CONTEXT@@PEAUFuncInfo4@FH4@@@Z 000000014001cf20 f i libvcruntime:frame.obj
 0001:0001bf9c       ?GetMaxState@__FrameHandler3@@SAHPEAU_xDISPATCHER_CONTEXT@@PEBU_s_FuncInfo@@@Z 000000014001cf9c f i libvcruntime:frame.obj
 0001:0001bfa0       ?GetMaxState@__FrameHandler4@@SAHPEAU_xDISPATCHER_CONTEXT@@PEAUFuncInfo4@FH4@@@Z 000000014001cfa0 f i libvcruntime:frame.obj
 0001:0001c1bc       ?ReadEntry@UWMap4@FH4@@AEAAXPEAPEAE@Z 000000014001d1bc f i libvcruntime:frame.obj
 0001:0001c280       ?TypeMatch@__FrameHandler3@@SAHPEBU_s_HandlerType@@PEBU_s_CatchableType@@PEBU_s_ThrowInfo@@@Z 000000014001d280 f   libvcruntime:frame.obj
 0001:0001c288       ?TypeMatch@__FrameHandler4@@SAHPEAUHandlerType4@FH4@@PEBU_s_CatchableType@@PEBU_s_ThrowInfo@@@Z 000000014001d288 f   libvcruntime:frame.obj
 0001:0001c290       ?WalkBack@UWMap4@FH4@@AEAAXPEAPEAE@Z 000000014001d290 f i libvcruntime:frame.obj
 0001:0001c2d4       ?WalkBack@iterator@UWMap4@FH4@@QEAAXXZ 000000014001d2d4 f i libvcruntime:frame.obj
 0001:0001c320       ?WalkForward@UWMap4@FH4@@AEAAXPEAPEAE@Z 000000014001d320 f i libvcruntime:frame.obj
 0001:0001c328       ?_CallMemberFunction1@@YAXQEAX00@Z 000000014001d328 f i libvcruntime:frame.obj
 0001:0001c334       ?_CallMemberFunction2@@YAXQEAX00H@Z 000000014001d334 f i libvcruntime:frame.obj
 0001:0001c364       ?begin@HandlerMap4@FH4@@QEAA?AViterator@12@XZ 000000014001d364 f i libvcruntime:frame.obj
 0001:0001c374       ?begin@HandlerMap@__FrameHandler3@@QEAA?AViterator@12@XZ 000000014001d374 f i libvcruntime:frame.obj
 0001:0001c384       ?begin@UWMap4@FH4@@QEAA?AViterator@12@XZ 000000014001d384 f i libvcruntime:frame.obj
 0001:0001c398       ?end@HandlerMap4@FH4@@QEAA?AViterator@12@XZ 000000014001d398 f i libvcruntime:frame.obj
 0001:0001c3a8       ?end@HandlerMap@__FrameHandler3@@QEAA?AViterator@12@XZ 000000014001d3a8 f i libvcruntime:frame.obj
 0001:0001c3b8       ?getESTypes@__FrameHandler3@@SAPEBU_s_ESTypeList@@PEBU_s_FuncInfo@@@Z 000000014001d3b8 f i libvcruntime:frame.obj
 0001:0001c3ec       ?getESTypes@__FrameHandler4@@SAPEBU_s_ESTypeList@@PEAUFuncInfo4@FH4@@@Z 000000014001d3ec f i libvcruntime:frame.obj
 0001:0001c3f0       ?getLastEntry@HandlerMap4@FH4@@QEAAPEAUHandlerType4@2@XZ 000000014001d3f0 f i libvcruntime:frame.obj
 0001:0001c454       ?getLastEntry@HandlerMap@__FrameHandler3@@QEAAPEBU_s_HandlerType@@XZ 000000014001d454 f i libvcruntime:frame.obj
 0001:0001c46c       ?getMagicNum@__FrameHandler3@@SAIPEBU_s_FuncInfo@@@Z 000000014001d46c f i libvcruntime:frame.obj
 0001:0001c478       ?getMagicNum@__FrameHandler4@@SAIPEAUFuncInfo4@FH4@@@Z 000000014001d478 f i libvcruntime:frame.obj
 0001:0001c480       ?getNumTryBlocks@TryBlockMap4@FH4@@QEAAIXZ 000000014001d480 f i libvcruntime:frame.obj
 0001:0001c484       ?getNumTryBlocks@TryBlockMap@__FrameHandler3@@QEAAIXZ 000000014001d484 f i libvcruntime:frame.obj
 0001:0001c48c       ?getStartStop@UWMap4@FH4@@QEAAXHHAEAViterator@12@0@Z 000000014001d48c f i libvcruntime:frame.obj
 0001:0001c590       ?getStateFromIterators@UWMap4@FH4@@SAHAEBViterator@12@H0H0@Z 000000014001d590 f i libvcruntime:frame.obj
 0001:0001c690       ?isEHs@__FrameHandler3@@SA_NPEBU_s_FuncInfo@@@Z 000000014001d690 f i libvcruntime:frame.obj
 0001:0001c698       ?isEHs@__FrameHandler4@@SA_NPEAUFuncInfo4@FH4@@@Z 000000014001d698 f i libvcruntime:frame.obj
 0001:0001c6a4       ?isNoExcept@__FrameHandler3@@SA_NPEBU_s_FuncInfo@@@Z 000000014001d6a4 f i libvcruntime:frame.obj
 0001:0001c6b0       ?isNoExcept@__FrameHandler4@@SA_NPEAUFuncInfo4@FH4@@@Z 000000014001d6b0 f i libvcruntime:frame.obj
 0001:0001c6bc       ?reset@HandlerType4@FH4@@QEAAXXZ 000000014001d6bc f i libvcruntime:frame.obj
 0001:0001c6d8       ?resetBuffer@HandlerMap4@FH4@@QEAAXXZ 000000014001d6d8 f i libvcruntime:frame.obj
 0001:0001c6e8       ?setBuffer@HandlerMap4@FH4@@QEAAXI@Z 000000014001d6e8 f i libvcruntime:frame.obj
 0001:0001c730       ?what@exception@std@@UEBAPEBDXZ 000000014001d730 f i libvcruntime:frame.obj
 0001:0001c748       __BuildCatchObject         000000014001d748 f   libvcruntime:frame.obj
 0001:0001c750       __BuildCatchObjectHelper   000000014001d750 f   libvcruntime:frame.obj
 0001:0001c758       __TypeMatch                000000014001d758 f   libvcruntime:frame.obj
 0001:0001c760       __vcrt_EncodePointer       000000014001d760 f i libvcruntime:frame.obj
 0001:0001c780       _CallSettingFrame          000000014001d780 f   libvcruntime:handlers.obj
 0001:0001c7d0       _CallSettingFrame_LookupContinuationIndex 000000014001d7d0 f   libvcruntime:handlers.obj
 0001:0001c800       _CallSettingFrame_NotifyContinuationAddr 000000014001d800 f   libvcruntime:handlers.obj
 0001:0001c830       _CallSettingFrameEncoded   000000014001d830 f   libvcruntime:handlers.obj
 0001:0001c8b8       ??$?RD@__crt_public_free_policy@@QEBAXQEBD@Z 000000014001d8b8 f i libvcruntime:std_exception.obj
 0001:0001c8c4       ??0?$__crt_unique_heap_ptr@DU__crt_public_free_policy@@@@QEAA@QEAD@Z 000000014001d8c4 f i libvcruntime:std_exception.obj
 0001:0001c8cc       ??1?$__crt_unique_heap_ptr@DU__crt_public_free_policy@@@@QEAA@XZ 000000014001d8cc f i libvcruntime:std_exception.obj
 0001:0001c8f0       ??B?$__crt_unique_heap_ptr@DU__crt_public_free_policy@@@@QEBA_NXZ 000000014001d8f0 f i libvcruntime:std_exception.obj
 0001:0001c8fc       ?detach@?$__crt_unique_heap_ptr@DU__crt_public_free_policy@@@@QEAAPEADXZ 000000014001d8fc f i libvcruntime:std_exception.obj
 0001:0001c908       ?get@?$__crt_unique_heap_ptr@DU__crt_public_free_policy@@@@QEBAPEADXZ 000000014001d908 f i libvcruntime:std_exception.obj
 0001:0001c90c       ?is_valid@?$__crt_unique_heap_ptr@DU__crt_public_free_policy@@@@QEBA_NXZ 000000014001d90c f i libvcruntime:std_exception.obj
 0001:0001c918       ?release@?$__crt_unique_heap_ptr@DU__crt_public_free_policy@@@@QEAAXXZ 000000014001d918 f i libvcruntime:std_exception.obj
 0001:0001c93c       __std_exception_copy       000000014001d93c f   libvcruntime:std_exception.obj
 0001:0001c9ec       __std_exception_destroy    000000014001d9ec f   libvcruntime:std_exception.obj
 0001:0001ca1c       _CxxThrowException         000000014001da1c f   libvcruntime:throw.obj
 0001:0001cb08       _seh_filter_dll            000000014001db08 f   libucrt:exception_filter.obj
 0001:0001cb20       _seh_filter_exe            000000014001db20 f   libucrt:exception_filter.obj
 0001:0001ce10       __acrt_report_runtime_error 000000014001de10 f   libucrt:report_runtime_error.obj
 0001:0001cfc4       _invoke_watson_if_error    000000014001dfc4 f i libucrt:report_runtime_error.obj
 0001:0001d004       _query_app_type            000000014001e004 f   libucrt:report_runtime_error.obj
 0001:0001d00c       _set_app_type              000000014001e00c f   libucrt:report_runtime_error.obj
 0001:0001d014       ??$__crt_fast_decode_pointer@P6AHPEAU_exception@@@Z@@YAP6AHPEAU_exception@@@ZQ6AH0@Z@Z 000000014001e014 f i libucrt:matherr.obj
 0001:0001d030       ??$__crt_fast_encode_pointer@P6AHPEAU_exception@@@Z@@YAP6AHPEAU_exception@@@ZQ6AH0@Z@Z 000000014001e030 f i libucrt:matherr.obj
 0001:0001d058       ?__crt_rotate_pointer_value@@YA_K_KH@Z 000000014001e058 f i libucrt:matherr.obj
 0001:0001d064       ?get_current_state_index@__crt_state_management@@YA_KXZ 000000014001e064 f i libucrt:matherr.obj
 0001:0001d068       ?initialize@?$dual_state_global@P6AHPEAU_exception@@@Z@__crt_state_management@@QEAAXQ6AHPEAU_exception@@@Z@Z 000000014001e068 f i libucrt:matherr.obj
 0001:0001d098       ?value@?$dual_state_global@P6AHPEAU_exception@@@Z@__crt_state_management@@QEAAAEAP6AHPEAU_exception@@@ZXZ 000000014001e098 f i libucrt:matherr.obj
 0001:0001d09c       __acrt_has_user_matherr    000000014001e09c f   libucrt:matherr.obj
 0001:0001d0c0       __acrt_initialize_user_matherr 000000014001e0c0 f   libucrt:matherr.obj
 0001:0001d0cc       __acrt_invoke_user_matherr 000000014001e0cc f   libucrt:matherr.obj
 0001:0001d108       __setusermatherr           000000014001e108 f   libucrt:matherr.obj
 0001:0001d138       ??$?RE@__crt_internal_free_policy@@QEBAXQEBE@Z 000000014001e138 f i libucrt:argv_parsing.obj
 0001:0001d144       ??$?RPEAD@__crt_internal_free_policy@@QEBAXQEBQEAD@Z 000000014001e144 f i libucrt:argv_parsing.obj
 0001:0001d150       ??$?RPEA_W@__crt_internal_free_policy@@QEBAXQEBQEA_W@Z 000000014001e150 f i libucrt:argv_parsing.obj
 0001:0001d500       ??$get_module_file_name@$$TAEAY0BAF@DH@?$__crt_char_traits@D@@SAK$$QEA$$TAEAY0BAF@D$$QEAH@Z 000000014001e500 f i libucrt:argv_parsing.obj
 0001:0001d510       ??$get_module_file_name@$$TAEAY0BAF@_WH@?$__crt_char_traits@_W@@SAK$$QEA$$TAEAY0BAF@_W$$QEAH@Z 000000014001e510 f i libucrt:argv_parsing.obj
 0001:0001d958       ??$set_program_name@PEAD@?$__crt_char_traits@D@@SAX$$QEAPEAD@Z 000000014001e958 f i libucrt:argv_parsing.obj
 0001:0001d968       ??$set_program_name@PEA_W@?$__crt_char_traits@_W@@SAX$$QEAPEA_W@Z 000000014001e968 f i libucrt:argv_parsing.obj
 0001:0001d988       ??0?$__crt_unique_heap_ptr@EU__crt_internal_free_policy@@@@QEAA@QEAE@Z 000000014001e988 f i libucrt:argv_parsing.obj
 0001:0001d990       ??0?$__crt_unique_heap_ptr@PEADU__crt_internal_free_policy@@@@QEAA@QEAPEAD@Z 000000014001e990 f i libucrt:argv_parsing.obj
 0001:0001d998       ??0?$__crt_unique_heap_ptr@PEA_WU__crt_internal_free_policy@@@@QEAA@QEAPEA_W@Z 000000014001e998 f i libucrt:argv_parsing.obj
 0001:0001d9a0       ??1?$__crt_unique_heap_ptr@EU__crt_internal_free_policy@@@@QEAA@XZ 000000014001e9a0 f i libucrt:argv_parsing.obj
 0001:0001d9c4       ??1?$__crt_unique_heap_ptr@PEADU__crt_internal_free_policy@@@@QEAA@XZ 000000014001e9c4 f i libucrt:argv_parsing.obj
 0001:0001d9e8       ??1?$__crt_unique_heap_ptr@PEA_WU__crt_internal_free_policy@@@@QEAA@XZ 000000014001e9e8 f i libucrt:argv_parsing.obj
 0001:0001da0c       ??B?$__crt_unique_heap_ptr@EU__crt_internal_free_policy@@@@QEBA_NXZ 000000014001ea0c f i libucrt:argv_parsing.obj
 0001:0001da60       ?detach@?$__crt_unique_heap_ptr@EU__crt_internal_free_policy@@@@QEAAPEAEXZ 000000014001ea60 f i libucrt:argv_parsing.obj
 0001:0001da6c       ?detach@?$__crt_unique_heap_ptr@PEADU__crt_internal_free_policy@@@@QEAAPEAPEADXZ 000000014001ea6c f i libucrt:argv_parsing.obj
 0001:0001da78       ?detach@?$__crt_unique_heap_ptr@PEA_WU__crt_internal_free_policy@@@@QEAAPEAPEA_WXZ 000000014001ea78 f i libucrt:argv_parsing.obj
 0001:0001daa0       ?get@?$__crt_unique_heap_ptr@EU__crt_internal_free_policy@@@@QEBAPEAEXZ 000000014001eaa0 f i libucrt:argv_parsing.obj
 0001:0001daa4       ?get@?$__crt_unique_heap_ptr@PEADU__crt_internal_free_policy@@@@QEBAPEAPEADXZ 000000014001eaa4 f i libucrt:argv_parsing.obj
 0001:0001daa8       ?get@?$__crt_unique_heap_ptr@PEA_WU__crt_internal_free_policy@@@@QEBAPEAPEA_WXZ 000000014001eaa8 f i libucrt:argv_parsing.obj
 0001:0001daac       ?get_address_of@?$__crt_unique_heap_ptr@PEADU__crt_internal_free_policy@@@@QEAAPEAPEAPEADXZ 000000014001eaac f i libucrt:argv_parsing.obj
 0001:0001dab0       ?get_address_of@?$__crt_unique_heap_ptr@PEA_WU__crt_internal_free_policy@@@@QEAAPEAPEAPEA_WXZ 000000014001eab0 f i libucrt:argv_parsing.obj
 0001:0001dae4       ?is_valid@?$__crt_unique_heap_ptr@EU__crt_internal_free_policy@@@@QEBA_NXZ 000000014001eae4 f i libucrt:argv_parsing.obj
 0001:0001daf0       ?release@?$__crt_unique_heap_ptr@EU__crt_internal_free_policy@@@@QEAAXXZ 000000014001eaf0 f i libucrt:argv_parsing.obj
 0001:0001db14       ?release@?$__crt_unique_heap_ptr@PEADU__crt_internal_free_policy@@@@QEAAXXZ 000000014001eb14 f i libucrt:argv_parsing.obj
 0001:0001db38       ?release@?$__crt_unique_heap_ptr@PEA_WU__crt_internal_free_policy@@@@QEAAXXZ 000000014001eb38 f i libucrt:argv_parsing.obj
 0001:0001db7c       __acrt_allocate_buffer_for_argv 000000014001eb7c f   libucrt:argv_parsing.obj
 0001:0001dbf0       _configure_narrow_argv     000000014001ebf0 f   libucrt:argv_parsing.obj
 0001:0001ddd8       _configure_wide_argv       000000014001edd8 f   libucrt:argv_parsing.obj
 0001:0001dfbc       _set_pgmptr                000000014001efbc f i libucrt:argv_parsing.obj
 0001:0001dfc8       _set_wpgmptr               000000014001efc8 f i libucrt:argv_parsing.obj
 0001:0001dfd4       ??$?R_W@__crt_internal_free_policy@@QEBAXQEB_W@Z 000000014001efd4 f i libucrt:environment_initialization.obj
 0001:0001e61c       ??$get_environment_from_os@$$V@?$__crt_char_traits@D@@SAPEADXZ 000000014001f61c f i libucrt:environment_initialization.obj
 0001:0001e624       ??$get_environment_from_os@$$V@?$__crt_char_traits@_W@@SAPEA_WXZ 000000014001f624 f i libucrt:environment_initialization.obj
 0001:0001e814       ??$set_variable_in_environment_nolock@PEADH@?$__crt_char_traits@D@@SAH$$QEAPEAD$$QEAH@Z 000000014001f814 f i libucrt:environment_initialization.obj
 0001:0001e820       ??$set_variable_in_environment_nolock@PEA_WH@?$__crt_char_traits@_W@@SAH$$QEAPEA_W$$QEAH@Z 000000014001f820 f i libucrt:environment_initialization.obj
 0001:0001e82c       ??$tcscpy_s@PEADAEB_KAEAPEAD@?$__crt_char_traits@D@@SAH$$QEAPEADAEB_KAEAPEAD@Z 000000014001f82c f i libucrt:environment_initialization.obj
 0001:0001e840       ??$tcscpy_s@PEA_WAEB_KAEAPEA_W@?$__crt_char_traits@_W@@SAH$$QEAPEA_WAEB_KAEAPEA_W@Z 000000014001f840 f i libucrt:environment_initialization.obj
 0001:0001e854       ??$tcslen@AEAPEAD@?$__crt_char_traits@D@@SA_KAEAPEAD@Z 000000014001f854 f i libucrt:environment_initialization.obj
 0001:0001e86c       ??$tcslen@AEAPEA_W@?$__crt_char_traits@_W@@SA_KAEAPEA_W@Z 000000014001f86c f i libucrt:environment_initialization.obj
 0001:0001e884       ??$uninitialize@A6AXAEAPEAPEAD@Z@?$dual_state_global@PEAPEAD@__crt_state_management@@QEAAXA6AXAEAPEAPEAD@Z@Z 000000014001f884 f i libucrt:environment_initialization.obj
 0001:0001e8d8       ??$uninitialize@A6AXAEAPEAPEA_W@Z@?$dual_state_global@PEAPEA_W@__crt_state_management@@QEAAXA6AXAEAPEAPEA_W@Z@Z 000000014001f8d8 f i libucrt:environment_initialization.obj
 0001:0001e96c       ??0?$__crt_unique_heap_ptr@_WU__crt_internal_free_policy@@@@QEAA@QEA_W@Z 000000014001f96c f i libucrt:environment_initialization.obj
 0001:0001e974       ??1?$__crt_unique_heap_ptr@_WU__crt_internal_free_policy@@@@QEAA@XZ 000000014001f974 f i libucrt:environment_initialization.obj
 0001:0001e998       ??B?$__crt_unique_heap_ptr@PEADU__crt_internal_free_policy@@@@QEBA_NXZ 000000014001f998 f i libucrt:environment_initialization.obj
 0001:0001e9a4       ??B?$__crt_unique_heap_ptr@PEA_WU__crt_internal_free_policy@@@@QEBA_NXZ 000000014001f9a4 f i libucrt:environment_initialization.obj
 0001:0001e9b0       ??B?$__crt_unique_heap_ptr@_WU__crt_internal_free_policy@@@@QEBA_NXZ 000000014001f9b0 f i libucrt:environment_initialization.obj
 0001:0001e9bc       ?__crt_compute_required_transform_buffer_count@@YA_KIQEBD@Z 000000014001f9bc f i libucrt:environment_initialization.obj
 0001:0001e9ec       ?__crt_compute_required_transform_buffer_count@@YA_KIQEB_W@Z 000000014001f9ec f i libucrt:environment_initialization.obj
 0001:0001ea28       ?__crt_transform_string@@YA_KIQEBDQEA_W_K@Z 000000014001fa28 f i libucrt:environment_initialization.obj
 0001:0001ea54       ?__crt_transform_string@@YA_KIQEB_WQEAD_K@Z 000000014001fa54 f i libucrt:environment_initialization.obj
 0001:0001ea90       ?detach@?$__crt_unique_heap_ptr@DU__crt_internal_free_policy@@@@QEAAPEADXZ 000000014001fa90 f i libucrt:environment_initialization.obj
 0001:0001ea9c       ?detach@?$__crt_unique_heap_ptr@_WU__crt_internal_free_policy@@@@QEAAPEA_WXZ 000000014001fa9c f i libucrt:environment_initialization.obj
 0001:0001eaa8       ?get@?$__crt_unique_heap_ptr@_WU__crt_internal_free_policy@@@@QEBAPEA_WXZ 000000014001faa8 f i libucrt:environment_initialization.obj
 0001:0001eaf4       ?initialize@?$dual_state_global@PEAPEAD@__crt_state_management@@QEAAXQEAPEAD@Z 000000014001faf4 f i libucrt:environment_initialization.obj
 0001:0001eb24       ?initialize@?$dual_state_global@PEAPEA_W@__crt_state_management@@QEAAXQEAPEA_W@Z 000000014001fb24 f i libucrt:environment_initialization.obj
 0001:0001eb54       ?is_valid@?$__crt_unique_heap_ptr@PEADU__crt_internal_free_policy@@@@QEBA_NXZ 000000014001fb54 f i libucrt:environment_initialization.obj
 0001:0001eb60       ?is_valid@?$__crt_unique_heap_ptr@PEA_WU__crt_internal_free_policy@@@@QEBA_NXZ 000000014001fb60 f i libucrt:environment_initialization.obj
 0001:0001eb6c       ?is_valid@?$__crt_unique_heap_ptr@_WU__crt_internal_free_policy@@@@QEBA_NXZ 000000014001fb6c f i libucrt:environment_initialization.obj
 0001:0001eb84       ?release@?$__crt_unique_heap_ptr@_WU__crt_internal_free_policy@@@@QEAAXXZ 000000014001fb84 f i libucrt:environment_initialization.obj
 0001:0001eba8       ?value@?$dual_state_global@PEAPEAD@__crt_state_management@@QEAAAEAPEAPEADXZ 000000014001fba8 f i libucrt:environment_initialization.obj
 0001:0001ebac       ?value@?$dual_state_global@PEAPEA_W@__crt_state_management@@QEAAAEAPEAPEA_WXZ 000000014001fbac f i libucrt:environment_initialization.obj
 0001:0001ebb0       __dcrt_get_or_create_narrow_environment_nolock 000000014001fbb0 f   libucrt:environment_initialization.obj
 0001:0001ebfc       __dcrt_get_or_create_wide_environment_nolock 000000014001fbfc f   libucrt:environment_initialization.obj
 0001:0001ec48       __dcrt_uninitialize_environments_nolock 000000014001fc48 f   libucrt:environment_initialization.obj
 0001:0001ec90       __p__environ               000000014001fc90 f   libucrt:environment_initialization.obj
 0001:0001ec9c       __p__wenviron              000000014001fc9c f   libucrt:environment_initialization.obj
 0001:0001eca8       _get_initial_narrow_environment 000000014001fca8 f   libucrt:environment_initialization.obj
 0001:0001ed0c       _get_initial_wide_environment 000000014001fd0c f   libucrt:environment_initialization.obj
 0001:0001ed70       _initialize_narrow_environment 000000014001fd70 f   libucrt:environment_initialization.obj
 0001:0001ed78       _initialize_wide_environment 000000014001fd78 f   libucrt:environment_initialization.obj
 0001:0001ed80       _initterm                  000000014001fd80 f   libucrt:initterm.obj
 0001:0001ee00       _initterm_e                000000014001fe00 f   libucrt:initterm.obj
 0001:0001ee4c       ??$?B$$A6AXPEAXK0@Z@__crt_fast_encoded_nullptr_t@@QEBAP6AXPEAXK0@ZXZ 000000014001fe4c f i libucrt:exit.obj
 0001:0001eed0       ??$__crt_fast_decode_pointer@P6AXPEAXK0@Z@@YAP6AXPEAXK0@ZQ6AX0K0@Z@Z 000000014001fed0 f i libucrt:exit.obj
 0001:0001eeec       ??$__crt_fast_encode_pointer@P6AXPEAXK0@Z@@YAP6AXPEAXK0@ZQ6AX0K0@Z@Z 000000014001feec f i libucrt:exit.obj
 0001:0001ef14       ??$__crt_get_proc_address@P6AXI@Z@@YAP6AXI@ZQEAUHINSTANCE__@@QEBD@Z 000000014001ff14 f i libucrt:exit.obj
 0001:0001ef1c       ??$__crt_interlocked_read@J@@YAJPEDJ@Z 000000014001ff1c f i libucrt:exit.obj
 0001:0001ef4c       ??0?$__crt_unique_handle_t@U__crt_hmodule_traits@@@@QEAA@QEAUHINSTANCE__@@@Z 000000014001ff4c f i libucrt:exit.obj
 0001:0001ef54       ??1?$__crt_unique_handle_t@U__crt_hmodule_traits@@@@QEAA@XZ 000000014001ff54 f i libucrt:exit.obj
 0001:0001f084       ?__acrt_select_exit_lock@@YA?AW4__acrt_lock_id@@XZ 0000000140020084 f i libucrt:exit.obj
 0001:0001f08c       ?__crt_fast_encode_pointer@@YA?AU__crt_fast_encoded_nullptr_t@@$$T@Z 000000014002008c f i libucrt:exit.obj
 0001:0001f094       ?__crt_interlocked_read_32@@YAHPEDH@Z 0000000140020094 f i libucrt:exit.obj
 0001:0001f0a8       ?close@?$__crt_unique_handle_t@U__crt_hmodule_traits@@@@QEAAXXZ 00000001400200a8 f i libucrt:exit.obj
 0001:0001f0d4       ?close@__crt_hmodule_traits@@SA_NPEAUHINSTANCE__@@@Z 00000001400200d4 f i libucrt:exit.obj
 0001:0001f238       ?get@?$__crt_unique_handle_t@U__crt_hmodule_traits@@@@QEBAPEAUHINSTANCE__@@XZ 0000000140020238 f i libucrt:exit.obj
 0001:0001f23c       ?get_address_of@?$__crt_unique_handle_t@U__crt_hmodule_traits@@@@QEAAPEAPEAUHINSTANCE__@@XZ 000000014002023c f i libucrt:exit.obj
 0001:0001f240       ?get_invalid_value@__crt_hmodule_traits@@SAPEAUHINSTANCE__@@XZ 0000000140020240 f i libucrt:exit.obj
 0001:0001f35c       _Exit                      000000014002035c f   libucrt:exit.obj
 0001:0001f36c       __acrt_initialize_thread_local_exit_callback 000000014002036c f   libucrt:exit.obj
 0001:0001f378       _c_exit                    0000000140020378 f   libucrt:exit.obj
 0001:0001f38c       _cexit                     000000014002038c f   libucrt:exit.obj
 0001:0001f39c       _exit                      000000014002039c f   libucrt:exit.obj
 0001:0001f3ac       _is_c_termination_complete 00000001400203ac f   libucrt:exit.obj
 0001:0001f3b4       _register_thread_local_exe_atexit_callback 00000001400203b4 f   libucrt:exit.obj
 0001:0001f400       exit                       0000000140020400 f   libucrt:exit.obj
 0001:0001f40c       quick_exit                 000000014002040c f   libucrt:exit.obj
 0001:0001f41c       ??$__crt_interlocked_read@H@@YAHPEDH@Z 000000014002041c f i libucrt:setmode.obj
 0001:0001f420       ?value@?$dual_state_global@H@__crt_state_management@@QEAAAEAHXZ 0000000140020420 f i libucrt:setmode.obj
 0001:0001f424       _get_fmode                 0000000140020424 f   libucrt:setmode.obj
 0001:0001f460       _set_fmode                 0000000140020460 f   libucrt:setmode.obj
 0001:0001f4ac       _setmode                   00000001400204ac f   libucrt:setmode.obj
 0001:0001f5f0       _setmode_nolock            00000001400205f0 f   libucrt:setmode.obj
 0001:0001f708       __acrt_initialize_command_line 0000000140020708 f   libucrt:argv_data.obj
 0001:0001f738       __acrt_uninitialize_command_line 0000000140020738 f   libucrt:argv_data.obj
 0001:0001f73c       __p___argc                 000000014002073c f   libucrt:argv_data.obj
 0001:0001f748       __p___argv                 0000000140020748 f   libucrt:argv_data.obj
 0001:0001f754       __p___wargv                0000000140020754 f   libucrt:argv_data.obj
 0001:0001f760       __p__acmdln                0000000140020760 f   libucrt:argv_data.obj
 0001:0001f76c       __p__pgmptr                000000014002076c f   libucrt:argv_data.obj
 0001:0001f778       __p__wcmdln                0000000140020778 f   libucrt:argv_data.obj
 0001:0001f784       __p__wpgmptr               0000000140020784 f   libucrt:argv_data.obj
 0001:0001f790       _get_pgmptr                0000000140020790 f   libucrt:argv_data.obj
 0001:0001f7d4       _get_wpgmptr               00000001400207d4 f   libucrt:argv_data.obj
 0001:0001f81c       ??$?RU__crt_locale_data@@@__crt_internal_free_policy@@QEBAXQEBU__crt_locale_data@@@Z 000000014002081c f i libucrt:wsetlocale.obj
 0001:0001f828       ??$?RU__crt_locale_pointers@@@__crt_internal_free_policy@@QEBAXQEBU__crt_locale_pointers@@@Z 0000000140020828 f i libucrt:wsetlocale.obj
 0001:0001f834       ??$?RU__crt_multibyte_data@@@__crt_internal_free_policy@@QEBAXQEBU__crt_multibyte_data@@@Z 0000000140020834 f i libucrt:wsetlocale.obj
 0001:0001fd3c       ??0?$__crt_unique_heap_ptr@U__crt_locale_data@@U__crt_internal_free_policy@@@@QEAA@QEAU__crt_locale_data@@@Z 0000000140020d3c f i libucrt:wsetlocale.obj
 0001:0001fd44       ??0?$__crt_unique_heap_ptr@U__crt_locale_pointers@@U__crt_internal_free_policy@@@@QEAA@QEAU__crt_locale_pointers@@@Z 0000000140020d44 f i libucrt:wsetlocale.obj
 0001:0001fd4c       ??0?$__crt_unique_heap_ptr@U__crt_multibyte_data@@U__crt_internal_free_policy@@@@QEAA@QEAU__crt_multibyte_data@@@Z 0000000140020d4c f i libucrt:wsetlocale.obj
 0001:0001fd54       ??0_expandlocale_locale_name_cache@@QEAA@QEA_W_KQEAU__crt_qualified_locale_data@@@Z 0000000140020d54 f i libucrt:wsetlocale.obj
 0001:0001fdc4       ??1?$__crt_unique_heap_ptr@U__crt_locale_data@@U__crt_internal_free_policy@@@@QEAA@XZ 0000000140020dc4 f i libucrt:wsetlocale.obj
 0001:0001fde8       ??1?$__crt_unique_heap_ptr@U__crt_locale_pointers@@U__crt_internal_free_policy@@@@QEAA@XZ 0000000140020de8 f i libucrt:wsetlocale.obj
 0001:0001fe0c       ??1?$__crt_unique_heap_ptr@U__crt_multibyte_data@@U__crt_internal_free_policy@@@@QEAA@XZ 0000000140020e0c f i libucrt:wsetlocale.obj
 0001:0001fe30       ??1_expandlocale_locale_name_cache@@QEAA@XZ 0000000140020e30 f i libucrt:wsetlocale.obj
 0001:0001fe8c       ??B?$__crt_unique_heap_ptr@U__crt_locale_data@@U__crt_internal_free_policy@@@@QEBA_NXZ 0000000140020e8c f i libucrt:wsetlocale.obj
 0001:0001fe98       ??B?$__crt_unique_heap_ptr@U__crt_locale_pointers@@U__crt_internal_free_policy@@@@QEBA_NXZ 0000000140020e98 f i libucrt:wsetlocale.obj
 0001:0001fea4       ??B?$__crt_unique_heap_ptr@U__crt_multibyte_data@@U__crt_internal_free_policy@@@@QEBA_NXZ 0000000140020ea4 f i libucrt:wsetlocale.obj
 0001:000201b0       ?commit_locale_name@_expandlocale_locale_name_cache@@QEAAXQEB_W_K@Z 00000001400211b0 f i libucrt:wsetlocale.obj
 0001:00020244       ?commit_locale_name_cache_already_updated@_expandlocale_locale_name_cache@@QEAAXQEB_W_K@Z 0000000140021244 f i libucrt:wsetlocale.obj
 0001:00020294       ?detach@?$__crt_unique_heap_ptr@U__crt_locale_data@@U__crt_internal_free_policy@@@@QEAAPEAU__crt_locale_data@@XZ 0000000140021294 f i libucrt:wsetlocale.obj
 0001:000202a0       ?detach@?$__crt_unique_heap_ptr@U__crt_locale_pointers@@U__crt_internal_free_policy@@@@QEAAPEAU__crt_locale_pointers@@XZ 00000001400212a0 f i libucrt:wsetlocale.obj
 0001:000202ac       ?detach@?$__crt_unique_heap_ptr@U__crt_multibyte_data@@U__crt_internal_free_policy@@@@QEAAPEAU__crt_multibyte_data@@XZ 00000001400212ac f i libucrt:wsetlocale.obj
 0001:000202b8       ?get@?$__crt_unique_heap_ptr@U__crt_locale_data@@U__crt_internal_free_policy@@@@QEBAPEAU__crt_locale_data@@XZ 00000001400212b8 f i libucrt:wsetlocale.obj
 0001:000202bc       ?get@?$__crt_unique_heap_ptr@U__crt_locale_pointers@@U__crt_internal_free_policy@@@@QEBAPEAU__crt_locale_pointers@@XZ 00000001400212bc f i libucrt:wsetlocale.obj
 0001:000202c0       ?get@?$__crt_unique_heap_ptr@U__crt_multibyte_data@@U__crt_internal_free_policy@@@@QEBAPEAU__crt_multibyte_data@@XZ 00000001400212c0 f i libucrt:wsetlocale.obj
 0001:000202c4       ?is_valid@?$__crt_unique_heap_ptr@U__crt_locale_data@@U__crt_internal_free_policy@@@@QEBA_NXZ 00000001400212c4 f i libucrt:wsetlocale.obj
 0001:000202d0       ?is_valid@?$__crt_unique_heap_ptr@U__crt_locale_pointers@@U__crt_internal_free_policy@@@@QEBA_NXZ 00000001400212d0 f i libucrt:wsetlocale.obj
 0001:000202dc       ?is_valid@?$__crt_unique_heap_ptr@U__crt_multibyte_data@@U__crt_internal_free_policy@@@@QEBA_NXZ 00000001400212dc f i libucrt:wsetlocale.obj
 0001:000202e8       ?release@?$__crt_unique_heap_ptr@U__crt_locale_data@@U__crt_internal_free_policy@@@@QEAAXXZ 00000001400212e8 f i libucrt:wsetlocale.obj
 0001:0002030c       ?release@?$__crt_unique_heap_ptr@U__crt_locale_pointers@@U__crt_internal_free_policy@@@@QEAAXXZ 000000014002130c f i libucrt:wsetlocale.obj
 0001:00020330       ?release@?$__crt_unique_heap_ptr@U__crt_multibyte_data@@U__crt_internal_free_policy@@@@QEAAXXZ 0000000140021330 f i libucrt:wsetlocale.obj
 0001:00020354       ?value@?$dual_state_global@PEAU__crt_locale_data@@@__crt_state_management@@QEAAAEAPEAU__crt_locale_data@@XZ 0000000140021354 f i libucrt:wsetlocale.obj
 0001:00020358       __acrt_copy_locale_name    0000000140021358 f   libucrt:wsetlocale.obj
 0001:000203fc       __acrt_disable_global_locale_sync 00000001400213fc f i libucrt:wsetlocale.obj
 0001:00020404       __acrt_enable_global_locale_sync 0000000140021404 f i libucrt:wsetlocale.obj
 0001:00020410       __acrt_locale_get_ctype_array_value 0000000140021410 f i libucrt:wsetlocale.obj
 0001:00020430       __acrt_set_locale_changed  0000000140021430 f   libucrt:wsetlocale.obj
 0001:00020440       __acrt_uninitialize_locale 0000000140021440 f   libucrt:wsetlocale.obj
 0001:0002047c       __ascii_tolower            000000014002147c f i libucrt:wsetlocale.obj
 0001:00020490       __ascii_towlower           0000000140021490 f i libucrt:wsetlocale.obj
 0001:000204a0       __lc_lctowcs               00000001400214a0 f   libucrt:wsetlocale.obj
 0001:0002056c       __lc_wcstolc               000000014002156c f   libucrt:wsetlocale.obj
 0001:0002072c       _configthreadlocale        000000014002172c f   libucrt:wsetlocale.obj
 0001:000208a0       _create_locale             00000001400218a0 f   libucrt:wsetlocale.obj
 0001:00020ed0       _free_locale               0000000140021ed0 f   libucrt:wsetlocale.obj
 0001:00020f9c       _get_current_locale        0000000140021f9c f   libucrt:wsetlocale.obj
 0001:00021088       _wcreate_locale            0000000140022088 f   libucrt:wsetlocale.obj
 0001:00021224       _wcscats                   0000000140022224 f   libucrt:wsetlocale.obj
 0001:000212a4       _wsetlocale                00000001400222a4 f   libucrt:wsetlocale.obj
 0001:00022468       ?value@?$dual_state_global@J@__crt_state_management@@QEAAAEAJXZ 0000000140023468 f i libucrt:new_mode.obj
 0001:0002246c       _query_new_mode            000000014002346c f   libucrt:new_mode.obj
 0001:00022474       _set_new_mode              0000000140023474 f   libucrt:new_mode.obj
 0001:000224ac       __p__commode               00000001400234ac f   libucrt:ncommode.obj
 0001:000224b8       ??$?B$$A6AXXZ@__crt_fast_encoded_nullptr_t@@QEBAP6AXXZXZ 00000001400234b8 f i libucrt:onexit.obj
 0001:000224c4       ??$?BP6AXXZ@__crt_fast_encoded_nullptr_t@@QEBAPEAP6AXXZXZ 00000001400234c4 f i libucrt:onexit.obj
 0001:000224d0       ??$?RP6AXXZ@__crt_internal_free_policy@@QEBAXQEBQ6AXXZ@Z 00000001400234d0 f i libucrt:onexit.obj
 0001:000225d4       ??$__crt_fast_decode_pointer@P6AXXZ@@YAP6AXXZQ6AXXZ@Z 00000001400235d4 f i libucrt:onexit.obj
 0001:000225f0       ??$__crt_fast_decode_pointer@PEAP6AXXZ@@YAPEAP6AXXZQEAP6AXXZ@Z 00000001400235f0 f i libucrt:onexit.obj
 0001:0002260c       ??$__crt_fast_encode_pointer@P6AHXZ@@YAP6AHXZQ6AHXZ@Z 000000014002360c f i libucrt:onexit.obj
 0001:00022634       ??$__crt_fast_encode_pointer@P6AXXZ@@YAP6AXXZQ6AXXZ@Z 0000000140023634 f i libucrt:onexit.obj
 0001:0002265c       ??$__crt_fast_encode_pointer@PEAP6AXXZ@@YAPEAP6AXXZQEAP6AXXZ@Z 000000014002365c f i libucrt:onexit.obj
 0001:000226cc       ??0?$__crt_unique_heap_ptr@P6AXXZU__crt_internal_free_policy@@@@QEAA@QEAP6AXXZ@Z 00000001400236cc f i libucrt:onexit.obj
 0001:000226d4       ??1?$__crt_unique_heap_ptr@P6AXXZU__crt_internal_free_policy@@@@QEAA@XZ 00000001400236d4 f i libucrt:onexit.obj
 0001:000226f8       ??1scoped_global_state_reset@__crt_state_management@@QEAA@XZ 00000001400236f8 f i libucrt:onexit.obj
 0001:00022a94       ?detach@?$__crt_unique_heap_ptr@P6AXXZU__crt_internal_free_policy@@@@QEAAPEAP6AXXZXZ 0000000140023a94 f i libucrt:onexit.obj
 0001:00022aa0       ?release@?$__crt_unique_heap_ptr@P6AXXZU__crt_internal_free_policy@@@@QEAAXXZ 0000000140023aa0 f i libucrt:onexit.obj
 0001:00022ac4       _crt_at_quick_exit         0000000140023ac4 f   libucrt:onexit.obj
 0001:00022ad8       _crt_atexit                0000000140023ad8 f   libucrt:onexit.obj
 0001:00022aec       _execute_onexit_table      0000000140023aec f   libucrt:onexit.obj
 0001:00022b34       _initialize_onexit_table   0000000140023b34 f   libucrt:onexit.obj
 0001:00022b64       _register_onexit_function  0000000140023b64 f   libucrt:onexit.obj
 0001:00022d44       ??$?BX@__crt_fast_encoded_nullptr_t@@QEBAPEAXXZ 0000000140023d44 f i libucrt:initialization.obj
 0001:00022d50       ??$__crt_fast_encode_pointer@PEAX@@YAPEAXQEAX@Z 0000000140023d50 f i libucrt:initialization.obj
 0001:00022e54       ?__acrt_stdio_is_initialized@@YA_NXZ 0000000140023e54 f i libucrt:initialization.obj
 0001:00022e64       ?initialize@?$dual_state_global@PEAU__crt_locale_data@@@__crt_state_management@@QEAAXQEAU__crt_locale_data@@@Z 0000000140023e64 f i libucrt:initialization.obj
 0001:00022e94       __acrt_initialize          0000000140023e94 f   libucrt:initialization.obj
 0001:00022eac       __acrt_thread_attach       0000000140023eac f   libucrt:initialization.obj
 0001:00022ec8       __acrt_thread_detach       0000000140023ec8 f   libucrt:initialization.obj
 0001:00022edc       __acrt_uninitialize        0000000140023edc f   libucrt:initialization.obj
 0001:00022f20       __acrt_uninitialize_critical 0000000140023f20 f   libucrt:initialization.obj
 0001:00022f4c       _get_terminate             0000000140023f4c f   libucrt:terminate.obj
 0001:00022f78       set_terminate              0000000140023f78 f   libucrt:terminate.obj
 0001:00022fb0       terminate                  0000000140023fb0 f   libucrt:terminate.obj
 0001:00022fd8       free                       0000000140023fd8 f   libucrt:free.obj
 0001:00022ff0       malloc                     0000000140023ff0 f   libucrt:malloc.obj
 0001:00023074       strcpy_s                   0000000140024074 f   libucrt:strcpy_s.obj
 0001:000230ec       _set_abort_behavior        00000001400240ec f   libucrt:abort.obj
 0001:00023110       abort                      0000000140024110 f   libucrt:abort.obj
 0001:0002317c       calloc                     000000014002417c f   libucrt:calloc.obj
 0001:00023184       ??$?0AEBV?$stream_output_adapter@D@__crt_stdio_output@@AEB_KAEBQEBDAEBQEAU__crt_locale_pointers@@AEBQEAD@?$format_validation_base@DV?$stream_output_adapter@D@__crt_stdio_output@@@__crt_stdio_output@@IEAA@AEBV?$stream_output_adapter@D@1@AEB_KAEBQEBDAEBQEAU__crt_locale_pointers@@AEBQEAD@Z 0000000140024184 f i libucrt:output.obj
 0001:00023228       ??$?0AEBV?$stream_output_adapter@D@__crt_stdio_output@@AEB_KAEBQEBDAEBQEAU__crt_locale_pointers@@AEBQEAD@?$positional_parameter_base@DV?$stream_output_adapter@D@__crt_stdio_output@@@__crt_stdio_output@@IEAA@AEBV?$stream_output_adapter@D@1@AEB_KAEBQEBDAEBQEAU__crt_locale_pointers@@AEBQEAD@Z 0000000140024228 f i libucrt:output.obj
 0001:000232f0       ??$?0AEBV?$stream_output_adapter@D@__crt_stdio_output@@AEB_KAEBQEBDAEBQEAU__crt_locale_pointers@@AEBQEAD@?$standard_base@DV?$stream_output_adapter@D@__crt_stdio_output@@@__crt_stdio_output@@IEAA@AEBV?$stream_output_adapter@D@1@AEB_KAEBQEBDAEBQEAU__crt_locale_pointers@@AEBQEAD@Z 00000001400242f0 f i libucrt:output.obj
 0001:00023394       ??$?0AEBV?$stream_output_adapter@_W@__crt_stdio_output@@AEB_KAEBQEB_WAEBQEAU__crt_locale_pointers@@AEBQEAD@?$format_validation_base@_WV?$stream_output_adapter@_W@__crt_stdio_output@@@__crt_stdio_output@@IEAA@AEBV?$stream_output_adapter@_W@1@AEB_KAEBQEB_WAEBQEAU__crt_locale_pointers@@AEBQEAD@Z 0000000140024394 f i libucrt:output.obj
 0001:0002343c       ??$?0AEBV?$stream_output_adapter@_W@__crt_stdio_output@@AEB_KAEBQEB_WAEBQEAU__crt_locale_pointers@@AEBQEAD@?$positional_parameter_base@_WV?$stream_output_adapter@_W@__crt_stdio_output@@@__crt_stdio_output@@IEAA@AEBV?$stream_output_adapter@_W@1@AEB_KAEBQEB_WAEBQEAU__crt_locale_pointers@@AEBQEAD@Z 000000014002443c f i libucrt:output.obj
 0001:00023508       ??$?0AEBV?$stream_output_adapter@_W@__crt_stdio_output@@AEB_KAEBQEB_WAEBQEAU__crt_locale_pointers@@AEBQEAD@?$standard_base@_WV?$stream_output_adapter@_W@__crt_stdio_output@@@__crt_stdio_output@@IEAA@AEBV?$stream_output_adapter@_W@1@AEB_KAEBQEB_WAEBQEAU__crt_locale_pointers@@AEBQEAD@Z 0000000140024508 f i libucrt:output.obj
 0001:000235b0       ??$?0AEBV?$string_output_adapter@D@__crt_stdio_output@@AEB_KAEBQEBDAEBQEAU__crt_locale_pointers@@AEBQEAD@?$format_validation_base@DV?$string_output_adapter@D@__crt_stdio_output@@@__crt_stdio_output@@IEAA@AEBV?$string_output_adapter@D@1@AEB_KAEBQEBDAEBQEAU__crt_locale_pointers@@AEBQEAD@Z 00000001400245b0 f i libucrt:output.obj
 0001:00023654       ??$?0AEBV?$string_output_adapter@D@__crt_stdio_output@@AEB_KAEBQEBDAEBQEAU__crt_locale_pointers@@AEBQEAD@?$positional_parameter_base@DV?$string_output_adapter@D@__crt_stdio_output@@@__crt_stdio_output@@IEAA@AEBV?$string_output_adapter@D@1@AEB_KAEBQEBDAEBQEAU__crt_locale_pointers@@AEBQEAD@Z 0000000140024654 f i libucrt:output.obj
 0001:0002371c       ??$?0AEBV?$string_output_adapter@D@__crt_stdio_output@@AEB_KAEBQEBDAEBQEAU__crt_locale_pointers@@AEBQEAD@?$standard_base@DV?$string_output_adapter@D@__crt_stdio_output@@@__crt_stdio_output@@IEAA@AEBV?$string_output_adapter@D@1@AEB_KAEBQEBDAEBQEAU__crt_locale_pointers@@AEBQEAD@Z 000000014002471c f i libucrt:output.obj
 0001:000237c0       ??$?0AEBV?$string_output_adapter@_W@__crt_stdio_output@@AEB_KAEBQEB_WAEBQEAU__crt_locale_pointers@@AEBQEAD@?$format_validation_base@_WV?$string_output_adapter@_W@__crt_stdio_output@@@__crt_stdio_output@@IEAA@AEBV?$string_output_adapter@_W@1@AEB_KAEBQEB_WAEBQEAU__crt_locale_pointers@@AEBQEAD@Z 00000001400247c0 f i libucrt:output.obj
 0001:00023868       ??$?0AEBV?$string_output_adapter@_W@__crt_stdio_output@@AEB_KAEBQEB_WAEBQEAU__crt_locale_pointers@@AEBQEAD@?$positional_parameter_base@_WV?$string_output_adapter@_W@__crt_stdio_output@@@__crt_stdio_output@@IEAA@AEBV?$string_output_adapter@_W@1@AEB_KAEBQEB_WAEBQEAU__crt_locale_pointers@@AEBQEAD@Z 0000000140024868 f i libucrt:output.obj
 0001:00023934       ??$?0AEBV?$string_output_adapter@_W@__crt_stdio_output@@AEB_KAEBQEB_WAEBQEAU__crt_locale_pointers@@AEBQEAD@?$standard_base@_WV?$string_output_adapter@_W@__crt_stdio_output@@@__crt_stdio_output@@IEAA@AEBV?$string_output_adapter@_W@1@AEB_KAEBQEB_WAEBQEAU__crt_locale_pointers@@AEBQEAD@Z 0000000140024934 f i libucrt:output.obj
 0001:000252bc       ??$count@D@formatting_buffer@__crt_stdio_output@@QEBA_KXZ 00000001400262bc f i libucrt:output.obj
 0001:000252e0       ??$count@_W@formatting_buffer@__crt_stdio_output@@QEBA_KXZ 00000001400262e0 f i libucrt:output.obj
 0001:00025304       ??$data@D@formatting_buffer@__crt_stdio_output@@QEAAPEADXZ 0000000140026304 f i libucrt:output.obj
 0001:00025318       ??$data@_W@formatting_buffer@__crt_stdio_output@@QEAAPEA_WXZ 0000000140026318 f i libucrt:output.obj
 0001:0002532c       ??$ensure_buffer_is_big_enough@D@formatting_buffer@__crt_stdio_output@@QEAA_N_K@Z 000000014002632c f i libucrt:output.obj
 0001:000253fc       ??$ensure_buffer_is_big_enough@_W@formatting_buffer@__crt_stdio_output@@QEAA_N_K@Z 00000001400263fc f i libucrt:output.obj
 0001:000254d0       ??$extract_argument_from_va_list@C_J@?$positional_parameter_base@DV?$stream_output_adapter@D@__crt_stdio_output@@@__crt_stdio_output@@IEAA_NAEA_J@Z 00000001400264d0 f i libucrt:output.obj
 0001:000255bc       ??$extract_argument_from_va_list@C_J@?$positional_parameter_base@DV?$string_output_adapter@D@__crt_stdio_output@@@__crt_stdio_output@@IEAA_NAEA_J@Z 00000001400265bc f i libucrt:output.obj
 0001:000256a8       ??$extract_argument_from_va_list@C_J@?$positional_parameter_base@_WV?$stream_output_adapter@_W@__crt_stdio_output@@@__crt_stdio_output@@IEAA_NAEA_J@Z 00000001400266a8 f i libucrt:output.obj
 0001:00025798       ??$extract_argument_from_va_list@C_J@?$positional_parameter_base@_WV?$string_output_adapter@_W@__crt_stdio_output@@@__crt_stdio_output@@IEAA_NAEA_J@Z 0000000140026798 f i libucrt:output.obj
 0001:00025888       ??$extract_argument_from_va_list@C_J@?$standard_base@DV?$stream_output_adapter@D@__crt_stdio_output@@@__crt_stdio_output@@IEAA_NAEA_J@Z 0000000140026888 f i libucrt:output.obj
 0001:000258a4       ??$extract_argument_from_va_list@C_J@?$standard_base@DV?$string_output_adapter@D@__crt_stdio_output@@@__crt_stdio_output@@IEAA_NAEA_J@Z 00000001400268a4 f i libucrt:output.obj
 0001:000258c0       ??$extract_argument_from_va_list@C_J@?$standard_base@_WV?$stream_output_adapter@_W@__crt_stdio_output@@@__crt_stdio_output@@IEAA_NAEA_J@Z 00000001400268c0 f i libucrt:output.obj
 0001:000258dc       ??$extract_argument_from_va_list@C_J@?$standard_base@_WV?$string_output_adapter@_W@__crt_stdio_output@@@__crt_stdio_output@@IEAA_NAEA_J@Z 00000001400268dc f i libucrt:output.obj
 0001:000258f8       ??$extract_argument_from_va_list@E_J@?$positional_parameter_base@DV?$stream_output_adapter@D@__crt_stdio_output@@@__crt_stdio_output@@IEAA_NAEA_J@Z 00000001400268f8 f i libucrt:output.obj
 0001:000259e4       ??$extract_argument_from_va_list@E_J@?$positional_parameter_base@DV?$string_output_adapter@D@__crt_stdio_output@@@__crt_stdio_output@@IEAA_NAEA_J@Z 00000001400269e4 f i libucrt:output.obj
 0001:00025ad0       ??$extract_argument_from_va_list@E_J@?$positional_parameter_base@_WV?$stream_output_adapter@_W@__crt_stdio_output@@@__crt_stdio_output@@IEAA_NAEA_J@Z 0000000140026ad0 f i libucrt:output.obj
 0001:00025bbc       ??$extract_argument_from_va_list@E_J@?$positional_parameter_base@_WV?$string_output_adapter@_W@__crt_stdio_output@@@__crt_stdio_output@@IEAA_NAEA_J@Z 0000000140026bbc f i libucrt:output.obj
 0001:00025ca8       ??$extract_argument_from_va_list@E_J@?$standard_base@DV?$stream_output_adapter@D@__crt_stdio_output@@@__crt_stdio_output@@IEAA_NAEA_J@Z 0000000140026ca8 f i libucrt:output.obj
 0001:00025cc0       ??$extract_argument_from_va_list@E_J@?$standard_base@DV?$string_output_adapter@D@__crt_stdio_output@@@__crt_stdio_output@@IEAA_NAEA_J@Z 0000000140026cc0 f i libucrt:output.obj
 0001:00025cd8       ??$extract_argument_from_va_list@E_J@?$standard_base@_WV?$stream_output_adapter@_W@__crt_stdio_output@@@__crt_stdio_output@@IEAA_NAEA_J@Z 0000000140026cd8 f i libucrt:output.obj
 0001:00025cf0       ??$extract_argument_from_va_list@E_J@?$standard_base@_WV?$string_output_adapter@_W@__crt_stdio_output@@@__crt_stdio_output@@IEAA_NAEA_J@Z 0000000140026cf0 f i libucrt:output.obj
 0001:00025d08       ??$extract_argument_from_va_list@F_J@?$positional_parameter_base@DV?$stream_output_adapter@D@__crt_stdio_output@@@__crt_stdio_output@@IEAA_NAEA_J@Z 0000000140026d08 f i libucrt:output.obj
 0001:00025df4       ??$extract_argument_from_va_list@F_J@?$positional_parameter_base@DV?$string_output_adapter@D@__crt_stdio_output@@@__crt_stdio_output@@IEAA_NAEA_J@Z 0000000140026df4 f i libucrt:output.obj
 0001:00025ee0       ??$extract_argument_from_va_list@F_J@?$positional_parameter_base@_WV?$stream_output_adapter@_W@__crt_stdio_output@@@__crt_stdio_output@@IEAA_NAEA_J@Z 0000000140026ee0 f i libucrt:output.obj
 0001:00025fd0       ??$extract_argument_from_va_list@F_J@?$positional_parameter_base@_WV?$string_output_adapter@_W@__crt_stdio_output@@@__crt_stdio_output@@IEAA_NAEA_J@Z 0000000140026fd0 f i libucrt:output.obj
 0001:000260c0       ??$extract_argument_from_va_list@F_J@?$standard_base@DV?$stream_output_adapter@D@__crt_stdio_output@@@__crt_stdio_output@@IEAA_NAEA_J@Z 00000001400270c0 f i libucrt:output.obj
 0001:000260dc       ??$extract_argument_from_va_list@F_J@?$standard_base@DV?$string_output_adapter@D@__crt_stdio_output@@@__crt_stdio_output@@IEAA_NAEA_J@Z 00000001400270dc f i libucrt:output.obj
 0001:000260f8       ??$extract_argument_from_va_list@F_J@?$standard_base@_WV?$stream_output_adapter@_W@__crt_stdio_output@@@__crt_stdio_output@@IEAA_NAEA_J@Z 00000001400270f8 f i libucrt:output.obj
 0001:00026114       ??$extract_argument_from_va_list@F_J@?$standard_base@_WV?$string_output_adapter@_W@__crt_stdio_output@@@__crt_stdio_output@@IEAA_NAEA_J@Z 0000000140027114 f i libucrt:output.obj
 0001:00026130       ??$extract_argument_from_va_list@GD@?$positional_parameter_base@DV?$stream_output_adapter@D@__crt_stdio_output@@@__crt_stdio_output@@IEAA_NAEAD@Z 0000000140027130 f i libucrt:output.obj
 0001:00026218       ??$extract_argument_from_va_list@GD@?$positional_parameter_base@DV?$string_output_adapter@D@__crt_stdio_output@@@__crt_stdio_output@@IEAA_NAEAD@Z 0000000140027218 f i libucrt:output.obj
 0001:00026300       ??$extract_argument_from_va_list@GD@?$standard_base@DV?$stream_output_adapter@D@__crt_stdio_output@@@__crt_stdio_output@@IEAA_NAEAD@Z 0000000140027300 f i libucrt:output.obj
 0001:00026318       ??$extract_argument_from_va_list@GD@?$standard_base@DV?$string_output_adapter@D@__crt_stdio_output@@@__crt_stdio_output@@IEAA_NAEAD@Z 0000000140027318 f i libucrt:output.obj
 0001:00026330       ??$extract_argument_from_va_list@G_J@?$positional_parameter_base@DV?$stream_output_adapter@D@__crt_stdio_output@@@__crt_stdio_output@@IEAA_NAEA_J@Z 0000000140027330 f i libucrt:output.obj
 0001:0002641c       ??$extract_argument_from_va_list@G_J@?$positional_parameter_base@DV?$string_output_adapter@D@__crt_stdio_output@@@__crt_stdio_output@@IEAA_NAEA_J@Z 000000014002741c f i libucrt:output.obj
 0001:00026508       ??$extract_argument_from_va_list@G_J@?$positional_parameter_base@_WV?$stream_output_adapter@_W@__crt_stdio_output@@@__crt_stdio_output@@IEAA_NAEA_J@Z 0000000140027508 f i libucrt:output.obj
 0001:000265f4       ??$extract_argument_from_va_list@G_J@?$positional_parameter_base@_WV?$string_output_adapter@_W@__crt_stdio_output@@@__crt_stdio_output@@IEAA_NAEA_J@Z 00000001400275f4 f i libucrt:output.obj
 0001:000266e0       ??$extract_argument_from_va_list@G_J@?$standard_base@DV?$stream_output_adapter@D@__crt_stdio_output@@@__crt_stdio_output@@IEAA_NAEA_J@Z 00000001400276e0 f i libucrt:output.obj
 0001:000266f8       ??$extract_argument_from_va_list@G_J@?$standard_base@DV?$string_output_adapter@D@__crt_stdio_output@@@__crt_stdio_output@@IEAA_NAEA_J@Z 00000001400276f8 f i libucrt:output.obj
 0001:00026710       ??$extract_argument_from_va_list@G_J@?$standard_base@_WV?$stream_output_adapter@_W@__crt_stdio_output@@@__crt_stdio_output@@IEAA_NAEA_J@Z 0000000140027710 f i libucrt:output.obj
 0001:00026728       ??$extract_argument_from_va_list@G_J@?$standard_base@_WV?$string_output_adapter@_W@__crt_stdio_output@@@__crt_stdio_output@@IEAA_NAEA_J@Z 0000000140027728 f i libucrt:output.obj
 0001:00026740       ??$extract_argument_from_va_list@H_J@?$positional_parameter_base@DV?$stream_output_adapter@D@__crt_stdio_output@@@__crt_stdio_output@@IEAA_NAEA_J@Z 0000000140027740 f i libucrt:output.obj
 0001:00026828       ??$extract_argument_from_va_list@H_J@?$positional_parameter_base@DV?$string_output_adapter@D@__crt_stdio_output@@@__crt_stdio_output@@IEAA_NAEA_J@Z 0000000140027828 f i libucrt:output.obj
 0001:00026910       ??$extract_argument_from_va_list@H_J@?$positional_parameter_base@_WV?$stream_output_adapter@_W@__crt_stdio_output@@@__crt_stdio_output@@IEAA_NAEA_J@Z 0000000140027910 f i libucrt:output.obj
 0001:000269fc       ??$extract_argument_from_va_list@H_J@?$positional_parameter_base@_WV?$string_output_adapter@_W@__crt_stdio_output@@@__crt_stdio_output@@IEAA_NAEA_J@Z 00000001400279fc f i libucrt:output.obj
 0001:00026ae8       ??$extract_argument_from_va_list@H_J@?$standard_base@DV?$stream_output_adapter@D@__crt_stdio_output@@@__crt_stdio_output@@IEAA_NAEA_J@Z 0000000140027ae8 f i libucrt:output.obj
 0001:00026b00       ??$extract_argument_from_va_list@H_J@?$standard_base@DV?$string_output_adapter@D@__crt_stdio_output@@@__crt_stdio_output@@IEAA_NAEA_J@Z 0000000140027b00 f i libucrt:output.obj
 0001:00026b18       ??$extract_argument_from_va_list@H_J@?$standard_base@_WV?$stream_output_adapter@_W@__crt_stdio_output@@@__crt_stdio_output@@IEAA_NAEA_J@Z 0000000140027b18 f i libucrt:output.obj
 0001:00026b30       ??$extract_argument_from_va_list@H_J@?$standard_base@_WV?$string_output_adapter@_W@__crt_stdio_output@@@__crt_stdio_output@@IEAA_NAEA_J@Z 0000000140027b30 f i libucrt:output.obj
 0001:00026b48       ??$extract_argument_from_va_list@I_J@?$positional_parameter_base@DV?$stream_output_adapter@D@__crt_stdio_output@@@__crt_stdio_output@@IEAA_NAEA_J@Z 0000000140027b48 f i libucrt:output.obj
 0001:00026c30       ??$extract_argument_from_va_list@I_J@?$positional_parameter_base@DV?$string_output_adapter@D@__crt_stdio_output@@@__crt_stdio_output@@IEAA_NAEA_J@Z 0000000140027c30 f i libucrt:output.obj
 0001:00026d18       ??$extract_argument_from_va_list@I_J@?$positional_parameter_base@_WV?$stream_output_adapter@_W@__crt_stdio_output@@@__crt_stdio_output@@IEAA_NAEA_J@Z 0000000140027d18 f i libucrt:output.obj
 0001:00026e04       ??$extract_argument_from_va_list@I_J@?$positional_parameter_base@_WV?$string_output_adapter@_W@__crt_stdio_output@@@__crt_stdio_output@@IEAA_NAEA_J@Z 0000000140027e04 f i libucrt:output.obj
 0001:00026ef0       ??$extract_argument_from_va_list@I_J@?$standard_base@DV?$stream_output_adapter@D@__crt_stdio_output@@@__crt_stdio_output@@IEAA_NAEA_J@Z 0000000140027ef0 f i libucrt:output.obj
 0001:00026f08       ??$extract_argument_from_va_list@I_J@?$standard_base@DV?$string_output_adapter@D@__crt_stdio_output@@@__crt_stdio_output@@IEAA_NAEA_J@Z 0000000140027f08 f i libucrt:output.obj
 0001:00026f20       ??$extract_argument_from_va_list@I_J@?$standard_base@_WV?$stream_output_adapter@_W@__crt_stdio_output@@@__crt_stdio_output@@IEAA_NAEA_J@Z 0000000140027f20 f i libucrt:output.obj
 0001:00026f38       ??$extract_argument_from_va_list@I_J@?$standard_base@_WV?$string_output_adapter@_W@__crt_stdio_output@@@__crt_stdio_output@@IEAA_NAEA_J@Z 0000000140027f38 f i libucrt:output.obj
 0001:00026f50       ??$extract_argument_from_va_list@PEADPEAD@?$positional_parameter_base@DV?$stream_output_adapter@D@__crt_stdio_output@@@__crt_stdio_output@@IEAA_NAEAPEAD@Z 0000000140027f50 f i libucrt:output.obj
 0001:00027038       ??$extract_argument_from_va_list@PEADPEAD@?$positional_parameter_base@DV?$string_output_adapter@D@__crt_stdio_output@@@__crt_stdio_output@@IEAA_NAEAPEAD@Z 0000000140028038 f i libucrt:output.obj
 0001:00027120       ??$extract_argument_from_va_list@PEADPEAD@?$positional_parameter_base@_WV?$stream_output_adapter@_W@__crt_stdio_output@@@__crt_stdio_output@@IEAA_NAEAPEAD@Z 0000000140028120 f i libucrt:output.obj
 0001:0002720c       ??$extract_argument_from_va_list@PEADPEAD@?$positional_parameter_base@_WV?$string_output_adapter@_W@__crt_stdio_output@@@__crt_stdio_output@@IEAA_NAEAPEAD@Z 000000014002820c f i libucrt:output.obj
 0001:000272f8       ??$extract_argument_from_va_list@PEADPEAD@?$standard_base@DV?$stream_output_adapter@D@__crt_stdio_output@@@__crt_stdio_output@@IEAA_NAEAPEAD@Z 00000001400282f8 f i libucrt:output.obj
 0001:00027310       ??$extract_argument_from_va_list@PEADPEAD@?$standard_base@DV?$string_output_adapter@D@__crt_stdio_output@@@__crt_stdio_output@@IEAA_NAEAPEAD@Z 0000000140028310 f i libucrt:output.obj
 0001:00027328       ??$extract_argument_from_va_list@PEADPEAD@?$standard_base@_WV?$stream_output_adapter@_W@__crt_stdio_output@@@__crt_stdio_output@@IEAA_NAEAPEAD@Z 0000000140028328 f i libucrt:output.obj
 0001:00027340       ??$extract_argument_from_va_list@PEADPEAD@?$standard_base@_WV?$string_output_adapter@_W@__crt_stdio_output@@@__crt_stdio_output@@IEAA_NAEAPEAD@Z 0000000140028340 f i libucrt:output.obj
 0001:00027358       ??$extract_argument_from_va_list@PEAUansi_string@?1??type_case_Z@?$output_processor@DV?$stream_output_adapter@D@__crt_stdio_output@@V?$format_validation_base@DV?$stream_output_adapter@D@__crt_stdio_output@@@2@@__crt_stdio_output@@AEAA_NXZ@PEAU1?1??234@AEAA_NXZ@@?$standard_base@DV?$stream_output_adapter@D@__crt_stdio_output@@@__crt_stdio_output@@IEAA_NAEAPEAUansi_string@?1??type_case_Z@?$output_processor@DV?$stream_output_adapter@D@__crt_stdio_output@@V?$format_validation_base@DV?$stream_output_adapter@D@__crt_stdio_output@@@2@@1@AEAA_NXZ@@Z 0000000140028358 f i libucrt:output.obj
 0001:00027370       ??$extract_argument_from_va_list@PEAUansi_string@?1??type_case_Z@?$output_processor@DV?$stream_output_adapter@D@__crt_stdio_output@@V?$positional_parameter_base@DV?$stream_output_adapter@D@__crt_stdio_output@@@2@@__crt_stdio_output@@AEAA_NXZ@PEAU1?1??234@AEAA_NXZ@@?$positional_parameter_base@DV?$stream_output_adapter@D@__crt_stdio_output@@@__crt_stdio_output@@IEAA_NAEAPEAUansi_string@?1??type_case_Z@?$output_processor@DV?$stream_output_adapter@D@__crt_stdio_output@@V?$positional_parameter_base@DV?$stream_output_adapter@D@__crt_stdio_output@@@2@@1@AEAA_NXZ@@Z 0000000140028370 f i libucrt:output.obj
 0001:00027458       ??$extract_argument_from_va_list@PEAUansi_string@?1??type_case_Z@?$output_processor@DV?$stream_output_adapter@D@__crt_stdio_output@@V?$positional_parameter_base@DV?$stream_output_adapter@D@__crt_stdio_output@@@2@@__crt_stdio_output@@AEAA_NXZ@PEAU1?1??234@AEAA_NXZ@@?$standard_base@DV?$stream_output_adapter@D@__crt_stdio_output@@@__crt_stdio_output@@IEAA_NAEAPEAUansi_string@?1??type_case_Z@?$output_processor@DV?$stream_output_adapter@D@__crt_stdio_output@@V?$positional_parameter_base@DV?$stream_output_adapter@D@__crt_stdio_output@@@2@@1@AEAA_NXZ@@Z 0000000140028458 f i libucrt:output.obj
 0001:00027470       ??$extract_argument_from_va_list@PEAUansi_string@?1??type_case_Z@?$output_processor@DV?$stream_output_adapter@D@__crt_stdio_output@@V?$standard_base@DV?$stream_output_adapter@D@__crt_stdio_output@@@2@@__crt_stdio_output@@AEAA_NXZ@PEAU1?1??234@AEAA_NXZ@@?$standard_base@DV?$stream_output_adapter@D@__crt_stdio_output@@@__crt_stdio_output@@IEAA_NAEAPEAUansi_string@?1??type_case_Z@?$output_processor@DV?$stream_output_adapter@D@__crt_stdio_output@@V?$standard_base@DV?$stream_output_adapter@D@__crt_stdio_output@@@2@@1@AEAA_NXZ@@Z 0000000140028470 f i libucrt:output.obj
 0001:00027488       ??$extract_argument_from_va_list@PEAUansi_string@?1??type_case_Z@?$output_processor@DV?$string_output_adapter@D@__crt_stdio_output@@V?$format_validation_base@DV?$string_output_adapter@D@__crt_stdio_output@@@2@@__crt_stdio_output@@AEAA_NXZ@PEAU1?1??234@AEAA_NXZ@@?$standard_base@DV?$string_output_adapter@D@__crt_stdio_output@@@__crt_stdio_output@@IEAA_NAEAPEAUansi_string@?1??type_case_Z@?$output_processor@DV?$string_output_adapter@D@__crt_stdio_output@@V?$format_validation_base@DV?$string_output_adapter@D@__crt_stdio_output@@@2@@1@AEAA_NXZ@@Z 0000000140028488 f i libucrt:output.obj
 0001:000274a0       ??$extract_argument_from_va_list@PEAUansi_string@?1??type_case_Z@?$output_processor@DV?$string_output_adapter@D@__crt_stdio_output@@V?$positional_parameter_base@DV?$string_output_adapter@D@__crt_stdio_output@@@2@@__crt_stdio_output@@AEAA_NXZ@PEAU1?1??234@AEAA_NXZ@@?$positional_parameter_base@DV?$string_output_adapter@D@__crt_stdio_output@@@__crt_stdio_output@@IEAA_NAEAPEAUansi_string@?1??type_case_Z@?$output_processor@DV?$string_output_adapter@D@__crt_stdio_output@@V?$positional_parameter_base@DV?$string_output_adapter@D@__crt_stdio_output@@@2@@1@AEAA_NXZ@@Z 00000001400284a0 f i libucrt:output.obj
 0001:00027588       ??$extract_argument_from_va_list@PEAUansi_string@?1??type_case_Z@?$output_processor@DV?$string_output_adapter@D@__crt_stdio_output@@V?$positional_parameter_base@DV?$string_output_adapter@D@__crt_stdio_output@@@2@@__crt_stdio_output@@AEAA_NXZ@PEAU1?1??234@AEAA_NXZ@@?$standard_base@DV?$string_output_adapter@D@__crt_stdio_output@@@__crt_stdio_output@@IEAA_NAEAPEAUansi_string@?1??type_case_Z@?$output_processor@DV?$string_output_adapter@D@__crt_stdio_output@@V?$positional_parameter_base@DV?$string_output_adapter@D@__crt_stdio_output@@@2@@1@AEAA_NXZ@@Z 0000000140028588 f i libucrt:output.obj
 0001:000275a0       ??$extract_argument_from_va_list@PEAUansi_string@?1??type_case_Z@?$output_processor@DV?$string_output_adapter@D@__crt_stdio_output@@V?$standard_base@DV?$string_output_adapter@D@__crt_stdio_output@@@2@@__crt_stdio_output@@AEAA_NXZ@PEAU1?1??234@AEAA_NXZ@@?$standard_base@DV?$string_output_adapter@D@__crt_stdio_output@@@__crt_stdio_output@@IEAA_NAEAPEAUansi_string@?1??type_case_Z@?$output_processor@DV?$string_output_adapter@D@__crt_stdio_output@@V?$standard_base@DV?$string_output_adapter@D@__crt_stdio_output@@@2@@1@AEAA_NXZ@@Z 00000001400285a0 f i libucrt:output.obj
 0001:000275b8       ??$extract_argument_from_va_list@PEAUansi_string@?1??type_case_Z@?$output_processor@_WV?$stream_output_adapter@_W@__crt_stdio_output@@V?$format_validation_base@_WV?$stream_output_adapter@_W@__crt_stdio_output@@@2@@__crt_stdio_output@@AEAA_NXZ@PEAU1?1??234@AEAA_NXZ@@?$standard_base@_WV?$stream_output_adapter@_W@__crt_stdio_output@@@__crt_stdio_output@@IEAA_NAEAPEAUansi_string@?1??type_case_Z@?$output_processor@_WV?$stream_output_adapter@_W@__crt_stdio_output@@V?$format_validation_base@_WV?$stream_output_adapter@_W@__crt_stdio_output@@@2@@1@AEAA_NXZ@@Z 00000001400285b8 f i libucrt:output.obj
 0001:000275d0       ??$extract_argument_from_va_list@PEAUansi_string@?1??type_case_Z@?$output_processor@_WV?$stream_output_adapter@_W@__crt_stdio_output@@V?$positional_parameter_base@_WV?$stream_output_adapter@_W@__crt_stdio_output@@@2@@__crt_stdio_output@@AEAA_NXZ@PEAU1?1??234@AEAA_NXZ@@?$positional_parameter_base@_WV?$stream_output_adapter@_W@__crt_stdio_output@@@__crt_stdio_output@@IEAA_NAEAPEAUansi_string@?1??type_case_Z@?$output_processor@_WV?$stream_output_adapter@_W@__crt_stdio_output@@V?$positional_parameter_base@_WV?$stream_output_adapter@_W@__crt_stdio_output@@@2@@1@AEAA_NXZ@@Z 00000001400285d0 f i libucrt:output.obj
 0001:000276bc       ??$extract_argument_from_va_list@PEAUansi_string@?1??type_case_Z@?$output_processor@_WV?$stream_output_adapter@_W@__crt_stdio_output@@V?$positional_parameter_base@_WV?$stream_output_adapter@_W@__crt_stdio_output@@@2@@__crt_stdio_output@@AEAA_NXZ@PEAU1?1??234@AEAA_NXZ@@?$standard_base@_WV?$stream_output_adapter@_W@__crt_stdio_output@@@__crt_stdio_output@@IEAA_NAEAPEAUansi_string@?1??type_case_Z@?$output_processor@_WV?$stream_output_adapter@_W@__crt_stdio_output@@V?$positional_parameter_base@_WV?$stream_output_adapter@_W@__crt_stdio_output@@@2@@1@AEAA_NXZ@@Z 00000001400286bc f i libucrt:output.obj
 0001:000276d4       ??$extract_argument_from_va_list@PEAUansi_string@?1??type_case_Z@?$output_processor@_WV?$stream_output_adapter@_W@__crt_stdio_output@@V?$standard_base@_WV?$stream_output_adapter@_W@__crt_stdio_output@@@2@@__crt_stdio_output@@AEAA_NXZ@PEAU1?1??234@AEAA_NXZ@@?$standard_base@_WV?$stream_output_adapter@_W@__crt_stdio_output@@@__crt_stdio_output@@IEAA_NAEAPEAUansi_string@?1??type_case_Z@?$output_processor@_WV?$stream_output_adapter@_W@__crt_stdio_output@@V?$standard_base@_WV?$stream_output_adapter@_W@__crt_stdio_output@@@2@@1@AEAA_NXZ@@Z 00000001400286d4 f i libucrt:output.obj
 0001:000276ec       ??$extract_argument_from_va_list@PEAUansi_string@?1??type_case_Z@?$output_processor@_WV?$string_output_adapter@_W@__crt_stdio_output@@V?$format_validation_base@_WV?$string_output_adapter@_W@__crt_stdio_output@@@2@@__crt_stdio_output@@AEAA_NXZ@PEAU1?1??234@AEAA_NXZ@@?$standard_base@_WV?$string_output_adapter@_W@__crt_stdio_output@@@__crt_stdio_output@@IEAA_NAEAPEAUansi_string@?1??type_case_Z@?$output_processor@_WV?$string_output_adapter@_W@__crt_stdio_output@@V?$format_validation_base@_WV?$string_output_adapter@_W@__crt_stdio_output@@@2@@1@AEAA_NXZ@@Z 00000001400286ec f i libucrt:output.obj
 0001:00027704       ??$extract_argument_from_va_list@PEAUansi_string@?1??type_case_Z@?$output_processor@_WV?$string_output_adapter@_W@__crt_stdio_output@@V?$positional_parameter_base@_WV?$string_output_adapter@_W@__crt_stdio_output@@@2@@__crt_stdio_output@@AEAA_NXZ@PEAU1?1??234@AEAA_NXZ@@?$positional_parameter_base@_WV?$string_output_adapter@_W@__crt_stdio_output@@@__crt_stdio_output@@IEAA_NAEAPEAUansi_string@?1??type_case_Z@?$output_processor@_WV?$string_output_adapter@_W@__crt_stdio_output@@V?$positional_parameter_base@_WV?$string_output_adapter@_W@__crt_stdio_output@@@2@@1@AEAA_NXZ@@Z 0000000140028704 f i libucrt:output.obj
 0001:000277f0       ??$extract_argument_from_va_list@PEAUansi_string@?1??type_case_Z@?$output_processor@_WV?$string_output_adapter@_W@__crt_stdio_output@@V?$positional_parameter_base@_WV?$string_output_adapter@_W@__crt_stdio_output@@@2@@__crt_stdio_output@@AEAA_NXZ@PEAU1?1??234@AEAA_NXZ@@?$standard_base@_WV?$string_output_adapter@_W@__crt_stdio_output@@@__crt_stdio_output@@IEAA_NAEAPEAUansi_string@?1??type_case_Z@?$output_processor@_WV?$string_output_adapter@_W@__crt_stdio_output@@V?$positional_parameter_base@_WV?$string_output_adapter@_W@__crt_stdio_output@@@2@@1@AEAA_NXZ@@Z 00000001400287f0 f i libucrt:output.obj
 0001:00027808       ??$extract_argument_from_va_list@PEAUansi_string@?1??type_case_Z@?$output_processor@_WV?$string_output_adapter@_W@__crt_stdio_output@@V?$standard_base@_WV?$string_output_adapter@_W@__crt_stdio_output@@@2@@__crt_stdio_output@@AEAA_NXZ@PEAU1?1??234@AEAA_NXZ@@?$standard_base@_WV?$string_output_adapter@_W@__crt_stdio_output@@@__crt_stdio_output@@IEAA_NAEAPEAUansi_string@?1??type_case_Z@?$output_processor@_WV?$string_output_adapter@_W@__crt_stdio_output@@V?$standard_base@_WV?$string_output_adapter@_W@__crt_stdio_output@@@2@@1@AEAA_NXZ@@Z 0000000140028808 f i libucrt:output.obj
 0001:00027820       ??$extract_argument_from_va_list@PEAXPEAX@?$positional_parameter_base@DV?$stream_output_adapter@D@__crt_stdio_output@@@__crt_stdio_output@@IEAA_NAEAPEAX@Z 0000000140028820 f i libucrt:output.obj
 0001:00027908       ??$extract_argument_from_va_list@PEAXPEAX@?$positional_parameter_base@DV?$string_output_adapter@D@__crt_stdio_output@@@__crt_stdio_output@@IEAA_NAEAPEAX@Z 0000000140028908 f i libucrt:output.obj
 0001:000279f0       ??$extract_argument_from_va_list@PEAXPEAX@?$positional_parameter_base@_WV?$stream_output_adapter@_W@__crt_stdio_output@@@__crt_stdio_output@@IEAA_NAEAPEAX@Z 00000001400289f0 f i libucrt:output.obj
 0001:00027adc       ??$extract_argument_from_va_list@PEAXPEAX@?$positional_parameter_base@_WV?$string_output_adapter@_W@__crt_stdio_output@@@__crt_stdio_output@@IEAA_NAEAPEAX@Z 0000000140028adc f i libucrt:output.obj
 0001:00027bc8       ??$extract_argument_from_va_list@PEAXPEAX@?$standard_base@DV?$stream_output_adapter@D@__crt_stdio_output@@@__crt_stdio_output@@IEAA_NAEAPEAX@Z 0000000140028bc8 f i libucrt:output.obj
 0001:00027be0       ??$extract_argument_from_va_list@PEAXPEAX@?$standard_base@DV?$string_output_adapter@D@__crt_stdio_output@@@__crt_stdio_output@@IEAA_NAEAPEAX@Z 0000000140028be0 f i libucrt:output.obj
 0001:00027bf8       ??$extract_argument_from_va_list@PEAXPEAX@?$standard_base@_WV?$stream_output_adapter@_W@__crt_stdio_output@@@__crt_stdio_output@@IEAA_NAEAPEAX@Z 0000000140028bf8 f i libucrt:output.obj
 0001:00027c10       ??$extract_argument_from_va_list@PEAXPEAX@?$standard_base@_WV?$string_output_adapter@_W@__crt_stdio_output@@@__crt_stdio_output@@IEAA_NAEAPEAX@Z 0000000140028c10 f i libucrt:output.obj
 0001:00027c28       ??$extract_argument_from_va_list@U_CRT_DOUBLE@@U1@@?$positional_parameter_base@DV?$stream_output_adapter@D@__crt_stdio_output@@@__crt_stdio_output@@IEAA_NAEAU_CRT_DOUBLE@@@Z 0000000140028c28 f i libucrt:output.obj
 0001:00027d10       ??$extract_argument_from_va_list@U_CRT_DOUBLE@@U1@@?$positional_parameter_base@DV?$string_output_adapter@D@__crt_stdio_output@@@__crt_stdio_output@@IEAA_NAEAU_CRT_DOUBLE@@@Z 0000000140028d10 f i libucrt:output.obj
 0001:00027df8       ??$extract_argument_from_va_list@U_CRT_DOUBLE@@U1@@?$positional_parameter_base@_WV?$stream_output_adapter@_W@__crt_stdio_output@@@__crt_stdio_output@@IEAA_NAEAU_CRT_DOUBLE@@@Z 0000000140028df8 f i libucrt:output.obj
 0001:00027ee4       ??$extract_argument_from_va_list@U_CRT_DOUBLE@@U1@@?$positional_parameter_base@_WV?$string_output_adapter@_W@__crt_stdio_output@@@__crt_stdio_output@@IEAA_NAEAU_CRT_DOUBLE@@@Z 0000000140028ee4 f i libucrt:output.obj
 0001:00027fd0       ??$extract_argument_from_va_list@U_CRT_DOUBLE@@U1@@?$standard_base@DV?$stream_output_adapter@D@__crt_stdio_output@@@__crt_stdio_output@@IEAA_NAEAU_CRT_DOUBLE@@@Z 0000000140028fd0 f i libucrt:output.obj
 0001:00027fec       ??$extract_argument_from_va_list@U_CRT_DOUBLE@@U1@@?$standard_base@DV?$string_output_adapter@D@__crt_stdio_output@@@__crt_stdio_output@@IEAA_NAEAU_CRT_DOUBLE@@@Z 0000000140028fec f i libucrt:output.obj
 0001:00028008       ??$extract_argument_from_va_list@U_CRT_DOUBLE@@U1@@?$standard_base@_WV?$stream_output_adapter@_W@__crt_stdio_output@@@__crt_stdio_output@@IEAA_NAEAU_CRT_DOUBLE@@@Z 0000000140029008 f i libucrt:output.obj
 0001:00028024       ??$extract_argument_from_va_list@U_CRT_DOUBLE@@U1@@?$standard_base@_WV?$string_output_adapter@_W@__crt_stdio_output@@@__crt_stdio_output@@IEAA_NAEAU_CRT_DOUBLE@@@Z 0000000140029024 f i libucrt:output.obj
 0001:00028040       ??$extract_argument_from_va_list@_J_J@?$positional_parameter_base@DV?$stream_output_adapter@D@__crt_stdio_output@@@__crt_stdio_output@@IEAA_NAEA_J@Z 0000000140029040 f i libucrt:output.obj
 0001:00028128       ??$extract_argument_from_va_list@_J_J@?$positional_parameter_base@DV?$string_output_adapter@D@__crt_stdio_output@@@__crt_stdio_output@@IEAA_NAEA_J@Z 0000000140029128 f i libucrt:output.obj
 0001:00028210       ??$extract_argument_from_va_list@_J_J@?$positional_parameter_base@_WV?$stream_output_adapter@_W@__crt_stdio_output@@@__crt_stdio_output@@IEAA_NAEA_J@Z 0000000140029210 f i libucrt:output.obj
 0001:000282fc       ??$extract_argument_from_va_list@_J_J@?$positional_parameter_base@_WV?$string_output_adapter@_W@__crt_stdio_output@@@__crt_stdio_output@@IEAA_NAEA_J@Z 00000001400292fc f i libucrt:output.obj
 0001:000283e8       ??$extract_argument_from_va_list@_J_J@?$standard_base@DV?$stream_output_adapter@D@__crt_stdio_output@@@__crt_stdio_output@@IEAA_NAEA_J@Z 00000001400293e8 f i libucrt:output.obj
 0001:00028400       ??$extract_argument_from_va_list@_J_J@?$standard_base@DV?$string_output_adapter@D@__crt_stdio_output@@@__crt_stdio_output@@IEAA_NAEA_J@Z 0000000140029400 f i libucrt:output.obj
 0001:00028418       ??$extract_argument_from_va_list@_J_J@?$standard_base@_WV?$stream_output_adapter@_W@__crt_stdio_output@@@__crt_stdio_output@@IEAA_NAEA_J@Z 0000000140029418 f i libucrt:output.obj
 0001:00028430       ??$extract_argument_from_va_list@_J_J@?$standard_base@_WV?$string_output_adapter@_W@__crt_stdio_output@@@__crt_stdio_output@@IEAA_NAEA_J@Z 0000000140029430 f i libucrt:output.obj
 0001:00028448       ??$extract_argument_from_va_list@_K_J@?$positional_parameter_base@DV?$stream_output_adapter@D@__crt_stdio_output@@@__crt_stdio_output@@IEAA_NAEA_J@Z 0000000140029448 f i libucrt:output.obj
 0001:00028530       ??$extract_argument_from_va_list@_K_J@?$positional_parameter_base@DV?$string_output_adapter@D@__crt_stdio_output@@@__crt_stdio_output@@IEAA_NAEA_J@Z 0000000140029530 f i libucrt:output.obj
 0001:00028618       ??$extract_argument_from_va_list@_K_J@?$positional_parameter_base@_WV?$stream_output_adapter@_W@__crt_stdio_output@@@__crt_stdio_output@@IEAA_NAEA_J@Z 0000000140029618 f i libucrt:output.obj
 0001:00028704       ??$extract_argument_from_va_list@_K_J@?$positional_parameter_base@_WV?$string_output_adapter@_W@__crt_stdio_output@@@__crt_stdio_output@@IEAA_NAEA_J@Z 0000000140029704 f i libucrt:output.obj
 0001:000287f0       ??$extract_argument_from_va_list@_K_J@?$standard_base@DV?$stream_output_adapter@D@__crt_stdio_output@@@__crt_stdio_output@@IEAA_NAEA_J@Z 00000001400297f0 f i libucrt:output.obj
 0001:00028808       ??$extract_argument_from_va_list@_K_J@?$standard_base@DV?$string_output_adapter@D@__crt_stdio_output@@@__crt_stdio_output@@IEAA_NAEA_J@Z 0000000140029808 f i libucrt:output.obj
 0001:00028820       ??$extract_argument_from_va_list@_K_J@?$standard_base@_WV?$stream_output_adapter@_W@__crt_stdio_output@@@__crt_stdio_output@@IEAA_NAEA_J@Z 0000000140029820 f i libucrt:output.obj
 0001:00028838       ??$extract_argument_from_va_list@_K_J@?$standard_base@_WV?$string_output_adapter@_W@__crt_stdio_output@@@__crt_stdio_output@@IEAA_NAEA_J@Z 0000000140029838 f i libucrt:output.obj
 0001:00028850       ??$extract_argument_from_va_list@_W_W@?$positional_parameter_base@DV?$stream_output_adapter@D@__crt_stdio_output@@@__crt_stdio_output@@IEAA_NAEA_W@Z 0000000140029850 f i libucrt:output.obj
 0001:0002893c       ??$extract_argument_from_va_list@_W_W@?$positional_parameter_base@DV?$string_output_adapter@D@__crt_stdio_output@@@__crt_stdio_output@@IEAA_NAEA_W@Z 000000014002993c f i libucrt:output.obj
 0001:00028a28       ??$extract_argument_from_va_list@_W_W@?$positional_parameter_base@_WV?$stream_output_adapter@_W@__crt_stdio_output@@@__crt_stdio_output@@IEAA_NAEA_W@Z 0000000140029a28 f i libucrt:output.obj
 0001:00028b18       ??$extract_argument_from_va_list@_W_W@?$positional_parameter_base@_WV?$string_output_adapter@_W@__crt_stdio_output@@@__crt_stdio_output@@IEAA_NAEA_W@Z 0000000140029b18 f i libucrt:output.obj
 0001:00028c08       ??$extract_argument_from_va_list@_W_W@?$standard_base@DV?$stream_output_adapter@D@__crt_stdio_output@@@__crt_stdio_output@@IEAA_NAEA_W@Z 0000000140029c08 f i libucrt:output.obj
 0001:00028c20       ??$extract_argument_from_va_list@_W_W@?$standard_base@DV?$string_output_adapter@D@__crt_stdio_output@@@__crt_stdio_output@@IEAA_NAEA_W@Z 0000000140029c20 f i libucrt:output.obj
 0001:00028c38       ??$extract_argument_from_va_list@_W_W@?$standard_base@_WV?$stream_output_adapter@_W@__crt_stdio_output@@@__crt_stdio_output@@IEAA_NAEA_W@Z 0000000140029c38 f i libucrt:output.obj
 0001:00028c50       ??$extract_argument_from_va_list@_W_W@?$standard_base@_WV?$string_output_adapter@_W@__crt_stdio_output@@@__crt_stdio_output@@IEAA_NAEA_W@Z 0000000140029c50 f i libucrt:output.obj
 0001:00028c68       ??$get_parameter_type@D@?$positional_parameter_base@DV?$stream_output_adapter@D@__crt_stdio_output@@@__crt_stdio_output@@CA?AW4parameter_type@01@PEAD@Z 0000000140029c68 f i libucrt:output.obj
 0001:00028c70       ??$get_parameter_type@D@?$positional_parameter_base@DV?$string_output_adapter@D@__crt_stdio_output@@@__crt_stdio_output@@CA?AW4parameter_type@01@PEAD@Z 0000000140029c70 f i libucrt:output.obj
 0001:00028c78       ??$get_parameter_type@D@?$positional_parameter_base@_WV?$stream_output_adapter@_W@__crt_stdio_output@@@__crt_stdio_output@@CA?AW4parameter_type@01@PEAD@Z 0000000140029c78 f i libucrt:output.obj
 0001:00028c80       ??$get_parameter_type@D@?$positional_parameter_base@_WV?$string_output_adapter@_W@__crt_stdio_output@@@__crt_stdio_output@@CA?AW4parameter_type@01@PEAD@Z 0000000140029c80 f i libucrt:output.obj
 0001:00028c88       ??$get_parameter_type@Uansi_string@?1??type_case_Z@?$output_processor@DV?$stream_output_adapter@D@__crt_stdio_output@@V?$positional_parameter_base@DV?$stream_output_adapter@D@__crt_stdio_output@@@2@@__crt_stdio_output@@AEAA_NXZ@@?$positional_parameter_base@DV?$stream_output_adapter@D@__crt_stdio_output@@@__crt_stdio_output@@CA?AW4parameter_type@01@PEAUansi_string@?1??type_case_Z@?$output_processor@DV?$stream_output_adapter@D@__crt_stdio_output@@V?$positional_parameter_base@DV?$stream_output_adapter@D@__crt_stdio_output@@@2@@1@AEAA_NXZ@@Z 0000000140029c88 f i libucrt:output.obj
 0001:00028c90       ??$get_parameter_type@Uansi_string@?1??type_case_Z@?$output_processor@DV?$string_output_adapter@D@__crt_stdio_output@@V?$positional_parameter_base@DV?$string_output_adapter@D@__crt_stdio_output@@@2@@__crt_stdio_output@@AEAA_NXZ@@?$positional_parameter_base@DV?$string_output_adapter@D@__crt_stdio_output@@@__crt_stdio_output@@CA?AW4parameter_type@01@PEAUansi_string@?1??type_case_Z@?$output_processor@DV?$string_output_adapter@D@__crt_stdio_output@@V?$positional_parameter_base@DV?$string_output_adapter@D@__crt_stdio_output@@@2@@1@AEAA_NXZ@@Z 0000000140029c90 f i libucrt:output.obj
 0001:00028c98       ??$get_parameter_type@Uansi_string@?1??type_case_Z@?$output_processor@_WV?$stream_output_adapter@_W@__crt_stdio_output@@V?$positional_parameter_base@_WV?$stream_output_adapter@_W@__crt_stdio_output@@@2@@__crt_stdio_output@@AEAA_NXZ@@?$positional_parameter_base@_WV?$stream_output_adapter@_W@__crt_stdio_output@@@__crt_stdio_output@@CA?AW4parameter_type@01@PEAUansi_string@?1??type_case_Z@?$output_processor@_WV?$stream_output_adapter@_W@__crt_stdio_output@@V?$positional_parameter_base@_WV?$stream_output_adapter@_W@__crt_stdio_output@@@2@@1@AEAA_NXZ@@Z 0000000140029c98 f i libucrt:output.obj
 0001:00028ca0       ??$get_parameter_type@Uansi_string@?1??type_case_Z@?$output_processor@_WV?$string_output_adapter@_W@__crt_stdio_output@@V?$positional_parameter_base@_WV?$string_output_adapter@_W@__crt_stdio_output@@@2@@__crt_stdio_output@@AEAA_NXZ@@?$positional_parameter_base@_WV?$string_output_adapter@_W@__crt_stdio_output@@@__crt_stdio_output@@CA?AW4parameter_type@01@PEAUansi_string@?1??type_case_Z@?$output_processor@_WV?$string_output_adapter@_W@__crt_stdio_output@@V?$positional_parameter_base@_WV?$string_output_adapter@_W@__crt_stdio_output@@@2@@1@AEAA_NXZ@@Z 0000000140029ca0 f i libucrt:output.obj
 0001:00028ca8       ??$get_parameter_type@X@?$positional_parameter_base@DV?$stream_output_adapter@D@__crt_stdio_output@@@__crt_stdio_output@@CA?AW4parameter_type@01@PEAX@Z 0000000140029ca8 f i libucrt:output.obj
 0001:00028cb0       ??$get_parameter_type@X@?$positional_parameter_base@DV?$string_output_adapter@D@__crt_stdio_output@@@__crt_stdio_output@@CA?AW4parameter_type@01@PEAX@Z 0000000140029cb0 f i libucrt:output.obj
 0001:00028cb8       ??$get_parameter_type@X@?$positional_parameter_base@_WV?$stream_output_adapter@_W@__crt_stdio_output@@@__crt_stdio_output@@CA?AW4parameter_type@01@PEAX@Z 0000000140029cb8 f i libucrt:output.obj
 0001:00028cc0       ??$get_parameter_type@X@?$positional_parameter_base@_WV?$string_output_adapter@_W@__crt_stdio_output@@@__crt_stdio_output@@CA?AW4parameter_type@01@PEAX@Z 0000000140029cc0 f i libucrt:output.obj
 0001:00028cc8       ??$is_character_specifier@D@?$positional_parameter_base@DV?$stream_output_adapter@D@__crt_stdio_output@@@__crt_stdio_output@@CA_ND@Z 0000000140029cc8 f i libucrt:output.obj
 0001:00028cd4       ??$is_character_specifier@D@?$positional_parameter_base@DV?$string_output_adapter@D@__crt_stdio_output@@@__crt_stdio_output@@CA_ND@Z 0000000140029cd4 f i libucrt:output.obj
 0001:00028ce0       ??$is_character_specifier@_W@?$positional_parameter_base@_WV?$stream_output_adapter@_W@__crt_stdio_output@@@__crt_stdio_output@@CA_N_W@Z 0000000140029ce0 f i libucrt:output.obj
 0001:00028cf4       ??$is_character_specifier@_W@?$positional_parameter_base@_WV?$string_output_adapter@_W@__crt_stdio_output@@@__crt_stdio_output@@CA_N_W@Z 0000000140029cf4 f i libucrt:output.obj
 0001:00028d08       ??$is_integral_specifier@D@?$positional_parameter_base@DV?$stream_output_adapter@D@__crt_stdio_output@@@__crt_stdio_output@@CA_ND@Z 0000000140029d08 f i libucrt:output.obj
 0001:00028d34       ??$is_integral_specifier@D@?$positional_parameter_base@DV?$string_output_adapter@D@__crt_stdio_output@@@__crt_stdio_output@@CA_ND@Z 0000000140029d34 f i libucrt:output.obj
 0001:00028d60       ??$is_integral_specifier@_W@?$positional_parameter_base@_WV?$stream_output_adapter@_W@__crt_stdio_output@@@__crt_stdio_output@@CA_N_W@Z 0000000140029d60 f i libucrt:output.obj
 0001:00028d90       ??$is_integral_specifier@_W@?$positional_parameter_base@_WV?$string_output_adapter@_W@__crt_stdio_output@@@__crt_stdio_output@@CA_N_W@Z 0000000140029d90 f i libucrt:output.obj
 0001:00028dc0       ??$is_pointer_specifier@D@?$positional_parameter_base@DV?$stream_output_adapter@D@__crt_stdio_output@@@__crt_stdio_output@@CA_ND@Z 0000000140029dc0 f i libucrt:output.obj
 0001:00028dc8       ??$is_pointer_specifier@D@?$positional_parameter_base@DV?$string_output_adapter@D@__crt_stdio_output@@@__crt_stdio_output@@CA_ND@Z 0000000140029dc8 f i libucrt:output.obj
 0001:00028dd0       ??$is_pointer_specifier@_W@?$positional_parameter_base@_WV?$stream_output_adapter@_W@__crt_stdio_output@@@__crt_stdio_output@@CA_N_W@Z 0000000140029dd0 f i libucrt:output.obj
 0001:00028ddc       ??$is_pointer_specifier@_W@?$positional_parameter_base@_WV?$string_output_adapter@_W@__crt_stdio_output@@@__crt_stdio_output@@CA_N_W@Z 0000000140029ddc f i libucrt:output.obj
 0001:00028de8       ??$is_string_specifier@D@?$positional_parameter_base@DV?$stream_output_adapter@D@__crt_stdio_output@@@__crt_stdio_output@@CA_ND@Z 0000000140029de8 f i libucrt:output.obj
 0001:00028df4       ??$is_string_specifier@D@?$positional_parameter_base@DV?$string_output_adapter@D@__crt_stdio_output@@@__crt_stdio_output@@CA_ND@Z 0000000140029df4 f i libucrt:output.obj
 0001:00028e00       ??$is_string_specifier@_W@?$positional_parameter_base@_WV?$stream_output_adapter@_W@__crt_stdio_output@@@__crt_stdio_output@@CA_N_W@Z 0000000140029e00 f i libucrt:output.obj
 0001:00028e14       ??$is_string_specifier@_W@?$positional_parameter_base@_WV?$string_output_adapter@_W@__crt_stdio_output@@@__crt_stdio_output@@CA_N_W@Z 0000000140029e14 f i libucrt:output.obj
 0001:00028e28       ??$is_wide_character_specifier@D@__crt_stdio_output@@YA_N_KDW4length_modifier@0@@Z 0000000140029e28 f i libucrt:output.obj
 0001:00028e5c       ??$is_wide_character_specifier@_W@__crt_stdio_output@@YA_N_K_WW4length_modifier@0@@Z 0000000140029e5c f i libucrt:output.obj
 0001:00028eac       ??$peek_va_arg@C@__crt_stdio_output@@YACPEAD@Z 0000000140029eac f i libucrt:output.obj
 0001:00028eb0       ??$peek_va_arg@E@__crt_stdio_output@@YAEPEAD@Z 0000000140029eb0 f i libucrt:output.obj
 0001:00028eb4       ??$peek_va_arg@F@__crt_stdio_output@@YAFPEAD@Z 0000000140029eb4 f i libucrt:output.obj
 0001:00028eb8       ??$peek_va_arg@G@__crt_stdio_output@@YAGPEAD@Z 0000000140029eb8 f i libucrt:output.obj
 0001:00028ebc       ??$peek_va_arg@H@__crt_stdio_output@@YAHPEAD@Z 0000000140029ebc f i libucrt:output.obj
 0001:00028ec0       ??$peek_va_arg@I@__crt_stdio_output@@YAIPEAD@Z 0000000140029ec0 f i libucrt:output.obj
 0001:00028ec4       ??$peek_va_arg@PEAD@__crt_stdio_output@@YAPEADPEAD@Z 0000000140029ec4 f i libucrt:output.obj
 0001:00028ec8       ??$peek_va_arg@PEAUansi_string@?1??type_case_Z@?$output_processor@DV?$stream_output_adapter@D@__crt_stdio_output@@V?$positional_parameter_base@DV?$stream_output_adapter@D@__crt_stdio_output@@@2@@__crt_stdio_output@@AEAA_NXZ@@__crt_stdio_output@@YAPEAUansi_string@?1??type_case_Z@?$output_processor@DV?$stream_output_adapter@D@__crt_stdio_output@@V?$positional_parameter_base@DV?$stream_output_adapter@D@__crt_stdio_output@@@2@@0@AEAA_NXZ@PEAD@Z 0000000140029ec8 f i libucrt:output.obj
 0001:00028ecc       ??$peek_va_arg@PEAUansi_string@?1??type_case_Z@?$output_processor@DV?$string_output_adapter@D@__crt_stdio_output@@V?$positional_parameter_base@DV?$string_output_adapter@D@__crt_stdio_output@@@2@@__crt_stdio_output@@AEAA_NXZ@@__crt_stdio_output@@YAPEAUansi_string@?1??type_case_Z@?$output_processor@DV?$string_output_adapter@D@__crt_stdio_output@@V?$positional_parameter_base@DV?$string_output_adapter@D@__crt_stdio_output@@@2@@0@AEAA_NXZ@PEAD@Z 0000000140029ecc f i libucrt:output.obj
 0001:00028ed0       ??$peek_va_arg@PEAUansi_string@?1??type_case_Z@?$output_processor@_WV?$stream_output_adapter@_W@__crt_stdio_output@@V?$positional_parameter_base@_WV?$stream_output_adapter@_W@__crt_stdio_output@@@2@@__crt_stdio_output@@AEAA_NXZ@@__crt_stdio_output@@YAPEAUansi_string@?1??type_case_Z@?$output_processor@_WV?$stream_output_adapter@_W@__crt_stdio_output@@V?$positional_parameter_base@_WV?$stream_output_adapter@_W@__crt_stdio_output@@@2@@0@AEAA_NXZ@PEAD@Z 0000000140029ed0 f i libucrt:output.obj
 0001:00028ed4       ??$peek_va_arg@PEAUansi_string@?1??type_case_Z@?$output_processor@_WV?$string_output_adapter@_W@__crt_stdio_output@@V?$positional_parameter_base@_WV?$string_output_adapter@_W@__crt_stdio_output@@@2@@__crt_stdio_output@@AEAA_NXZ@@__crt_stdio_output@@YAPEAUansi_string@?1??type_case_Z@?$output_processor@_WV?$string_output_adapter@_W@__crt_stdio_output@@V?$positional_parameter_base@_WV?$string_output_adapter@_W@__crt_stdio_output@@@2@@0@AEAA_NXZ@PEAD@Z 0000000140029ed4 f i libucrt:output.obj
 0001:00028ed8       ??$peek_va_arg@PEAX@__crt_stdio_output@@YAPEAXPEAD@Z 0000000140029ed8 f i libucrt:output.obj
 0001:00028edc       ??$peek_va_arg@U_CRT_DOUBLE@@@__crt_stdio_output@@YA?AU_CRT_DOUBLE@@PEAD@Z 0000000140029edc f i libucrt:output.obj
 0001:00028ee0       ??$peek_va_arg@_J@__crt_stdio_output@@YA_JPEAD@Z 0000000140029ee0 f i libucrt:output.obj
 0001:00028ee4       ??$peek_va_arg@_K@__crt_stdio_output@@YA_KPEAD@Z 0000000140029ee4 f i libucrt:output.obj
 0001:00028ee8       ??$peek_va_arg@_W@__crt_stdio_output@@YA_WPEAD@Z 0000000140029ee8 f i libucrt:output.obj
 0001:00028eec       ??$puttc_nolock@AEBDPEAU_iobuf@@@?$__crt_char_traits@D@@SAHAEBD$$QEAPEAU_iobuf@@@Z 0000000140029eec f i libucrt:output.obj
 0001:00028efc       ??$puttc_nolock@AEB_WPEAU_iobuf@@@?$__crt_char_traits@_W@@SAGAEB_W$$QEAPEAU_iobuf@@@Z 0000000140029efc f i libucrt:output.obj
 0001:00028f0c       ??$read_va_arg@C@__crt_stdio_output@@YACAEAPEAD@Z 0000000140029f0c f i libucrt:output.obj
 0001:00028f1c       ??$read_va_arg@E@__crt_stdio_output@@YAEAEAPEAD@Z 0000000140029f1c f i libucrt:output.obj
 0001:00028f2c       ??$read_va_arg@F@__crt_stdio_output@@YAFAEAPEAD@Z 0000000140029f2c f i libucrt:output.obj
 0001:00028f3c       ??$read_va_arg@G@__crt_stdio_output@@YAGAEAPEAD@Z 0000000140029f3c f i libucrt:output.obj
 0001:00028f4c       ??$read_va_arg@H@__crt_stdio_output@@YAHAEAPEAD@Z 0000000140029f4c f i libucrt:output.obj
 0001:00028f5c       ??$read_va_arg@I@__crt_stdio_output@@YAIAEAPEAD@Z 0000000140029f5c f i libucrt:output.obj
 0001:00028f6c       ??$read_va_arg@PEAD@__crt_stdio_output@@YAPEADAEAPEAD@Z 0000000140029f6c f i libucrt:output.obj
 0001:00028f7c       ??$read_va_arg@PEAUansi_string@?1??type_case_Z@?$output_processor@DV?$stream_output_adapter@D@__crt_stdio_output@@V?$format_validation_base@DV?$stream_output_adapter@D@__crt_stdio_output@@@2@@__crt_stdio_output@@AEAA_NXZ@@__crt_stdio_output@@YAPEAUansi_string@?1??type_case_Z@?$output_processor@DV?$stream_output_adapter@D@__crt_stdio_output@@V?$format_validation_base@DV?$stream_output_adapter@D@__crt_stdio_output@@@2@@0@AEAA_NXZ@AEAPEAD@Z 0000000140029f7c f i libucrt:output.obj
 0001:00028f8c       ??$read_va_arg@PEAUansi_string@?1??type_case_Z@?$output_processor@DV?$stream_output_adapter@D@__crt_stdio_output@@V?$positional_parameter_base@DV?$stream_output_adapter@D@__crt_stdio_output@@@2@@__crt_stdio_output@@AEAA_NXZ@@__crt_stdio_output@@YAPEAUansi_string@?1??type_case_Z@?$output_processor@DV?$stream_output_adapter@D@__crt_stdio_output@@V?$positional_parameter_base@DV?$stream_output_adapter@D@__crt_stdio_output@@@2@@0@AEAA_NXZ@AEAPEAD@Z 0000000140029f8c f i libucrt:output.obj
 0001:00028f9c       ??$read_va_arg@PEAUansi_string@?1??type_case_Z@?$output_processor@DV?$stream_output_adapter@D@__crt_stdio_output@@V?$standard_base@DV?$stream_output_adapter@D@__crt_stdio_output@@@2@@__crt_stdio_output@@AEAA_NXZ@@__crt_stdio_output@@YAPEAUansi_string@?1??type_case_Z@?$output_processor@DV?$stream_output_adapter@D@__crt_stdio_output@@V?$standard_base@DV?$stream_output_adapter@D@__crt_stdio_output@@@2@@0@AEAA_NXZ@AEAPEAD@Z 0000000140029f9c f i libucrt:output.obj
 0001:00028fac       ??$read_va_arg@PEAUansi_string@?1??type_case_Z@?$output_processor@DV?$string_output_adapter@D@__crt_stdio_output@@V?$format_validation_base@DV?$string_output_adapter@D@__crt_stdio_output@@@2@@__crt_stdio_output@@AEAA_NXZ@@__crt_stdio_output@@YAPEAUansi_string@?1??type_case_Z@?$output_processor@DV?$string_output_adapter@D@__crt_stdio_output@@V?$format_validation_base@DV?$string_output_adapter@D@__crt_stdio_output@@@2@@0@AEAA_NXZ@AEAPEAD@Z 0000000140029fac f i libucrt:output.obj
 0001:00028fbc       ??$read_va_arg@PEAUansi_string@?1??type_case_Z@?$output_processor@DV?$string_output_adapter@D@__crt_stdio_output@@V?$positional_parameter_base@DV?$string_output_adapter@D@__crt_stdio_output@@@2@@__crt_stdio_output@@AEAA_NXZ@@__crt_stdio_output@@YAPEAUansi_string@?1??type_case_Z@?$output_processor@DV?$string_output_adapter@D@__crt_stdio_output@@V?$positional_parameter_base@DV?$string_output_adapter@D@__crt_stdio_output@@@2@@0@AEAA_NXZ@AEAPEAD@Z 0000000140029fbc f i libucrt:output.obj
 0001:00028fcc       ??$read_va_arg@PEAUansi_string@?1??type_case_Z@?$output_processor@DV?$string_output_adapter@D@__crt_stdio_output@@V?$standard_base@DV?$string_output_adapter@D@__crt_stdio_output@@@2@@__crt_stdio_output@@AEAA_NXZ@@__crt_stdio_output@@YAPEAUansi_string@?1??type_case_Z@?$output_processor@DV?$string_output_adapter@D@__crt_stdio_output@@V?$standard_base@DV?$string_output_adapter@D@__crt_stdio_output@@@2@@0@AEAA_NXZ@AEAPEAD@Z 0000000140029fcc f i libucrt:output.obj
 0001:00028fdc       ??$read_va_arg@PEAUansi_string@?1??type_case_Z@?$output_processor@_WV?$stream_output_adapter@_W@__crt_stdio_output@@V?$format_validation_base@_WV?$stream_output_adapter@_W@__crt_stdio_output@@@2@@__crt_stdio_output@@AEAA_NXZ@@__crt_stdio_output@@YAPEAUansi_string@?1??type_case_Z@?$output_processor@_WV?$stream_output_adapter@_W@__crt_stdio_output@@V?$format_validation_base@_WV?$stream_output_adapter@_W@__crt_stdio_output@@@2@@0@AEAA_NXZ@AEAPEAD@Z 0000000140029fdc f i libucrt:output.obj
 0001:00028fec       ??$read_va_arg@PEAUansi_string@?1??type_case_Z@?$output_processor@_WV?$stream_output_adapter@_W@__crt_stdio_output@@V?$positional_parameter_base@_WV?$stream_output_adapter@_W@__crt_stdio_output@@@2@@__crt_stdio_output@@AEAA_NXZ@@__crt_stdio_output@@YAPEAUansi_string@?1??type_case_Z@?$output_processor@_WV?$stream_output_adapter@_W@__crt_stdio_output@@V?$positional_parameter_base@_WV?$stream_output_adapter@_W@__crt_stdio_output@@@2@@0@AEAA_NXZ@AEAPEAD@Z 0000000140029fec f i libucrt:output.obj
 0001:00028ffc       ??$read_va_arg@PEAUansi_string@?1??type_case_Z@?$output_processor@_WV?$stream_output_adapter@_W@__crt_stdio_output@@V?$standard_base@_WV?$stream_output_adapter@_W@__crt_stdio_output@@@2@@__crt_stdio_output@@AEAA_NXZ@@__crt_stdio_output@@YAPEAUansi_string@?1??type_case_Z@?$output_processor@_WV?$stream_output_adapter@_W@__crt_stdio_output@@V?$standard_base@_WV?$stream_output_adapter@_W@__crt_stdio_output@@@2@@0@AEAA_NXZ@AEAPEAD@Z 0000000140029ffc f i libucrt:output.obj
 0001:0002900c       ??$read_va_arg@PEAUansi_string@?1??type_case_Z@?$output_processor@_WV?$string_output_adapter@_W@__crt_stdio_output@@V?$format_validation_base@_WV?$string_output_adapter@_W@__crt_stdio_output@@@2@@__crt_stdio_output@@AEAA_NXZ@@__crt_stdio_output@@YAPEAUansi_string@?1??type_case_Z@?$output_processor@_WV?$string_output_adapter@_W@__crt_stdio_output@@V?$format_validation_base@_WV?$string_output_adapter@_W@__crt_stdio_output@@@2@@0@AEAA_NXZ@AEAPEAD@Z 000000014002a00c f i libucrt:output.obj
 0001:0002901c       ??$read_va_arg@PEAUansi_string@?1??type_case_Z@?$output_processor@_WV?$string_output_adapter@_W@__crt_stdio_output@@V?$positional_parameter_base@_WV?$string_output_adapter@_W@__crt_stdio_output@@@2@@__crt_stdio_output@@AEAA_NXZ@@__crt_stdio_output@@YAPEAUansi_string@?1??type_case_Z@?$output_processor@_WV?$string_output_adapter@_W@__crt_stdio_output@@V?$positional_parameter_base@_WV?$string_output_adapter@_W@__crt_stdio_output@@@2@@0@AEAA_NXZ@AEAPEAD@Z 000000014002a01c f i libucrt:output.obj
 0001:0002902c       ??$read_va_arg@PEAUansi_string@?1??type_case_Z@?$output_processor@_WV?$string_output_adapter@_W@__crt_stdio_output@@V?$standard_base@_WV?$string_output_adapter@_W@__crt_stdio_output@@@2@@__crt_stdio_output@@AEAA_NXZ@@__crt_stdio_output@@YAPEAUansi_string@?1??type_case_Z@?$output_processor@_WV?$string_output_adapter@_W@__crt_stdio_output@@V?$standard_base@_WV?$string_output_adapter@_W@__crt_stdio_output@@@2@@0@AEAA_NXZ@AEAPEAD@Z 000000014002a02c f i libucrt:output.obj
 0001:0002903c       ??$read_va_arg@PEAX@__crt_stdio_output@@YAPEAXAEAPEAD@Z 000000014002a03c f i libucrt:output.obj
 0001:0002904c       ??$read_va_arg@U_CRT_DOUBLE@@@__crt_stdio_output@@YA?AU_CRT_DOUBLE@@AEAPEAD@Z 000000014002a04c f i libucrt:output.obj
 0001:0002905c       ??$read_va_arg@_J@__crt_stdio_output@@YA_JAEAPEAD@Z 000000014002a05c f i libucrt:output.obj
 0001:0002906c       ??$read_va_arg@_K@__crt_stdio_output@@YA_KAEAPEAD@Z 000000014002a06c f i libucrt:output.obj
 0001:0002907c       ??$read_va_arg@_W@__crt_stdio_output@@YA_WAEAPEAD@Z 000000014002a07c f i libucrt:output.obj
 0001:0002908c       ??$scratch_count@D@formatting_buffer@__crt_stdio_output@@QEBA_KXZ 000000014002a08c f i libucrt:output.obj
 0001:000290b0       ??$scratch_data@D@formatting_buffer@__crt_stdio_output@@QEAAPEADXZ 000000014002a0b0 f i libucrt:output.obj
 0001:000290dc       ??$tcstol@AEAPEBDPEAPEADH@?$__crt_char_traits@D@@SAJAEAPEBD$$QEAPEAPEAD$$QEAH@Z 000000014002a0dc f i libucrt:output.obj
 0001:000290f0       ??$tcstol@AEAPEB_WPEAPEA_WH@?$__crt_char_traits@_W@@SAJAEAPEB_W$$QEAPEAPEA_W$$QEAH@Z 000000014002a0f0 f i libucrt:output.obj
 0001:00029104       ??$tcstol@PEBDPEAPEADH@?$__crt_char_traits@D@@SAJ$$QEAPEBD$$QEAPEAPEAD$$QEAH@Z 000000014002a104 f i libucrt:output.obj
 0001:00029118       ??$tcstol@PEB_WPEAPEA_WH@?$__crt_char_traits@_W@@SAJ$$QEAPEB_W$$QEAPEAPEA_W$$QEAH@Z 000000014002a118 f i libucrt:output.obj
 0001:0002912c       ??$type_case_integer_parse_into_buffer@I@?$output_processor@DV?$stream_output_adapter@D@__crt_stdio_output@@V?$format_validation_base@DV?$stream_output_adapter@D@__crt_stdio_output@@@2@@__crt_stdio_output@@AEAAXII_N@Z 000000014002a12c f i libucrt:output.obj
 0001:000291d4       ??$type_case_integer_parse_into_buffer@I@?$output_processor@DV?$stream_output_adapter@D@__crt_stdio_output@@V?$positional_parameter_base@DV?$stream_output_adapter@D@__crt_stdio_output@@@2@@__crt_stdio_output@@AEAAXII_N@Z 000000014002a1d4 f i libucrt:output.obj
 0001:0002927c       ??$type_case_integer_parse_into_buffer@I@?$output_processor@DV?$stream_output_adapter@D@__crt_stdio_output@@V?$standard_base@DV?$stream_output_adapter@D@__crt_stdio_output@@@2@@__crt_stdio_output@@AEAAXII_N@Z 000000014002a27c f i libucrt:output.obj
 0001:00029324       ??$type_case_integer_parse_into_buffer@I@?$output_processor@DV?$string_output_adapter@D@__crt_stdio_output@@V?$format_validation_base@DV?$string_output_adapter@D@__crt_stdio_output@@@2@@__crt_stdio_output@@AEAAXII_N@Z 000000014002a324 f i libucrt:output.obj
 0001:000293cc       ??$type_case_integer_parse_into_buffer@I@?$output_processor@DV?$string_output_adapter@D@__crt_stdio_output@@V?$positional_parameter_base@DV?$string_output_adapter@D@__crt_stdio_output@@@2@@__crt_stdio_output@@AEAAXII_N@Z 000000014002a3cc f i libucrt:output.obj
 0001:00029474       ??$type_case_integer_parse_into_buffer@I@?$output_processor@DV?$string_output_adapter@D@__crt_stdio_output@@V?$standard_base@DV?$string_output_adapter@D@__crt_stdio_output@@@2@@__crt_stdio_output@@AEAAXII_N@Z 000000014002a474 f i libucrt:output.obj
 0001:0002951c       ??$type_case_integer_parse_into_buffer@I@?$output_processor@_WV?$stream_output_adapter@_W@__crt_stdio_output@@V?$format_validation_base@_WV?$stream_output_adapter@_W@__crt_stdio_output@@@2@@__crt_stdio_output@@AEAAXII_N@Z 000000014002a51c f i libucrt:output.obj
 0001:000295e8       ??$type_case_integer_parse_into_buffer@I@?$output_processor@_WV?$stream_output_adapter@_W@__crt_stdio_output@@V?$positional_parameter_base@_WV?$stream_output_adapter@_W@__crt_stdio_output@@@2@@__crt_stdio_output@@AEAAXII_N@Z 000000014002a5e8 f i libucrt:output.obj
 0001:000296b4       ??$type_case_integer_parse_into_buffer@I@?$output_processor@_WV?$stream_output_adapter@_W@__crt_stdio_output@@V?$standard_base@_WV?$stream_output_adapter@_W@__crt_stdio_output@@@2@@__crt_stdio_output@@AEAAXII_N@Z 000000014002a6b4 f i libucrt:output.obj
 0001:00029780       ??$type_case_integer_parse_into_buffer@I@?$output_processor@_WV?$string_output_adapter@_W@__crt_stdio_output@@V?$format_validation_base@_WV?$string_output_adapter@_W@__crt_stdio_output@@@2@@__crt_stdio_output@@AEAAXII_N@Z 000000014002a780 f i libucrt:output.obj
 0001:0002984c       ??$type_case_integer_parse_into_buffer@I@?$output_processor@_WV?$string_output_adapter@_W@__crt_stdio_output@@V?$positional_parameter_base@_WV?$string_output_adapter@_W@__crt_stdio_output@@@2@@__crt_stdio_output@@AEAAXII_N@Z 000000014002a84c f i libucrt:output.obj
 0001:00029918       ??$type_case_integer_parse_into_buffer@I@?$output_processor@_WV?$string_output_adapter@_W@__crt_stdio_output@@V?$standard_base@_WV?$string_output_adapter@_W@__crt_stdio_output@@@2@@__crt_stdio_output@@AEAAXII_N@Z 000000014002a918 f i libucrt:output.obj
 0001:000299e4       ??$type_case_integer_parse_into_buffer@_K@?$output_processor@DV?$stream_output_adapter@D@__crt_stdio_output@@V?$format_validation_base@DV?$stream_output_adapter@D@__crt_stdio_output@@@2@@__crt_stdio_output@@AEAAX_KI_N@Z 000000014002a9e4 f i libucrt:output.obj
 0001:00029a94       ??$type_case_integer_parse_into_buffer@_K@?$output_processor@DV?$stream_output_adapter@D@__crt_stdio_output@@V?$positional_parameter_base@DV?$stream_output_adapter@D@__crt_stdio_output@@@2@@__crt_stdio_output@@AEAAX_KI_N@Z 000000014002aa94 f i libucrt:output.obj
 0001:00029b44       ??$type_case_integer_parse_into_buffer@_K@?$output_processor@DV?$stream_output_adapter@D@__crt_stdio_output@@V?$standard_base@DV?$stream_output_adapter@D@__crt_stdio_output@@@2@@__crt_stdio_output@@AEAAX_KI_N@Z 000000014002ab44 f i libucrt:output.obj
 0001:00029bf4       ??$type_case_integer_parse_into_buffer@_K@?$output_processor@DV?$string_output_adapter@D@__crt_stdio_output@@V?$format_validation_base@DV?$string_output_adapter@D@__crt_stdio_output@@@2@@__crt_stdio_output@@AEAAX_KI_N@Z 000000014002abf4 f i libucrt:output.obj
 0001:00029ca4       ??$type_case_integer_parse_into_buffer@_K@?$output_processor@DV?$string_output_adapter@D@__crt_stdio_output@@V?$positional_parameter_base@DV?$string_output_adapter@D@__crt_stdio_output@@@2@@__crt_stdio_output@@AEAAX_KI_N@Z 000000014002aca4 f i libucrt:output.obj
 0001:00029d54       ??$type_case_integer_parse_into_buffer@_K@?$output_processor@DV?$string_output_adapter@D@__crt_stdio_output@@V?$standard_base@DV?$string_output_adapter@D@__crt_stdio_output@@@2@@__crt_stdio_output@@AEAAX_KI_N@Z 000000014002ad54 f i libucrt:output.obj
 0001:00029e04       ??$type_case_integer_parse_into_buffer@_K@?$output_processor@_WV?$stream_output_adapter@_W@__crt_stdio_output@@V?$format_validation_base@_WV?$stream_output_adapter@_W@__crt_stdio_output@@@2@@__crt_stdio_output@@AEAAX_KI_N@Z 000000014002ae04 f i libucrt:output.obj
 0001:00029ed4       ??$type_case_integer_parse_into_buffer@_K@?$output_processor@_WV?$stream_output_adapter@_W@__crt_stdio_output@@V?$positional_parameter_base@_WV?$stream_output_adapter@_W@__crt_stdio_output@@@2@@__crt_stdio_output@@AEAAX_KI_N@Z 000000014002aed4 f i libucrt:output.obj
 0001:00029fa4       ??$type_case_integer_parse_into_buffer@_K@?$output_processor@_WV?$stream_output_adapter@_W@__crt_stdio_output@@V?$standard_base@_WV?$stream_output_adapter@_W@__crt_stdio_output@@@2@@__crt_stdio_output@@AEAAX_KI_N@Z 000000014002afa4 f i libucrt:output.obj
 0001:0002a074       ??$type_case_integer_parse_into_buffer@_K@?$output_processor@_WV?$string_output_adapter@_W@__crt_stdio_output@@V?$format_validation_base@_WV?$string_output_adapter@_W@__crt_stdio_output@@@2@@__crt_stdio_output@@AEAAX_KI_N@Z 000000014002b074 f i libucrt:output.obj
 0001:0002a144       ??$type_case_integer_parse_into_buffer@_K@?$output_processor@_WV?$string_output_adapter@_W@__crt_stdio_output@@V?$positional_parameter_base@_WV?$string_output_adapter@_W@__crt_stdio_output@@@2@@__crt_stdio_output@@AEAAX_KI_N@Z 000000014002b144 f i libucrt:output.obj
 0001:0002a214       ??$type_case_integer_parse_into_buffer@_K@?$output_processor@_WV?$string_output_adapter@_W@__crt_stdio_output@@V?$standard_base@_WV?$string_output_adapter@_W@__crt_stdio_output@@@2@@__crt_stdio_output@@AEAAX_KI_N@Z 000000014002b214 f i libucrt:output.obj
 0001:0002a2e4       ??$write_multiple_characters@V?$stream_output_adapter@D@__crt_stdio_output@@D@__crt_stdio_output@@YAXAEBV?$stream_output_adapter@D@0@DHQEAH@Z 000000014002b2e4 f i libucrt:output.obj
 0001:0002a394       ??$write_multiple_characters@V?$stream_output_adapter@_W@__crt_stdio_output@@D@__crt_stdio_output@@YAXAEBV?$stream_output_adapter@_W@0@DHQEAH@Z 000000014002b394 f i libucrt:output.obj
 0001:0002a44c       ??$write_multiple_characters@V?$string_output_adapter@D@__crt_stdio_output@@D@__crt_stdio_output@@YAXAEBV?$string_output_adapter@D@0@DHQEAH@Z 000000014002b44c f i libucrt:output.obj
 0001:0002a4e0       ??$write_multiple_characters@V?$string_output_adapter@_W@__crt_stdio_output@@D@__crt_stdio_output@@YAXAEBV?$string_output_adapter@_W@0@DHQEAH@Z 000000014002b4e0 f i libucrt:output.obj
 0001:0002a70c       ??0?$common_data@D@__crt_stdio_output@@IEAA@XZ 000000014002b70c f i libucrt:output.obj
 0001:0002a758       ??0?$common_data@_W@__crt_stdio_output@@IEAA@XZ 000000014002b758 f i libucrt:output.obj
 0001:0002a7a8       ??0?$output_adapter_data@DV?$stream_output_adapter@D@__crt_stdio_output@@@__crt_stdio_output@@IEAA@AEBV?$stream_output_adapter@D@1@_KQEBDQEAU__crt_locale_pointers@@QEAD@Z 000000014002b7a8 f i libucrt:output.obj
 0001:0002a820       ??0?$output_adapter_data@DV?$string_output_adapter@D@__crt_stdio_output@@@__crt_stdio_output@@IEAA@AEBV?$string_output_adapter@D@1@_KQEBDQEAU__crt_locale_pointers@@QEAD@Z 000000014002b820 f i libucrt:output.obj
 0001:0002a898       ??0?$output_adapter_data@_WV?$stream_output_adapter@_W@__crt_stdio_output@@@__crt_stdio_output@@IEAA@AEBV?$stream_output_adapter@_W@1@_KQEB_WQEAU__crt_locale_pointers@@QEAD@Z 000000014002b898 f i libucrt:output.obj
 0001:0002a914       ??0?$output_adapter_data@_WV?$string_output_adapter@_W@__crt_stdio_output@@@__crt_stdio_output@@IEAA@AEBV?$string_output_adapter@_W@1@_KQEB_WQEAU__crt_locale_pointers@@QEAD@Z 000000014002b914 f i libucrt:output.obj
 0001:0002a990       ??0?$output_processor@DV?$stream_output_adapter@D@__crt_stdio_output@@V?$format_validation_base@DV?$stream_output_adapter@D@__crt_stdio_output@@@2@@__crt_stdio_output@@QEAA@AEBV?$stream_output_adapter@D@1@_KQEBDQEAU__crt_locale_pointers@@QEAD@Z 000000014002b990 f i libucrt:output.obj
 0001:0002aa18       ??0?$output_processor@DV?$stream_output_adapter@D@__crt_stdio_output@@V?$positional_parameter_base@DV?$stream_output_adapter@D@__crt_stdio_output@@@2@@__crt_stdio_output@@QEAA@AEBV?$stream_output_adapter@D@1@_KQEBDQEAU__crt_locale_pointers@@QEAD@Z 000000014002ba18 f i libucrt:output.obj
 0001:0002aac4       ??0?$output_processor@DV?$stream_output_adapter@D@__crt_stdio_output@@V?$standard_base@DV?$stream_output_adapter@D@__crt_stdio_output@@@2@@__crt_stdio_output@@QEAA@AEBV?$stream_output_adapter@D@1@_KQEBDQEAU__crt_locale_pointers@@QEAD@Z 000000014002bac4 f i libucrt:output.obj
 0001:0002ab4c       ??0?$output_processor@DV?$string_output_adapter@D@__crt_stdio_output@@V?$format_validation_base@DV?$string_output_adapter@D@__crt_stdio_output@@@2@@__crt_stdio_output@@QEAA@AEBV?$string_output_adapter@D@1@_KQEBDQEAU__crt_locale_pointers@@QEAD@Z 000000014002bb4c f i libucrt:output.obj
 0001:0002abd4       ??0?$output_processor@DV?$string_output_adapter@D@__crt_stdio_output@@V?$positional_parameter_base@DV?$string_output_adapter@D@__crt_stdio_output@@@2@@__crt_stdio_output@@QEAA@AEBV?$string_output_adapter@D@1@_KQEBDQEAU__crt_locale_pointers@@QEAD@Z 000000014002bbd4 f i libucrt:output.obj
 0001:0002ac80       ??0?$output_processor@DV?$string_output_adapter@D@__crt_stdio_output@@V?$standard_base@DV?$string_output_adapter@D@__crt_stdio_output@@@2@@__crt_stdio_output@@QEAA@AEBV?$string_output_adapter@D@1@_KQEBDQEAU__crt_locale_pointers@@QEAD@Z 000000014002bc80 f i libucrt:output.obj
 0001:0002ad08       ??0?$output_processor@_WV?$stream_output_adapter@_W@__crt_stdio_output@@V?$format_validation_base@_WV?$stream_output_adapter@_W@__crt_stdio_output@@@2@@__crt_stdio_output@@QEAA@AEBV?$stream_output_adapter@_W@1@_KQEB_WQEAU__crt_locale_pointers@@QEAD@Z 000000014002bd08 f i libucrt:output.obj
 0001:0002ad94       ??0?$output_processor@_WV?$stream_output_adapter@_W@__crt_stdio_output@@V?$positional_parameter_base@_WV?$stream_output_adapter@_W@__crt_stdio_output@@@2@@__crt_stdio_output@@QEAA@AEBV?$stream_output_adapter@_W@1@_KQEB_WQEAU__crt_locale_pointers@@QEAD@Z 000000014002bd94 f i libucrt:output.obj
 0001:0002ae44       ??0?$output_processor@_WV?$stream_output_adapter@_W@__crt_stdio_output@@V?$standard_base@_WV?$stream_output_adapter@_W@__crt_stdio_output@@@2@@__crt_stdio_output@@QEAA@AEBV?$stream_output_adapter@_W@1@_KQEB_WQEAU__crt_locale_pointers@@QEAD@Z 000000014002be44 f i libucrt:output.obj
 0001:0002aed0       ??0?$output_processor@_WV?$string_output_adapter@_W@__crt_stdio_output@@V?$format_validation_base@_WV?$string_output_adapter@_W@__crt_stdio_output@@@2@@__crt_stdio_output@@QEAA@AEBV?$string_output_adapter@_W@1@_KQEB_WQEAU__crt_locale_pointers@@QEAD@Z 000000014002bed0 f i libucrt:output.obj
 0001:0002af5c       ??0?$output_processor@_WV?$string_output_adapter@_W@__crt_stdio_output@@V?$positional_parameter_base@_WV?$string_output_adapter@_W@__crt_stdio_output@@@2@@__crt_stdio_output@@QEAA@AEBV?$string_output_adapter@_W@1@_KQEB_WQEAU__crt_locale_pointers@@QEAD@Z 000000014002bf5c f i libucrt:output.obj
 0001:0002b00c       ??0?$output_processor@_WV?$string_output_adapter@_W@__crt_stdio_output@@V?$standard_base@_WV?$string_output_adapter@_W@__crt_stdio_output@@@2@@__crt_stdio_output@@QEAA@AEBV?$string_output_adapter@_W@1@_KQEB_WQEAU__crt_locale_pointers@@QEAD@Z 000000014002c00c f i libucrt:output.obj
 0001:0002b098       ??0?$stream_output_adapter@D@__crt_stdio_output@@QEAA@QEAU_iobuf@@@Z 000000014002c098 f i libucrt:output.obj
 0001:0002b0a0       ??0?$stream_output_adapter@_W@__crt_stdio_output@@QEAA@QEAU_iobuf@@@Z 000000014002c0a0 f i libucrt:output.obj
 0001:0002b0a8       ??0?$string_output_adapter@D@__crt_stdio_output@@QEAA@QEAU?$string_output_adapter_context@D@1@@Z 000000014002c0a8 f i libucrt:output.obj
 0001:0002b0b0       ??0?$string_output_adapter@_W@__crt_stdio_output@@QEAA@QEAU?$string_output_adapter_context@_W@1@@Z 000000014002c0b0 f i libucrt:output.obj
 0001:0002b0b8       ??0_LocaleUpdate@@QEAA@QEAU__crt_locale_pointers@@@Z 000000014002c0b8 f i libucrt:output.obj
 0001:0002b17c       ??0__acrt_stdio_temporary_buffering_guard@@QEAA@QEAU_iobuf@@@Z 000000014002c17c f i libucrt:output.obj
 0001:0002b1a4       ??0__crt_deferred_errno_cache@@QEAA@XZ 000000014002c1a4 f i libucrt:output.obj
 0001:0002b1b0       ??0__crt_errno_guard@@QEAA@QEAH@Z 000000014002c1b0 f i libucrt:output.obj
 0001:0002b1c4       ??0__crt_stdio_stream@@QEAA@QEAU_iobuf@@@Z 000000014002c1c4 f i libucrt:output.obj
 0001:0002b1d0       ??0formatting_buffer@__crt_stdio_output@@QEAA@XZ 000000014002c1d0 f i libucrt:output.obj
 0001:0002b1ec       ??1?$common_data@D@__crt_stdio_output@@QEAA@XZ 000000014002c1ec f i libucrt:output.obj
 0001:0002b218       ??1?$common_data@_W@__crt_stdio_output@@QEAA@XZ 000000014002c218 f i libucrt:output.obj
 0001:0002b244       ??1?$format_validation_base@DV?$stream_output_adapter@D@__crt_stdio_output@@@__crt_stdio_output@@QEAA@XZ 000000014002c244 f i libucrt:output.obj
 0001:0002b270       ??1?$format_validation_base@DV?$string_output_adapter@D@__crt_stdio_output@@@__crt_stdio_output@@QEAA@XZ 000000014002c270 f i libucrt:output.obj
 0001:0002b29c       ??1?$format_validation_base@_WV?$stream_output_adapter@_W@__crt_stdio_output@@@__crt_stdio_output@@QEAA@XZ 000000014002c29c f i libucrt:output.obj
 0001:0002b2c8       ??1?$format_validation_base@_WV?$string_output_adapter@_W@__crt_stdio_output@@@__crt_stdio_output@@QEAA@XZ 000000014002c2c8 f i libucrt:output.obj
 0001:0002b2f4       ??1?$output_adapter_data@DV?$stream_output_adapter@D@__crt_stdio_output@@@__crt_stdio_output@@QEAA@XZ 000000014002c2f4 f i libucrt:output.obj
 0001:0002b320       ??1?$output_adapter_data@DV?$string_output_adapter@D@__crt_stdio_output@@@__crt_stdio_output@@QEAA@XZ 000000014002c320 f i libucrt:output.obj
 0001:0002b34c       ??1?$output_adapter_data@_WV?$stream_output_adapter@_W@__crt_stdio_output@@@__crt_stdio_output@@QEAA@XZ 000000014002c34c f i libucrt:output.obj
 0001:0002b378       ??1?$output_adapter_data@_WV?$string_output_adapter@_W@__crt_stdio_output@@@__crt_stdio_output@@QEAA@XZ 000000014002c378 f i libucrt:output.obj
 0001:0002b3a4       ??1?$output_processor@DV?$stream_output_adapter@D@__crt_stdio_output@@V?$format_validation_base@DV?$stream_output_adapter@D@__crt_stdio_output@@@2@@__crt_stdio_output@@QEAA@XZ 000000014002c3a4 f i libucrt:output.obj
 0001:0002b3d0       ??1?$output_processor@DV?$stream_output_adapter@D@__crt_stdio_output@@V?$positional_parameter_base@DV?$stream_output_adapter@D@__crt_stdio_output@@@2@@__crt_stdio_output@@QEAA@XZ 000000014002c3d0 f i libucrt:output.obj
 0001:0002b3fc       ??1?$output_processor@DV?$stream_output_adapter@D@__crt_stdio_output@@V?$standard_base@DV?$stream_output_adapter@D@__crt_stdio_output@@@2@@__crt_stdio_output@@QEAA@XZ 000000014002c3fc f i libucrt:output.obj
 0001:0002b428       ??1?$output_processor@DV?$string_output_adapter@D@__crt_stdio_output@@V?$format_validation_base@DV?$string_output_adapter@D@__crt_stdio_output@@@2@@__crt_stdio_output@@QEAA@XZ 000000014002c428 f i libucrt:output.obj
 0001:0002b454       ??1?$output_processor@DV?$string_output_adapter@D@__crt_stdio_output@@V?$positional_parameter_base@DV?$string_output_adapter@D@__crt_stdio_output@@@2@@__crt_stdio_output@@QEAA@XZ 000000014002c454 f i libucrt:output.obj
 0001:0002b480       ??1?$output_processor@DV?$string_output_adapter@D@__crt_stdio_output@@V?$standard_base@DV?$string_output_adapter@D@__crt_stdio_output@@@2@@__crt_stdio_output@@QEAA@XZ 000000014002c480 f i libucrt:output.obj
 0001:0002b4ac       ??1?$output_processor@_WV?$stream_output_adapter@_W@__crt_stdio_output@@V?$format_validation_base@_WV?$stream_output_adapter@_W@__crt_stdio_output@@@2@@__crt_stdio_output@@QEAA@XZ 000000014002c4ac f i libucrt:output.obj
 0001:0002b4d8       ??1?$output_processor@_WV?$stream_output_adapter@_W@__crt_stdio_output@@V?$positional_parameter_base@_WV?$stream_output_adapter@_W@__crt_stdio_output@@@2@@__crt_stdio_output@@QEAA@XZ 000000014002c4d8 f i libucrt:output.obj
 0001:0002b504       ??1?$output_processor@_WV?$stream_output_adapter@_W@__crt_stdio_output@@V?$standard_base@_WV?$stream_output_adapter@_W@__crt_stdio_output@@@2@@__crt_stdio_output@@QEAA@XZ 000000014002c504 f i libucrt:output.obj
 0001:0002b530       ??1?$output_processor@_WV?$string_output_adapter@_W@__crt_stdio_output@@V?$format_validation_base@_WV?$string_output_adapter@_W@__crt_stdio_output@@@2@@__crt_stdio_output@@QEAA@XZ 000000014002c530 f i libucrt:output.obj
 0001:0002b55c       ??1?$output_processor@_WV?$string_output_adapter@_W@__crt_stdio_output@@V?$positional_parameter_base@_WV?$string_output_adapter@_W@__crt_stdio_output@@@2@@__crt_stdio_output@@QEAA@XZ 000000014002c55c f i libucrt:output.obj
 0001:0002b588       ??1?$output_processor@_WV?$string_output_adapter@_W@__crt_stdio_output@@V?$standard_base@_WV?$string_output_adapter@_W@__crt_stdio_output@@@2@@__crt_stdio_output@@QEAA@XZ 000000014002c588 f i libucrt:output.obj
 0001:0002b5b4       ??1?$positional_parameter_base@DV?$stream_output_adapter@D@__crt_stdio_output@@@__crt_stdio_output@@QEAA@XZ 000000014002c5b4 f i libucrt:output.obj
 0001:0002b5e0       ??1?$positional_parameter_base@DV?$string_output_adapter@D@__crt_stdio_output@@@__crt_stdio_output@@QEAA@XZ 000000014002c5e0 f i libucrt:output.obj
 0001:0002b60c       ??1?$positional_parameter_base@_WV?$stream_output_adapter@_W@__crt_stdio_output@@@__crt_stdio_output@@QEAA@XZ 000000014002c60c f i libucrt:output.obj
 0001:0002b638       ??1?$positional_parameter_base@_WV?$string_output_adapter@_W@__crt_stdio_output@@@__crt_stdio_output@@QEAA@XZ 000000014002c638 f i libucrt:output.obj
 0001:0002b664       ??1?$standard_base@DV?$stream_output_adapter@D@__crt_stdio_output@@@__crt_stdio_output@@QEAA@XZ 000000014002c664 f i libucrt:output.obj
 0001:0002b690       ??1?$standard_base@DV?$string_output_adapter@D@__crt_stdio_output@@@__crt_stdio_output@@QEAA@XZ 000000014002c690 f i libucrt:output.obj
 0001:0002b6bc       ??1?$standard_base@_WV?$stream_output_adapter@_W@__crt_stdio_output@@@__crt_stdio_output@@QEAA@XZ 000000014002c6bc f i libucrt:output.obj
 0001:0002b6e8       ??1?$standard_base@_WV?$string_output_adapter@_W@__crt_stdio_output@@@__crt_stdio_output@@QEAA@XZ 000000014002c6e8 f i libucrt:output.obj
 0001:0002b714       ??1_LocaleUpdate@@QEAA@XZ  000000014002c714 f i libucrt:output.obj
 0001:0002b72c       ??1__acrt_stdio_temporary_buffering_guard@@QEAA@XZ 000000014002c72c f i libucrt:output.obj
 0001:0002b73c       ??1__crt_errno_guard@@QEAA@XZ 000000014002c73c f i libucrt:output.obj
 0001:0002b754       ??1formatting_buffer@__crt_stdio_output@@QEAA@XZ 000000014002c754 f i libucrt:output.obj
 0001:0002b780       ??4?$__crt_unique_heap_ptr@DU__crt_internal_free_policy@@@@QEAAAEAV0@$$QEAV0@@Z 000000014002c780 f i libucrt:output.obj
 0001:0002b7c4       ??A?$spectre_mitigated_lookup_table@Ustate_transition_pair@__crt_stdio_output@@$0IA@@__crt_stdio_output@@QEBAAEBUstate_transition_pair@1@_K@Z 000000014002c7c4 f i libucrt:output.obj
 0001:0002b7d0       ??C__crt_stdio_stream@@QEBAPEAU__crt_stdio_stream_data@@XZ 000000014002c7d0 f i libucrt:output.obj
 0001:0002c194       ?GetLocaleT@_LocaleUpdate@@QEAAPEAU__crt_locale_pointers@@XZ 000000014002d194 f i libucrt:output.obj
 0001:0002c19c       ?adjust_hexit@?$output_processor@DV?$stream_output_adapter@D@__crt_stdio_output@@V?$format_validation_base@DV?$stream_output_adapter@D@__crt_stdio_output@@@2@@__crt_stdio_output@@CADH_N@Z 000000014002d19c f i libucrt:output.obj
 0001:0002c1ac       ?adjust_hexit@?$output_processor@DV?$stream_output_adapter@D@__crt_stdio_output@@V?$positional_parameter_base@DV?$stream_output_adapter@D@__crt_stdio_output@@@2@@__crt_stdio_output@@CADH_N@Z 000000014002d1ac f i libucrt:output.obj
 0001:0002c1bc       ?adjust_hexit@?$output_processor@DV?$stream_output_adapter@D@__crt_stdio_output@@V?$standard_base@DV?$stream_output_adapter@D@__crt_stdio_output@@@2@@__crt_stdio_output@@CADH_N@Z 000000014002d1bc f i libucrt:output.obj
 0001:0002c1cc       ?adjust_hexit@?$output_processor@DV?$string_output_adapter@D@__crt_stdio_output@@V?$format_validation_base@DV?$string_output_adapter@D@__crt_stdio_output@@@2@@__crt_stdio_output@@CADH_N@Z 000000014002d1cc f i libucrt:output.obj
 0001:0002c1dc       ?adjust_hexit@?$output_processor@DV?$string_output_adapter@D@__crt_stdio_output@@V?$positional_parameter_base@DV?$string_output_adapter@D@__crt_stdio_output@@@2@@__crt_stdio_output@@CADH_N@Z 000000014002d1dc f i libucrt:output.obj
 0001:0002c1ec       ?adjust_hexit@?$output_processor@DV?$string_output_adapter@D@__crt_stdio_output@@V?$standard_base@DV?$string_output_adapter@D@__crt_stdio_output@@@2@@__crt_stdio_output@@CADH_N@Z 000000014002d1ec f i libucrt:output.obj
 0001:0002c1fc       ?adjust_hexit@?$output_processor@_WV?$stream_output_adapter@_W@__crt_stdio_output@@V?$format_validation_base@_WV?$stream_output_adapter@_W@__crt_stdio_output@@@2@@__crt_stdio_output@@CADH_N@Z 000000014002d1fc f i libucrt:output.obj
 0001:0002c20c       ?adjust_hexit@?$output_processor@_WV?$stream_output_adapter@_W@__crt_stdio_output@@V?$positional_parameter_base@_WV?$stream_output_adapter@_W@__crt_stdio_output@@@2@@__crt_stdio_output@@CADH_N@Z 000000014002d20c f i libucrt:output.obj
 0001:0002c21c       ?adjust_hexit@?$output_processor@_WV?$stream_output_adapter@_W@__crt_stdio_output@@V?$standard_base@_WV?$stream_output_adapter@_W@__crt_stdio_output@@@2@@__crt_stdio_output@@CADH_N@Z 000000014002d21c f i libucrt:output.obj
 0001:0002c22c       ?adjust_hexit@?$output_processor@_WV?$string_output_adapter@_W@__crt_stdio_output@@V?$format_validation_base@_WV?$string_output_adapter@_W@__crt_stdio_output@@@2@@__crt_stdio_output@@CADH_N@Z 000000014002d22c f i libucrt:output.obj
 0001:0002c23c       ?adjust_hexit@?$output_processor@_WV?$string_output_adapter@_W@__crt_stdio_output@@V?$positional_parameter_base@_WV?$string_output_adapter@_W@__crt_stdio_output@@@2@@__crt_stdio_output@@CADH_N@Z 000000014002d23c f i libucrt:output.obj
 0001:0002c24c       ?adjust_hexit@?$output_processor@_WV?$string_output_adapter@_W@__crt_stdio_output@@V?$standard_base@_WV?$string_output_adapter@_W@__crt_stdio_output@@@2@@__crt_stdio_output@@CADH_N@Z 000000014002d24c f i libucrt:output.obj
 0001:0002c25c       ?advance_to_next_pass@?$positional_parameter_base@DV?$stream_output_adapter@D@__crt_stdio_output@@@__crt_stdio_output@@IEAA_NXZ 000000014002d25c f i libucrt:output.obj
 0001:0002c2c0       ?advance_to_next_pass@?$positional_parameter_base@DV?$string_output_adapter@D@__crt_stdio_output@@@__crt_stdio_output@@IEAA_NXZ 000000014002d2c0 f i libucrt:output.obj
 0001:0002c324       ?advance_to_next_pass@?$positional_parameter_base@_WV?$stream_output_adapter@_W@__crt_stdio_output@@@__crt_stdio_output@@IEAA_NXZ 000000014002d324 f i libucrt:output.obj
 0001:0002c388       ?advance_to_next_pass@?$positional_parameter_base@_WV?$string_output_adapter@_W@__crt_stdio_output@@@__crt_stdio_output@@IEAA_NXZ 000000014002d388 f i libucrt:output.obj
 0001:0002c3ec       ?advance_to_next_pass@?$standard_base@DV?$stream_output_adapter@D@__crt_stdio_output@@@__crt_stdio_output@@IEAA_NXZ 000000014002d3ec f i libucrt:output.obj
 0001:0002c404       ?advance_to_next_pass@?$standard_base@DV?$string_output_adapter@D@__crt_stdio_output@@@__crt_stdio_output@@IEAA_NXZ 000000014002d404 f i libucrt:output.obj
 0001:0002c41c       ?advance_to_next_pass@?$standard_base@_WV?$stream_output_adapter@_W@__crt_stdio_output@@@__crt_stdio_output@@IEAA_NXZ 000000014002d41c f i libucrt:output.obj
 0001:0002c434       ?advance_to_next_pass@?$standard_base@_WV?$string_output_adapter@_W@__crt_stdio_output@@@__crt_stdio_output@@IEAA_NXZ 000000014002d434 f i libucrt:output.obj
 0001:0002c450       ?crop_zeroes@__crt_stdio_output@@YAXPEADQEAU__crt_locale_pointers@@@Z 000000014002d450 f i libucrt:output.obj
 0001:0002c508       ?find_next_state@?$output_processor@DV?$stream_output_adapter@D@__crt_stdio_output@@V?$format_validation_base@DV?$stream_output_adapter@D@__crt_stdio_output@@@2@@__crt_stdio_output@@AEBA?AW4state@2@DW432@@Z 000000014002d508 f i libucrt:output.obj
 0001:0002c544       ?find_next_state@?$output_processor@DV?$stream_output_adapter@D@__crt_stdio_output@@V?$positional_parameter_base@DV?$stream_output_adapter@D@__crt_stdio_output@@@2@@__crt_stdio_output@@AEBA?AW4state@2@DW432@@Z 000000014002d544 f i libucrt:output.obj
 0001:0002c580       ?find_next_state@?$output_processor@DV?$stream_output_adapter@D@__crt_stdio_output@@V?$standard_base@DV?$stream_output_adapter@D@__crt_stdio_output@@@2@@__crt_stdio_output@@AEBA?AW4state@2@DW432@@Z 000000014002d580 f i libucrt:output.obj
 0001:0002c5bc       ?find_next_state@?$output_processor@DV?$string_output_adapter@D@__crt_stdio_output@@V?$format_validation_base@DV?$string_output_adapter@D@__crt_stdio_output@@@2@@__crt_stdio_output@@AEBA?AW4state@2@DW432@@Z 000000014002d5bc f i libucrt:output.obj
 0001:0002c5f8       ?find_next_state@?$output_processor@DV?$string_output_adapter@D@__crt_stdio_output@@V?$positional_parameter_base@DV?$string_output_adapter@D@__crt_stdio_output@@@2@@__crt_stdio_output@@AEBA?AW4state@2@DW432@@Z 000000014002d5f8 f i libucrt:output.obj
 0001:0002c634       ?find_next_state@?$output_processor@DV?$string_output_adapter@D@__crt_stdio_output@@V?$standard_base@DV?$string_output_adapter@D@__crt_stdio_output@@@2@@__crt_stdio_output@@AEBA?AW4state@2@DW432@@Z 000000014002d634 f i libucrt:output.obj
 0001:0002c670       ?find_next_state@?$output_processor@_WV?$stream_output_adapter@_W@__crt_stdio_output@@V?$format_validation_base@_WV?$stream_output_adapter@_W@__crt_stdio_output@@@2@@__crt_stdio_output@@AEBA?AW4state@2@_WW432@@Z 000000014002d670 f i libucrt:output.obj
 0001:0002c6b8       ?find_next_state@?$output_processor@_WV?$stream_output_adapter@_W@__crt_stdio_output@@V?$positional_parameter_base@_WV?$stream_output_adapter@_W@__crt_stdio_output@@@2@@__crt_stdio_output@@AEBA?AW4state@2@_WW432@@Z 000000014002d6b8 f i libucrt:output.obj
 0001:0002c700       ?find_next_state@?$output_processor@_WV?$stream_output_adapter@_W@__crt_stdio_output@@V?$standard_base@_WV?$stream_output_adapter@_W@__crt_stdio_output@@@2@@__crt_stdio_output@@AEBA?AW4state@2@_WW432@@Z 000000014002d700 f i libucrt:output.obj
 0001:0002c744       ?find_next_state@?$output_processor@_WV?$string_output_adapter@_W@__crt_stdio_output@@V?$format_validation_base@_WV?$string_output_adapter@_W@__crt_stdio_output@@@2@@__crt_stdio_output@@AEBA?AW4state@2@_WW432@@Z 000000014002d744 f i libucrt:output.obj
 0001:0002c78c       ?find_next_state@?$output_processor@_WV?$string_output_adapter@_W@__crt_stdio_output@@V?$positional_parameter_base@_WV?$string_output_adapter@_W@__crt_stdio_output@@@2@@__crt_stdio_output@@AEBA?AW4state@2@_WW432@@Z 000000014002d78c f i libucrt:output.obj
 0001:0002c7d4       ?find_next_state@?$output_processor@_WV?$string_output_adapter@_W@__crt_stdio_output@@V?$standard_base@_WV?$string_output_adapter@_W@__crt_stdio_output@@@2@@__crt_stdio_output@@AEBA?AW4state@2@_WW432@@Z 000000014002d7d4 f i libucrt:output.obj
 0001:0002c820       ?force_decimal_point@__crt_stdio_output@@YAXPEADQEAU__crt_locale_pointers@@@Z 000000014002d820 f i libucrt:output.obj
 0001:0002c8b4       ?get@__crt_deferred_errno_cache@@QEAAAEAHXZ 000000014002d8b4 f i libucrt:output.obj
 0001:0002c8dc       ?get_flags@__crt_stdio_stream@@QEBAJXZ 000000014002d8dc f i libucrt:output.obj
 0001:0002c8e4       ?get_parameter_type@?$positional_parameter_base@DV?$stream_output_adapter@D@__crt_stdio_output@@@__crt_stdio_output@@CA?AW4parameter_type@12@F@Z 000000014002d8e4 f i libucrt:output.obj
 0001:0002c8ec       ?get_parameter_type@?$positional_parameter_base@DV?$stream_output_adapter@D@__crt_stdio_output@@@__crt_stdio_output@@CA?AW4parameter_type@12@G@Z 000000014002d8ec f i libucrt:output.obj
 0001:0002c8f4       ?get_parameter_type@?$positional_parameter_base@DV?$stream_output_adapter@D@__crt_stdio_output@@@__crt_stdio_output@@CA?AW4parameter_type@12@H@Z 000000014002d8f4 f i libucrt:output.obj
 0001:0002c8fc       ?get_parameter_type@?$positional_parameter_base@DV?$stream_output_adapter@D@__crt_stdio_output@@@__crt_stdio_output@@CA?AW4parameter_type@12@I@Z 000000014002d8fc f i libucrt:output.obj
 0001:0002c904       ?get_parameter_type@?$positional_parameter_base@DV?$stream_output_adapter@D@__crt_stdio_output@@@__crt_stdio_output@@CA?AW4parameter_type@12@U_CRT_DOUBLE@@@Z 000000014002d904 f i libucrt:output.obj
 0001:0002c90c       ?get_parameter_type@?$positional_parameter_base@DV?$stream_output_adapter@D@__crt_stdio_output@@@__crt_stdio_output@@CA?AW4parameter_type@12@_J@Z 000000014002d90c f i libucrt:output.obj
 0001:0002c914       ?get_parameter_type@?$positional_parameter_base@DV?$stream_output_adapter@D@__crt_stdio_output@@@__crt_stdio_output@@CA?AW4parameter_type@12@_K@Z 000000014002d914 f i libucrt:output.obj
 0001:0002c91c       ?get_parameter_type@?$positional_parameter_base@DV?$stream_output_adapter@D@__crt_stdio_output@@@__crt_stdio_output@@CA?AW4parameter_type@12@_W@Z 000000014002d91c f i libucrt:output.obj
 0001:0002c924       ?get_parameter_type@?$positional_parameter_base@DV?$string_output_adapter@D@__crt_stdio_output@@@__crt_stdio_output@@CA?AW4parameter_type@12@F@Z 000000014002d924 f i libucrt:output.obj
 0001:0002c92c       ?get_parameter_type@?$positional_parameter_base@DV?$string_output_adapter@D@__crt_stdio_output@@@__crt_stdio_output@@CA?AW4parameter_type@12@G@Z 000000014002d92c f i libucrt:output.obj
 0001:0002c934       ?get_parameter_type@?$positional_parameter_base@DV?$string_output_adapter@D@__crt_stdio_output@@@__crt_stdio_output@@CA?AW4parameter_type@12@H@Z 000000014002d934 f i libucrt:output.obj
 0001:0002c93c       ?get_parameter_type@?$positional_parameter_base@DV?$string_output_adapter@D@__crt_stdio_output@@@__crt_stdio_output@@CA?AW4parameter_type@12@I@Z 000000014002d93c f i libucrt:output.obj
 0001:0002c944       ?get_parameter_type@?$positional_parameter_base@DV?$string_output_adapter@D@__crt_stdio_output@@@__crt_stdio_output@@CA?AW4parameter_type@12@U_CRT_DOUBLE@@@Z 000000014002d944 f i libucrt:output.obj
 0001:0002c94c       ?get_parameter_type@?$positional_parameter_base@DV?$string_output_adapter@D@__crt_stdio_output@@@__crt_stdio_output@@CA?AW4parameter_type@12@_J@Z 000000014002d94c f i libucrt:output.obj
 0001:0002c954       ?get_parameter_type@?$positional_parameter_base@DV?$string_output_adapter@D@__crt_stdio_output@@@__crt_stdio_output@@CA?AW4parameter_type@12@_K@Z 000000014002d954 f i libucrt:output.obj
 0001:0002c95c       ?get_parameter_type@?$positional_parameter_base@DV?$string_output_adapter@D@__crt_stdio_output@@@__crt_stdio_output@@CA?AW4parameter_type@12@_W@Z 000000014002d95c f i libucrt:output.obj
 0001:0002c964       ?get_parameter_type@?$positional_parameter_base@_WV?$stream_output_adapter@_W@__crt_stdio_output@@@__crt_stdio_output@@CA?AW4parameter_type@12@F@Z 000000014002d964 f i libucrt:output.obj
 0001:0002c96c       ?get_parameter_type@?$positional_parameter_base@_WV?$stream_output_adapter@_W@__crt_stdio_output@@@__crt_stdio_output@@CA?AW4parameter_type@12@G@Z 000000014002d96c f i libucrt:output.obj
 0001:0002c974       ?get_parameter_type@?$positional_parameter_base@_WV?$stream_output_adapter@_W@__crt_stdio_output@@@__crt_stdio_output@@CA?AW4parameter_type@12@H@Z 000000014002d974 f i libucrt:output.obj
 0001:0002c97c       ?get_parameter_type@?$positional_parameter_base@_WV?$stream_output_adapter@_W@__crt_stdio_output@@@__crt_stdio_output@@CA?AW4parameter_type@12@I@Z 000000014002d97c f i libucrt:output.obj
 0001:0002c984       ?get_parameter_type@?$positional_parameter_base@_WV?$stream_output_adapter@_W@__crt_stdio_output@@@__crt_stdio_output@@CA?AW4parameter_type@12@U_CRT_DOUBLE@@@Z 000000014002d984 f i libucrt:output.obj
 0001:0002c98c       ?get_parameter_type@?$positional_parameter_base@_WV?$stream_output_adapter@_W@__crt_stdio_output@@@__crt_stdio_output@@CA?AW4parameter_type@12@_J@Z 000000014002d98c f i libucrt:output.obj
 0001:0002c994       ?get_parameter_type@?$positional_parameter_base@_WV?$stream_output_adapter@_W@__crt_stdio_output@@@__crt_stdio_output@@CA?AW4parameter_type@12@_K@Z 000000014002d994 f i libucrt:output.obj
 0001:0002c99c       ?get_parameter_type@?$positional_parameter_base@_WV?$stream_output_adapter@_W@__crt_stdio_output@@@__crt_stdio_output@@CA?AW4parameter_type@12@_W@Z 000000014002d99c f i libucrt:output.obj
 0001:0002c9a4       ?get_parameter_type@?$positional_parameter_base@_WV?$string_output_adapter@_W@__crt_stdio_output@@@__crt_stdio_output@@CA?AW4parameter_type@12@F@Z 000000014002d9a4 f i libucrt:output.obj
 0001:0002c9ac       ?get_parameter_type@?$positional_parameter_base@_WV?$string_output_adapter@_W@__crt_stdio_output@@@__crt_stdio_output@@CA?AW4parameter_type@12@G@Z 000000014002d9ac f i libucrt:output.obj
 0001:0002c9b4       ?get_parameter_type@?$positional_parameter_base@_WV?$string_output_adapter@_W@__crt_stdio_output@@@__crt_stdio_output@@CA?AW4parameter_type@12@H@Z 000000014002d9b4 f i libucrt:output.obj
 0001:0002c9bc       ?get_parameter_type@?$positional_parameter_base@_WV?$string_output_adapter@_W@__crt_stdio_output@@@__crt_stdio_output@@CA?AW4parameter_type@12@I@Z 000000014002d9bc f i libucrt:output.obj
 0001:0002c9c4       ?get_parameter_type@?$positional_parameter_base@_WV?$string_output_adapter@_W@__crt_stdio_output@@@__crt_stdio_output@@CA?AW4parameter_type@12@U_CRT_DOUBLE@@@Z 000000014002d9c4 f i libucrt:output.obj
 0001:0002c9cc       ?get_parameter_type@?$positional_parameter_base@_WV?$string_output_adapter@_W@__crt_stdio_output@@@__crt_stdio_output@@CA?AW4parameter_type@12@_J@Z 000000014002d9cc f i libucrt:output.obj
 0001:0002c9d4       ?get_parameter_type@?$positional_parameter_base@_WV?$string_output_adapter@_W@__crt_stdio_output@@@__crt_stdio_output@@CA?AW4parameter_type@12@_K@Z 000000014002d9d4 f i libucrt:output.obj
 0001:0002c9dc       ?get_parameter_type@?$positional_parameter_base@_WV?$string_output_adapter@_W@__crt_stdio_output@@@__crt_stdio_output@@CA?AW4parameter_type@12@_W@Z 000000014002d9dc f i libucrt:output.obj
 0001:0002c9e4       ?has_flag@?$output_processor@DV?$stream_output_adapter@D@__crt_stdio_output@@V?$format_validation_base@DV?$stream_output_adapter@D@__crt_stdio_output@@@2@@__crt_stdio_output@@AEBA_NI@Z 000000014002d9e4 f i libucrt:output.obj
 0001:0002c9ec       ?has_flag@?$output_processor@DV?$stream_output_adapter@D@__crt_stdio_output@@V?$positional_parameter_base@DV?$stream_output_adapter@D@__crt_stdio_output@@@2@@__crt_stdio_output@@AEBA_NI@Z 000000014002d9ec f i libucrt:output.obj
 0001:0002c9f4       ?has_flag@?$output_processor@DV?$stream_output_adapter@D@__crt_stdio_output@@V?$standard_base@DV?$stream_output_adapter@D@__crt_stdio_output@@@2@@__crt_stdio_output@@AEBA_NI@Z 000000014002d9f4 f i libucrt:output.obj
 0001:0002c9fc       ?has_flag@?$output_processor@DV?$string_output_adapter@D@__crt_stdio_output@@V?$format_validation_base@DV?$string_output_adapter@D@__crt_stdio_output@@@2@@__crt_stdio_output@@AEBA_NI@Z 000000014002d9fc f i libucrt:output.obj
 0001:0002ca04       ?has_flag@?$output_processor@DV?$string_output_adapter@D@__crt_stdio_output@@V?$positional_parameter_base@DV?$string_output_adapter@D@__crt_stdio_output@@@2@@__crt_stdio_output@@AEBA_NI@Z 000000014002da04 f i libucrt:output.obj
 0001:0002ca0c       ?has_flag@?$output_processor@DV?$string_output_adapter@D@__crt_stdio_output@@V?$standard_base@DV?$string_output_adapter@D@__crt_stdio_output@@@2@@__crt_stdio_output@@AEBA_NI@Z 000000014002da0c f i libucrt:output.obj
 0001:0002ca14       ?has_flag@?$output_processor@_WV?$stream_output_adapter@_W@__crt_stdio_output@@V?$format_validation_base@_WV?$stream_output_adapter@_W@__crt_stdio_output@@@2@@__crt_stdio_output@@AEBA_NI@Z 000000014002da14 f i libucrt:output.obj
 0001:0002ca1c       ?has_flag@?$output_processor@_WV?$stream_output_adapter@_W@__crt_stdio_output@@V?$positional_parameter_base@_WV?$stream_output_adapter@_W@__crt_stdio_output@@@2@@__crt_stdio_output@@AEBA_NI@Z 000000014002da1c f i libucrt:output.obj
 0001:0002ca24       ?has_flag@?$output_processor@_WV?$stream_output_adapter@_W@__crt_stdio_output@@V?$standard_base@_WV?$stream_output_adapter@_W@__crt_stdio_output@@@2@@__crt_stdio_output@@AEBA_NI@Z 000000014002da24 f i libucrt:output.obj
 0001:0002ca2c       ?has_flag@?$output_processor@_WV?$string_output_adapter@_W@__crt_stdio_output@@V?$format_validation_base@_WV?$string_output_adapter@_W@__crt_stdio_output@@@2@@__crt_stdio_output@@AEBA_NI@Z 000000014002da2c f i libucrt:output.obj
 0001:0002ca34       ?has_flag@?$output_processor@_WV?$string_output_adapter@_W@__crt_stdio_output@@V?$positional_parameter_base@_WV?$string_output_adapter@_W@__crt_stdio_output@@@2@@__crt_stdio_output@@AEBA_NI@Z 000000014002da34 f i libucrt:output.obj
 0001:0002ca3c       ?has_flag@?$output_processor@_WV?$string_output_adapter@_W@__crt_stdio_output@@V?$standard_base@_WV?$string_output_adapter@_W@__crt_stdio_output@@@2@@__crt_stdio_output@@AEBA_NI@Z 000000014002da3c f i libucrt:output.obj
 0001:0002ca44       ?is_positional_parameter_reappearance_consistent@?$positional_parameter_base@DV?$stream_output_adapter@D@__crt_stdio_output@@@__crt_stdio_output@@AEAA_NAEBUparameter_data@12@W4parameter_type@12@DW4length_modifier@2@@Z 000000014002da44 f i libucrt:output.obj
 0001:0002cc4c       ?is_positional_parameter_reappearance_consistent@?$positional_parameter_base@DV?$string_output_adapter@D@__crt_stdio_output@@@__crt_stdio_output@@AEAA_NAEBUparameter_data@12@W4parameter_type@12@DW4length_modifier@2@@Z 000000014002dc4c f i libucrt:output.obj
 0001:0002ce54       ?is_positional_parameter_reappearance_consistent@?$positional_parameter_base@_WV?$stream_output_adapter@_W@__crt_stdio_output@@@__crt_stdio_output@@AEAA_NAEBUparameter_data@12@W4parameter_type@12@_WW4length_modifier@2@@Z 000000014002de54 f i libucrt:output.obj
 0001:0002d01c       ?is_positional_parameter_reappearance_consistent@?$positional_parameter_base@_WV?$string_output_adapter@_W@__crt_stdio_output@@@__crt_stdio_output@@AEAA_NAEBUparameter_data@12@W4parameter_type@12@_WW4length_modifier@2@@Z 000000014002e01c f i libucrt:output.obj
 0001:0002d1e4       ?is_string_backed@__crt_stdio_stream@@QEBA_NXZ 000000014002e1e4 f i libucrt:output.obj
 0001:0002d1f4       ?narrow_null_string@?$output_processor@DV?$stream_output_adapter@D@__crt_stdio_output@@V?$format_validation_base@DV?$stream_output_adapter@D@__crt_stdio_output@@@2@@__crt_stdio_output@@CAPEADXZ 000000014002e1f4 f i libucrt:output.obj
 0001:0002d200       ?narrow_null_string@?$output_processor@DV?$stream_output_adapter@D@__crt_stdio_output@@V?$positional_parameter_base@DV?$stream_output_adapter@D@__crt_stdio_output@@@2@@__crt_stdio_output@@CAPEADXZ 000000014002e200 f i libucrt:output.obj
 0001:0002d20c       ?narrow_null_string@?$output_processor@DV?$stream_output_adapter@D@__crt_stdio_output@@V?$standard_base@DV?$stream_output_adapter@D@__crt_stdio_output@@@2@@__crt_stdio_output@@CAPEADXZ 000000014002e20c f i libucrt:output.obj
 0001:0002d218       ?narrow_null_string@?$output_processor@DV?$string_output_adapter@D@__crt_stdio_output@@V?$format_validation_base@DV?$string_output_adapter@D@__crt_stdio_output@@@2@@__crt_stdio_output@@CAPEADXZ 000000014002e218 f i libucrt:output.obj
 0001:0002d224       ?narrow_null_string@?$output_processor@DV?$string_output_adapter@D@__crt_stdio_output@@V?$positional_parameter_base@DV?$string_output_adapter@D@__crt_stdio_output@@@2@@__crt_stdio_output@@CAPEADXZ 000000014002e224 f i libucrt:output.obj
 0001:0002d230       ?narrow_null_string@?$output_processor@DV?$string_output_adapter@D@__crt_stdio_output@@V?$standard_base@DV?$string_output_adapter@D@__crt_stdio_output@@@2@@__crt_stdio_output@@CAPEADXZ 000000014002e230 f i libucrt:output.obj
 0001:0002d23c       ?narrow_null_string@?$output_processor@_WV?$stream_output_adapter@_W@__crt_stdio_output@@V?$format_validation_base@_WV?$stream_output_adapter@_W@__crt_stdio_output@@@2@@__crt_stdio_output@@CAPEADXZ 000000014002e23c f i libucrt:output.obj
 0001:0002d248       ?narrow_null_string@?$output_processor@_WV?$stream_output_adapter@_W@__crt_stdio_output@@V?$positional_parameter_base@_WV?$stream_output_adapter@_W@__crt_stdio_output@@@2@@__crt_stdio_output@@CAPEADXZ 000000014002e248 f i libucrt:output.obj
 0001:0002d254       ?narrow_null_string@?$output_processor@_WV?$stream_output_adapter@_W@__crt_stdio_output@@V?$standard_base@_WV?$stream_output_adapter@_W@__crt_stdio_output@@@2@@__crt_stdio_output@@CAPEADXZ 000000014002e254 f i libucrt:output.obj
 0001:0002d260       ?narrow_null_string@?$output_processor@_WV?$string_output_adapter@_W@__crt_stdio_output@@V?$format_validation_base@_WV?$string_output_adapter@_W@__crt_stdio_output@@@2@@__crt_stdio_output@@CAPEADXZ 000000014002e260 f i libucrt:output.obj
 0001:0002d26c       ?narrow_null_string@?$output_processor@_WV?$string_output_adapter@_W@__crt_stdio_output@@V?$positional_parameter_base@_WV?$string_output_adapter@_W@__crt_stdio_output@@@2@@__crt_stdio_output@@CAPEADXZ 000000014002e26c f i libucrt:output.obj
 0001:0002d278       ?narrow_null_string@?$output_processor@_WV?$string_output_adapter@_W@__crt_stdio_output@@V?$standard_base@_WV?$string_output_adapter@_W@__crt_stdio_output@@@2@@__crt_stdio_output@@CAPEADXZ 000000014002e278 f i libucrt:output.obj
 0001:0002d284       ?parse_int_from_format_string@?$output_processor@DV?$stream_output_adapter@D@__crt_stdio_output@@V?$format_validation_base@DV?$stream_output_adapter@D@__crt_stdio_output@@@2@@__crt_stdio_output@@AEAA_NQEAH@Z 000000014002e284 f i libucrt:output.obj
 0001:0002d350       ?parse_int_from_format_string@?$output_processor@DV?$stream_output_adapter@D@__crt_stdio_output@@V?$positional_parameter_base@DV?$stream_output_adapter@D@__crt_stdio_output@@@2@@__crt_stdio_output@@AEAA_NQEAH@Z 000000014002e350 f i libucrt:output.obj
 0001:0002d41c       ?parse_int_from_format_string@?$output_processor@DV?$stream_output_adapter@D@__crt_stdio_output@@V?$standard_base@DV?$stream_output_adapter@D@__crt_stdio_output@@@2@@__crt_stdio_output@@AEAA_NQEAH@Z 000000014002e41c f i libucrt:output.obj
 0001:0002d4e8       ?parse_int_from_format_string@?$output_processor@DV?$string_output_adapter@D@__crt_stdio_output@@V?$format_validation_base@DV?$string_output_adapter@D@__crt_stdio_output@@@2@@__crt_stdio_output@@AEAA_NQEAH@Z 000000014002e4e8 f i libucrt:output.obj
 0001:0002d5b4       ?parse_int_from_format_string@?$output_processor@DV?$string_output_adapter@D@__crt_stdio_output@@V?$positional_parameter_base@DV?$string_output_adapter@D@__crt_stdio_output@@@2@@__crt_stdio_output@@AEAA_NQEAH@Z 000000014002e5b4 f i libucrt:output.obj
 0001:0002d680       ?parse_int_from_format_string@?$output_processor@DV?$string_output_adapter@D@__crt_stdio_output@@V?$standard_base@DV?$string_output_adapter@D@__crt_stdio_output@@@2@@__crt_stdio_output@@AEAA_NQEAH@Z 000000014002e680 f i libucrt:output.obj
 0001:0002d74c       ?parse_int_from_format_string@?$output_processor@_WV?$stream_output_adapter@_W@__crt_stdio_output@@V?$format_validation_base@_WV?$stream_output_adapter@_W@__crt_stdio_output@@@2@@__crt_stdio_output@@AEAA_NQEAH@Z 000000014002e74c f i libucrt:output.obj
 0001:0002d818       ?parse_int_from_format_string@?$output_processor@_WV?$stream_output_adapter@_W@__crt_stdio_output@@V?$positional_parameter_base@_WV?$stream_output_adapter@_W@__crt_stdio_output@@@2@@__crt_stdio_output@@AEAA_NQEAH@Z 000000014002e818 f i libucrt:output.obj
 0001:0002d8e4       ?parse_int_from_format_string@?$output_processor@_WV?$stream_output_adapter@_W@__crt_stdio_output@@V?$standard_base@_WV?$stream_output_adapter@_W@__crt_stdio_output@@@2@@__crt_stdio_output@@AEAA_NQEAH@Z 000000014002e8e4 f i libucrt:output.obj
 0001:0002d9b0       ?parse_int_from_format_string@?$output_processor@_WV?$string_output_adapter@_W@__crt_stdio_output@@V?$format_validation_base@_WV?$string_output_adapter@_W@__crt_stdio_output@@@2@@__crt_stdio_output@@AEAA_NQEAH@Z 000000014002e9b0 f i libucrt:output.obj
 0001:0002da7c       ?parse_int_from_format_string@?$output_processor@_WV?$string_output_adapter@_W@__crt_stdio_output@@V?$positional_parameter_base@_WV?$string_output_adapter@_W@__crt_stdio_output@@@2@@__crt_stdio_output@@AEAA_NQEAH@Z 000000014002ea7c f i libucrt:output.obj
 0001:0002db48       ?parse_int_from_format_string@?$output_processor@_WV?$string_output_adapter@_W@__crt_stdio_output@@V?$standard_base@_WV?$string_output_adapter@_W@__crt_stdio_output@@@2@@__crt_stdio_output@@AEAA_NQEAH@Z 000000014002eb48 f i libucrt:output.obj
 0001:0002dc14       ?process@?$output_processor@DV?$stream_output_adapter@D@__crt_stdio_output@@V?$format_validation_base@DV?$stream_output_adapter@D@__crt_stdio_output@@@2@@__crt_stdio_output@@QEAAHXZ 000000014002ec14 f i libucrt:output.obj
 0001:0002dec0       ?process@?$output_processor@DV?$stream_output_adapter@D@__crt_stdio_output@@V?$positional_parameter_base@DV?$stream_output_adapter@D@__crt_stdio_output@@@2@@__crt_stdio_output@@QEAAHXZ 000000014002eec0 f i libucrt:output.obj
 0001:0002e20c       ?process@?$output_processor@DV?$stream_output_adapter@D@__crt_stdio_output@@V?$standard_base@DV?$stream_output_adapter@D@__crt_stdio_output@@@2@@__crt_stdio_output@@QEAAHXZ 000000014002f20c f i libucrt:output.obj
 0001:0002e4a4       ?process@?$output_processor@DV?$string_output_adapter@D@__crt_stdio_output@@V?$format_validation_base@DV?$string_output_adapter@D@__crt_stdio_output@@@2@@__crt_stdio_output@@QEAAHXZ 000000014002f4a4 f i libucrt:output.obj
 0001:0002e73c       ?process@?$output_processor@DV?$string_output_adapter@D@__crt_stdio_output@@V?$positional_parameter_base@DV?$string_output_adapter@D@__crt_stdio_output@@@2@@__crt_stdio_output@@QEAAHXZ 000000014002f73c f i libucrt:output.obj
 0001:0002ea74       ?process@?$output_processor@DV?$string_output_adapter@D@__crt_stdio_output@@V?$standard_base@DV?$string_output_adapter@D@__crt_stdio_output@@@2@@__crt_stdio_output@@QEAAHXZ 000000014002fa74 f i libucrt:output.obj
 0001:0002ecfc       ?process@?$output_processor@_WV?$stream_output_adapter@_W@__crt_stdio_output@@V?$format_validation_base@_WV?$stream_output_adapter@_W@__crt_stdio_output@@@2@@__crt_stdio_output@@QEAAHXZ 000000014002fcfc f i libucrt:output.obj
 0001:0002f020       ?process@?$output_processor@_WV?$stream_output_adapter@_W@__crt_stdio_output@@V?$positional_parameter_base@_WV?$stream_output_adapter@_W@__crt_stdio_output@@@2@@__crt_stdio_output@@QEAAHXZ 0000000140030020 f i libucrt:output.obj
 0001:0002f38c       ?process@?$output_processor@_WV?$stream_output_adapter@_W@__crt_stdio_output@@V?$standard_base@_WV?$stream_output_adapter@_W@__crt_stdio_output@@@2@@__crt_stdio_output@@QEAAHXZ 000000014003038c f i libucrt:output.obj
 0001:0002f6a0       ?process@?$output_processor@_WV?$string_output_adapter@_W@__crt_stdio_output@@V?$format_validation_base@_WV?$string_output_adapter@_W@__crt_stdio_output@@@2@@__crt_stdio_output@@QEAAHXZ 00000001400306a0 f i libucrt:output.obj
 0001:0002f9b4       ?process@?$output_processor@_WV?$string_output_adapter@_W@__crt_stdio_output@@V?$positional_parameter_base@_WV?$string_output_adapter@_W@__crt_stdio_output@@@2@@__crt_stdio_output@@QEAAHXZ 00000001400309b4 f i libucrt:output.obj
 0001:0002fd20       ?process@?$output_processor@_WV?$string_output_adapter@_W@__crt_stdio_output@@V?$standard_base@_WV?$string_output_adapter@_W@__crt_stdio_output@@@2@@__crt_stdio_output@@QEAAHXZ 0000000140030d20 f i libucrt:output.obj
 0001:00030028       ?public_stream@__crt_stdio_stream@@QEBAPEAU_iobuf@@XZ 0000000140031028 f i libucrt:output.obj
 0001:0003002c       ?set_flag@?$output_processor@DV?$stream_output_adapter@D@__crt_stdio_output@@V?$format_validation_base@DV?$stream_output_adapter@D@__crt_stdio_output@@@2@@__crt_stdio_output@@AEAAXI@Z 000000014003102c f i libucrt:output.obj
 0001:00030030       ?set_flag@?$output_processor@DV?$stream_output_adapter@D@__crt_stdio_output@@V?$positional_parameter_base@DV?$stream_output_adapter@D@__crt_stdio_output@@@2@@__crt_stdio_output@@AEAAXI@Z 0000000140031030 f i libucrt:output.obj
 0001:00030034       ?set_flag@?$output_processor@DV?$stream_output_adapter@D@__crt_stdio_output@@V?$standard_base@DV?$stream_output_adapter@D@__crt_stdio_output@@@2@@__crt_stdio_output@@AEAAXI@Z 0000000140031034 f i libucrt:output.obj
 0001:00030038       ?set_flag@?$output_processor@DV?$string_output_adapter@D@__crt_stdio_output@@V?$format_validation_base@DV?$string_output_adapter@D@__crt_stdio_output@@@2@@__crt_stdio_output@@AEAAXI@Z 0000000140031038 f i libucrt:output.obj
 0001:0003003c       ?set_flag@?$output_processor@DV?$string_output_adapter@D@__crt_stdio_output@@V?$positional_parameter_base@DV?$string_output_adapter@D@__crt_stdio_output@@@2@@__crt_stdio_output@@AEAAXI@Z 000000014003103c f i libucrt:output.obj
 0001:00030040       ?set_flag@?$output_processor@DV?$string_output_adapter@D@__crt_stdio_output@@V?$standard_base@DV?$string_output_adapter@D@__crt_stdio_output@@@2@@__crt_stdio_output@@AEAAXI@Z 0000000140031040 f i libucrt:output.obj
 0001:00030044       ?set_flag@?$output_processor@_WV?$stream_output_adapter@_W@__crt_stdio_output@@V?$format_validation_base@_WV?$stream_output_adapter@_W@__crt_stdio_output@@@2@@__crt_stdio_output@@AEAAXI@Z 0000000140031044 f i libucrt:output.obj
 0001:00030048       ?set_flag@?$output_processor@_WV?$stream_output_adapter@_W@__crt_stdio_output@@V?$positional_parameter_base@_WV?$stream_output_adapter@_W@__crt_stdio_output@@@2@@__crt_stdio_output@@AEAAXI@Z 0000000140031048 f i libucrt:output.obj
 0001:0003004c       ?set_flag@?$output_processor@_WV?$stream_output_adapter@_W@__crt_stdio_output@@V?$standard_base@_WV?$stream_output_adapter@_W@__crt_stdio_output@@@2@@__crt_stdio_output@@AEAAXI@Z 000000014003104c f i libucrt:output.obj
 0001:00030050       ?set_flag@?$output_processor@_WV?$string_output_adapter@_W@__crt_stdio_output@@V?$format_validation_base@_WV?$string_output_adapter@_W@__crt_stdio_output@@@2@@__crt_stdio_output@@AEAAXI@Z 0000000140031050 f i libucrt:output.obj
 0001:00030054       ?set_flag@?$output_processor@_WV?$string_output_adapter@_W@__crt_stdio_output@@V?$positional_parameter_base@_WV?$string_output_adapter@_W@__crt_stdio_output@@@2@@__crt_stdio_output@@AEAAXI@Z 0000000140031054 f i libucrt:output.obj
 0001:00030058       ?set_flag@?$output_processor@_WV?$string_output_adapter@_W@__crt_stdio_output@@V?$standard_base@_WV?$string_output_adapter@_W@__crt_stdio_output@@@2@@__crt_stdio_output@@AEAAXI@Z 0000000140031058 f i libucrt:output.obj
 0001:0003005c       ?should_format@?$positional_parameter_base@DV?$stream_output_adapter@D@__crt_stdio_output@@@__crt_stdio_output@@IEAA_NXZ 000000014003105c f i libucrt:output.obj
 0001:0003007c       ?should_format@?$positional_parameter_base@DV?$string_output_adapter@D@__crt_stdio_output@@@__crt_stdio_output@@IEAA_NXZ 000000014003107c f i libucrt:output.obj
 0001:0003009c       ?should_format@?$positional_parameter_base@_WV?$stream_output_adapter@_W@__crt_stdio_output@@@__crt_stdio_output@@IEAA_NXZ 000000014003109c f i libucrt:output.obj
 0001:000300bc       ?should_format@?$positional_parameter_base@_WV?$string_output_adapter@_W@__crt_stdio_output@@@__crt_stdio_output@@IEAA_NXZ 00000001400310bc f i libucrt:output.obj
 0001:000300dc       ?should_format@?$standard_base@DV?$stream_output_adapter@D@__crt_stdio_output@@@__crt_stdio_output@@IEAA_NXZ 00000001400310dc f i libucrt:output.obj
 0001:000300e0       ?should_format@?$standard_base@DV?$string_output_adapter@D@__crt_stdio_output@@@__crt_stdio_output@@IEAA_NXZ 00000001400310e0 f i libucrt:output.obj
 0001:000300e4       ?should_format@?$standard_base@_WV?$stream_output_adapter@_W@__crt_stdio_output@@@__crt_stdio_output@@IEAA_NXZ 00000001400310e4 f i libucrt:output.obj
 0001:000300e8       ?should_format@?$standard_base@_WV?$string_output_adapter@_W@__crt_stdio_output@@@__crt_stdio_output@@IEAA_NXZ 00000001400310e8 f i libucrt:output.obj
 0001:000300ec       ?should_skip_normal_state_processing@?$positional_parameter_base@DV?$stream_output_adapter@D@__crt_stdio_output@@@__crt_stdio_output@@IEAA_NXZ 00000001400310ec f i libucrt:output.obj
 0001:00030120       ?should_skip_normal_state_processing@?$positional_parameter_base@DV?$string_output_adapter@D@__crt_stdio_output@@@__crt_stdio_output@@IEAA_NXZ 0000000140031120 f i libucrt:output.obj
 0001:00030154       ?should_skip_normal_state_processing@?$positional_parameter_base@_WV?$stream_output_adapter@_W@__crt_stdio_output@@@__crt_stdio_output@@IEAA_NXZ 0000000140031154 f i libucrt:output.obj
 0001:00030188       ?should_skip_normal_state_processing@?$positional_parameter_base@_WV?$string_output_adapter@_W@__crt_stdio_output@@@__crt_stdio_output@@IEAA_NXZ 0000000140031188 f i libucrt:output.obj
 0001:000301bc       ?should_skip_normal_state_processing@?$standard_base@DV?$stream_output_adapter@D@__crt_stdio_output@@@__crt_stdio_output@@IEAA_NXZ 00000001400311bc f i libucrt:output.obj
 0001:000301c0       ?should_skip_normal_state_processing@?$standard_base@DV?$string_output_adapter@D@__crt_stdio_output@@@__crt_stdio_output@@IEAA_NXZ 00000001400311c0 f i libucrt:output.obj
 0001:000301c4       ?should_skip_normal_state_processing@?$standard_base@_WV?$stream_output_adapter@_W@__crt_stdio_output@@@__crt_stdio_output@@IEAA_NXZ 00000001400311c4 f i libucrt:output.obj
 0001:000301c8       ?should_skip_normal_state_processing@?$standard_base@_WV?$string_output_adapter@_W@__crt_stdio_output@@@__crt_stdio_output@@IEAA_NXZ 00000001400311c8 f i libucrt:output.obj
 0001:000301cc       ?should_skip_type_state_output@?$positional_parameter_base@DV?$stream_output_adapter@D@__crt_stdio_output@@@__crt_stdio_output@@IEBA_NXZ 00000001400311cc f i libucrt:output.obj
 0001:000301ec       ?should_skip_type_state_output@?$positional_parameter_base@DV?$string_output_adapter@D@__crt_stdio_output@@@__crt_stdio_output@@IEBA_NXZ 00000001400311ec f i libucrt:output.obj
 0001:0003020c       ?should_skip_type_state_output@?$positional_parameter_base@_WV?$stream_output_adapter@_W@__crt_stdio_output@@@__crt_stdio_output@@IEBA_NXZ 000000014003120c f i libucrt:output.obj
 0001:0003022c       ?should_skip_type_state_output@?$positional_parameter_base@_WV?$string_output_adapter@_W@__crt_stdio_output@@@__crt_stdio_output@@IEBA_NXZ 000000014003122c f i libucrt:output.obj
 0001:0003024c       ?should_skip_type_state_output@?$standard_base@DV?$stream_output_adapter@D@__crt_stdio_output@@@__crt_stdio_output@@IEBA_NXZ 000000014003124c f i libucrt:output.obj
 0001:00030250       ?should_skip_type_state_output@?$standard_base@DV?$string_output_adapter@D@__crt_stdio_output@@@__crt_stdio_output@@IEBA_NXZ 0000000140031250 f i libucrt:output.obj
 0001:00030254       ?should_skip_type_state_output@?$standard_base@_WV?$stream_output_adapter@_W@__crt_stdio_output@@@__crt_stdio_output@@IEBA_NXZ 0000000140031254 f i libucrt:output.obj
 0001:00030258       ?should_skip_type_state_output@?$standard_base@_WV?$string_output_adapter@_W@__crt_stdio_output@@@__crt_stdio_output@@IEBA_NXZ 0000000140031258 f i libucrt:output.obj
 0001:0003025c       ?state_case_dot@?$output_processor@DV?$stream_output_adapter@D@__crt_stdio_output@@V?$format_validation_base@DV?$stream_output_adapter@D@__crt_stdio_output@@@2@@__crt_stdio_output@@AEAA_NXZ 000000014003125c f i libucrt:output.obj
 0001:00030264       ?state_case_dot@?$output_processor@DV?$stream_output_adapter@D@__crt_stdio_output@@V?$positional_parameter_base@DV?$stream_output_adapter@D@__crt_stdio_output@@@2@@__crt_stdio_output@@AEAA_NXZ 0000000140031264 f i libucrt:output.obj
 0001:0003026c       ?state_case_dot@?$output_processor@DV?$stream_output_adapter@D@__crt_stdio_output@@V?$standard_base@DV?$stream_output_adapter@D@__crt_stdio_output@@@2@@__crt_stdio_output@@AEAA_NXZ 000000014003126c f i libucrt:output.obj
 0001:00030274       ?state_case_dot@?$output_processor@DV?$string_output_adapter@D@__crt_stdio_output@@V?$format_validation_base@DV?$string_output_adapter@D@__crt_stdio_output@@@2@@__crt_stdio_output@@AEAA_NXZ 0000000140031274 f i libucrt:output.obj
 0001:0003027c       ?state_case_dot@?$output_processor@DV?$string_output_adapter@D@__crt_stdio_output@@V?$positional_parameter_base@DV?$string_output_adapter@D@__crt_stdio_output@@@2@@__crt_stdio_output@@AEAA_NXZ 000000014003127c f i libucrt:output.obj
 0001:00030284       ?state_case_dot@?$output_processor@DV?$string_output_adapter@D@__crt_stdio_output@@V?$standard_base@DV?$string_output_adapter@D@__crt_stdio_output@@@2@@__crt_stdio_output@@AEAA_NXZ 0000000140031284 f i libucrt:output.obj
 0001:0003028c       ?state_case_dot@?$output_processor@_WV?$stream_output_adapter@_W@__crt_stdio_output@@V?$format_validation_base@_WV?$stream_output_adapter@_W@__crt_stdio_output@@@2@@__crt_stdio_output@@AEAA_NXZ 000000014003128c f i libucrt:output.obj
 0001:00030294       ?state_case_dot@?$output_processor@_WV?$stream_output_adapter@_W@__crt_stdio_output@@V?$positional_parameter_base@_WV?$stream_output_adapter@_W@__crt_stdio_output@@@2@@__crt_stdio_output@@AEAA_NXZ 0000000140031294 f i libucrt:output.obj
 0001:0003029c       ?state_case_dot@?$output_processor@_WV?$stream_output_adapter@_W@__crt_stdio_output@@V?$standard_base@_WV?$stream_output_adapter@_W@__crt_stdio_output@@@2@@__crt_stdio_output@@AEAA_NXZ 000000014003129c f i libucrt:output.obj
 0001:000302a4       ?state_case_dot@?$output_processor@_WV?$string_output_adapter@_W@__crt_stdio_output@@V?$format_validation_base@_WV?$string_output_adapter@_W@__crt_stdio_output@@@2@@__crt_stdio_output@@AEAA_NXZ 00000001400312a4 f i libucrt:output.obj
 0001:000302ac       ?state_case_dot@?$output_processor@_WV?$string_output_adapter@_W@__crt_stdio_output@@V?$positional_parameter_base@_WV?$string_output_adapter@_W@__crt_stdio_output@@@2@@__crt_stdio_output@@AEAA_NXZ 00000001400312ac f i libucrt:output.obj
 0001:000302b4       ?state_case_dot@?$output_processor@_WV?$string_output_adapter@_W@__crt_stdio_output@@V?$standard_base@_WV?$string_output_adapter@_W@__crt_stdio_output@@@2@@__crt_stdio_output@@AEAA_NXZ 00000001400312b4 f i libucrt:output.obj
 0001:000302bc       ?state_case_flag@?$output_processor@DV?$stream_output_adapter@D@__crt_stdio_output@@V?$format_validation_base@DV?$stream_output_adapter@D@__crt_stdio_output@@@2@@__crt_stdio_output@@AEAA_NXZ 00000001400312bc f i libucrt:output.obj
 0001:00030300       ?state_case_flag@?$output_processor@DV?$stream_output_adapter@D@__crt_stdio_output@@V?$positional_parameter_base@DV?$stream_output_adapter@D@__crt_stdio_output@@@2@@__crt_stdio_output@@AEAA_NXZ 0000000140031300 f i libucrt:output.obj
 0001:00030344       ?state_case_flag@?$output_processor@DV?$stream_output_adapter@D@__crt_stdio_output@@V?$standard_base@DV?$stream_output_adapter@D@__crt_stdio_output@@@2@@__crt_stdio_output@@AEAA_NXZ 0000000140031344 f i libucrt:output.obj
 0001:00030388       ?state_case_flag@?$output_processor@DV?$string_output_adapter@D@__crt_stdio_output@@V?$format_validation_base@DV?$string_output_adapter@D@__crt_stdio_output@@@2@@__crt_stdio_output@@AEAA_NXZ 0000000140031388 f i libucrt:output.obj
 0001:000303cc       ?state_case_flag@?$output_processor@DV?$string_output_adapter@D@__crt_stdio_output@@V?$positional_parameter_base@DV?$string_output_adapter@D@__crt_stdio_output@@@2@@__crt_stdio_output@@AEAA_NXZ 00000001400313cc f i libucrt:output.obj
 0001:00030410       ?state_case_flag@?$output_processor@DV?$string_output_adapter@D@__crt_stdio_output@@V?$standard_base@DV?$string_output_adapter@D@__crt_stdio_output@@@2@@__crt_stdio_output@@AEAA_NXZ 0000000140031410 f i libucrt:output.obj
 0001:00030454       ?state_case_flag@?$output_processor@_WV?$stream_output_adapter@_W@__crt_stdio_output@@V?$format_validation_base@_WV?$stream_output_adapter@_W@__crt_stdio_output@@@2@@__crt_stdio_output@@AEAA_NXZ 0000000140031454 f i libucrt:output.obj
 0001:000304ac       ?state_case_flag@?$output_processor@_WV?$stream_output_adapter@_W@__crt_stdio_output@@V?$positional_parameter_base@_WV?$stream_output_adapter@_W@__crt_stdio_output@@@2@@__crt_stdio_output@@AEAA_NXZ 00000001400314ac f i libucrt:output.obj
 0001:00030504       ?state_case_flag@?$output_processor@_WV?$stream_output_adapter@_W@__crt_stdio_output@@V?$standard_base@_WV?$stream_output_adapter@_W@__crt_stdio_output@@@2@@__crt_stdio_output@@AEAA_NXZ 0000000140031504 f i libucrt:output.obj
 0001:0003055c       ?state_case_flag@?$output_processor@_WV?$string_output_adapter@_W@__crt_stdio_output@@V?$format_validation_base@_WV?$string_output_adapter@_W@__crt_stdio_output@@@2@@__crt_stdio_output@@AEAA_NXZ 000000014003155c f i libucrt:output.obj
 0001:000305b4       ?state_case_flag@?$output_processor@_WV?$string_output_adapter@_W@__crt_stdio_output@@V?$positional_parameter_base@_WV?$string_output_adapter@_W@__crt_stdio_output@@@2@@__crt_stdio_output@@AEAA_NXZ 00000001400315b4 f i libucrt:output.obj
 0001:0003060c       ?state_case_flag@?$output_processor@_WV?$string_output_adapter@_W@__crt_stdio_output@@V?$standard_base@_WV?$string_output_adapter@_W@__crt_stdio_output@@@2@@__crt_stdio_output@@AEAA_NXZ 000000014003160c f i libucrt:output.obj
 0001:00030664       ?state_case_normal@?$output_processor@DV?$stream_output_adapter@D@__crt_stdio_output@@V?$format_validation_base@DV?$stream_output_adapter@D@__crt_stdio_output@@@2@@__crt_stdio_output@@AEAA_NXZ 0000000140031664 f i libucrt:output.obj
 0001:000306f0       ?state_case_normal@?$output_processor@DV?$stream_output_adapter@D@__crt_stdio_output@@V?$positional_parameter_base@DV?$stream_output_adapter@D@__crt_stdio_output@@@2@@__crt_stdio_output@@AEAA_NXZ 00000001400316f0 f i libucrt:output.obj
 0001:000307ac       ?state_case_normal@?$output_processor@DV?$stream_output_adapter@D@__crt_stdio_output@@V?$standard_base@DV?$stream_output_adapter@D@__crt_stdio_output@@@2@@__crt_stdio_output@@AEAA_NXZ 00000001400317ac f i libucrt:output.obj
 0001:00030838       ?state_case_normal@?$output_processor@DV?$string_output_adapter@D@__crt_stdio_output@@V?$format_validation_base@DV?$string_output_adapter@D@__crt_stdio_output@@@2@@__crt_stdio_output@@AEAA_NXZ 0000000140031838 f i libucrt:output.obj
 0001:000308cc       ?state_case_normal@?$output_processor@DV?$string_output_adapter@D@__crt_stdio_output@@V?$positional_parameter_base@DV?$string_output_adapter@D@__crt_stdio_output@@@2@@__crt_stdio_output@@AEAA_NXZ 00000001400318cc f i libucrt:output.obj
 0001:0003098c       ?state_case_normal@?$output_processor@DV?$string_output_adapter@D@__crt_stdio_output@@V?$standard_base@DV?$string_output_adapter@D@__crt_stdio_output@@@2@@__crt_stdio_output@@AEAA_NXZ 000000014003198c f i libucrt:output.obj
 0001:00030a20       ?state_case_normal@?$output_processor@_WV?$stream_output_adapter@_W@__crt_stdio_output@@V?$format_validation_base@_WV?$stream_output_adapter@_W@__crt_stdio_output@@@2@@__crt_stdio_output@@AEAA_NXZ 0000000140031a20 f i libucrt:output.obj
 0001:00030a90       ?state_case_normal@?$output_processor@_WV?$stream_output_adapter@_W@__crt_stdio_output@@V?$positional_parameter_base@_WV?$stream_output_adapter@_W@__crt_stdio_output@@@2@@__crt_stdio_output@@AEAA_NXZ 0000000140031a90 f i libucrt:output.obj
 0001:00030b2c       ?state_case_normal@?$output_processor@_WV?$stream_output_adapter@_W@__crt_stdio_output@@V?$standard_base@_WV?$stream_output_adapter@_W@__crt_stdio_output@@@2@@__crt_stdio_output@@AEAA_NXZ 0000000140031b2c f i libucrt:output.obj
 0001:00030b9c       ?state_case_normal@?$output_processor@_WV?$string_output_adapter@_W@__crt_stdio_output@@V?$format_validation_base@_WV?$string_output_adapter@_W@__crt_stdio_output@@@2@@__crt_stdio_output@@AEAA_NXZ 0000000140031b9c f i libucrt:output.obj
 0001:00030c08       ?state_case_normal@?$output_processor@_WV?$string_output_adapter@_W@__crt_stdio_output@@V?$positional_parameter_base@_WV?$string_output_adapter@_W@__crt_stdio_output@@@2@@__crt_stdio_output@@AEAA_NXZ 0000000140031c08 f i libucrt:output.obj
 0001:00030ca0       ?state_case_normal@?$output_processor@_WV?$string_output_adapter@_W@__crt_stdio_output@@V?$standard_base@_WV?$string_output_adapter@_W@__crt_stdio_output@@@2@@__crt_stdio_output@@AEAA_NXZ 0000000140031ca0 f i libucrt:output.obj
 0001:00030d0c       ?state_case_normal_common@?$output_processor@DV?$stream_output_adapter@D@__crt_stdio_output@@V?$format_validation_base@DV?$stream_output_adapter@D@__crt_stdio_output@@@2@@__crt_stdio_output@@AEAA_NXZ 0000000140031d0c f i libucrt:output.obj
 0001:00030d80       ?state_case_normal_common@?$output_processor@DV?$stream_output_adapter@D@__crt_stdio_output@@V?$positional_parameter_base@DV?$stream_output_adapter@D@__crt_stdio_output@@@2@@__crt_stdio_output@@AEAA_NXZ 0000000140031d80 f i libucrt:output.obj
 0001:00030df4       ?state_case_normal_common@?$output_processor@DV?$stream_output_adapter@D@__crt_stdio_output@@V?$standard_base@DV?$stream_output_adapter@D@__crt_stdio_output@@@2@@__crt_stdio_output@@AEAA_NXZ 0000000140031df4 f i libucrt:output.obj
 0001:00030e68       ?state_case_normal_common@?$output_processor@DV?$string_output_adapter@D@__crt_stdio_output@@V?$format_validation_base@DV?$string_output_adapter@D@__crt_stdio_output@@@2@@__crt_stdio_output@@AEAA_NXZ 0000000140031e68 f i libucrt:output.obj
 0001:00030ee0       ?state_case_normal_common@?$output_processor@DV?$string_output_adapter@D@__crt_stdio_output@@V?$positional_parameter_base@DV?$string_output_adapter@D@__crt_stdio_output@@@2@@__crt_stdio_output@@AEAA_NXZ 0000000140031ee0 f i libucrt:output.obj
 0001:00030f58       ?state_case_normal_common@?$output_processor@DV?$string_output_adapter@D@__crt_stdio_output@@V?$standard_base@DV?$string_output_adapter@D@__crt_stdio_output@@@2@@__crt_stdio_output@@AEAA_NXZ 0000000140031f58 f i libucrt:output.obj
 0001:00030fd0       ?state_case_normal_common@?$output_processor@_WV?$stream_output_adapter@_W@__crt_stdio_output@@V?$format_validation_base@_WV?$stream_output_adapter@_W@__crt_stdio_output@@@2@@__crt_stdio_output@@AEAA_NXZ 0000000140031fd0 f i libucrt:output.obj
 0001:00031040       ?state_case_normal_common@?$output_processor@_WV?$stream_output_adapter@_W@__crt_stdio_output@@V?$positional_parameter_base@_WV?$stream_output_adapter@_W@__crt_stdio_output@@@2@@__crt_stdio_output@@AEAA_NXZ 0000000140032040 f i libucrt:output.obj
 0001:000310b0       ?state_case_normal_common@?$output_processor@_WV?$stream_output_adapter@_W@__crt_stdio_output@@V?$standard_base@_WV?$stream_output_adapter@_W@__crt_stdio_output@@@2@@__crt_stdio_output@@AEAA_NXZ 00000001400320b0 f i libucrt:output.obj
 0001:00031120       ?state_case_normal_common@?$output_processor@_WV?$string_output_adapter@_W@__crt_stdio_output@@V?$format_validation_base@_WV?$string_output_adapter@_W@__crt_stdio_output@@@2@@__crt_stdio_output@@AEAA_NXZ 0000000140032120 f i libucrt:output.obj
 0001:0003118c       ?state_case_normal_common@?$output_processor@_WV?$string_output_adapter@_W@__crt_stdio_output@@V?$positional_parameter_base@_WV?$string_output_adapter@_W@__crt_stdio_output@@@2@@__crt_stdio_output@@AEAA_NXZ 000000014003218c f i libucrt:output.obj
 0001:000311f8       ?state_case_normal_common@?$output_processor@_WV?$string_output_adapter@_W@__crt_stdio_output@@V?$standard_base@_WV?$string_output_adapter@_W@__crt_stdio_output@@@2@@__crt_stdio_output@@AEAA_NXZ 00000001400321f8 f i libucrt:output.obj
 0001:00031264       ?state_case_normal_tchar@?$output_processor@DV?$stream_output_adapter@D@__crt_stdio_output@@V?$format_validation_base@DV?$stream_output_adapter@D@__crt_stdio_output@@@2@@__crt_stdio_output@@AEAA_ND@Z 0000000140032264 f i libucrt:output.obj
 0001:00031330       ?state_case_normal_tchar@?$output_processor@DV?$stream_output_adapter@D@__crt_stdio_output@@V?$positional_parameter_base@DV?$stream_output_adapter@D@__crt_stdio_output@@@2@@__crt_stdio_output@@AEAA_ND@Z 0000000140032330 f i libucrt:output.obj
 0001:000313fc       ?state_case_normal_tchar@?$output_processor@DV?$stream_output_adapter@D@__crt_stdio_output@@V?$standard_base@DV?$stream_output_adapter@D@__crt_stdio_output@@@2@@__crt_stdio_output@@AEAA_ND@Z 00000001400323fc f i libucrt:output.obj
 0001:000314c8       ?state_case_normal_tchar@?$output_processor@DV?$string_output_adapter@D@__crt_stdio_output@@V?$format_validation_base@DV?$string_output_adapter@D@__crt_stdio_output@@@2@@__crt_stdio_output@@AEAA_ND@Z 00000001400324c8 f i libucrt:output.obj
 0001:00031598       ?state_case_normal_tchar@?$output_processor@DV?$string_output_adapter@D@__crt_stdio_output@@V?$positional_parameter_base@DV?$string_output_adapter@D@__crt_stdio_output@@@2@@__crt_stdio_output@@AEAA_ND@Z 0000000140032598 f i libucrt:output.obj
 0001:00031668       ?state_case_normal_tchar@?$output_processor@DV?$string_output_adapter@D@__crt_stdio_output@@V?$standard_base@DV?$string_output_adapter@D@__crt_stdio_output@@@2@@__crt_stdio_output@@AEAA_ND@Z 0000000140032668 f i libucrt:output.obj
 0001:00031738       ?state_case_normal_tchar@?$output_processor@_WV?$stream_output_adapter@_W@__crt_stdio_output@@V?$format_validation_base@_WV?$stream_output_adapter@_W@__crt_stdio_output@@@2@@__crt_stdio_output@@AEAA_N_W@Z 0000000140032738 f i libucrt:output.obj
 0001:00031740       ?state_case_normal_tchar@?$output_processor@_WV?$stream_output_adapter@_W@__crt_stdio_output@@V?$positional_parameter_base@_WV?$stream_output_adapter@_W@__crt_stdio_output@@@2@@__crt_stdio_output@@AEAA_N_W@Z 0000000140032740 f i libucrt:output.obj
 0001:00031748       ?state_case_normal_tchar@?$output_processor@_WV?$stream_output_adapter@_W@__crt_stdio_output@@V?$standard_base@_WV?$stream_output_adapter@_W@__crt_stdio_output@@@2@@__crt_stdio_output@@AEAA_N_W@Z 0000000140032748 f i libucrt:output.obj
 0001:00031750       ?state_case_normal_tchar@?$output_processor@_WV?$string_output_adapter@_W@__crt_stdio_output@@V?$format_validation_base@_WV?$string_output_adapter@_W@__crt_stdio_output@@@2@@__crt_stdio_output@@AEAA_N_W@Z 0000000140032750 f i libucrt:output.obj
 0001:00031758       ?state_case_normal_tchar@?$output_processor@_WV?$string_output_adapter@_W@__crt_stdio_output@@V?$positional_parameter_base@_WV?$string_output_adapter@_W@__crt_stdio_output@@@2@@__crt_stdio_output@@AEAA_N_W@Z 0000000140032758 f i libucrt:output.obj
 0001:00031760       ?state_case_normal_tchar@?$output_processor@_WV?$string_output_adapter@_W@__crt_stdio_output@@V?$standard_base@_WV?$string_output_adapter@_W@__crt_stdio_output@@@2@@__crt_stdio_output@@AEAA_N_W@Z 0000000140032760 f i libucrt:output.obj
 0001:00031768       ?state_case_percent@?$output_processor@DV?$stream_output_adapter@D@__crt_stdio_output@@V?$format_validation_base@DV?$stream_output_adapter@D@__crt_stdio_output@@@2@@__crt_stdio_output@@AEAA_NXZ 0000000140032768 f i libucrt:output.obj
 0001:00031784       ?state_case_percent@?$output_processor@DV?$stream_output_adapter@D@__crt_stdio_output@@V?$positional_parameter_base@DV?$stream_output_adapter@D@__crt_stdio_output@@@2@@__crt_stdio_output@@AEAA_NXZ 0000000140032784 f i libucrt:output.obj
 0001:000317a0       ?state_case_percent@?$output_processor@DV?$stream_output_adapter@D@__crt_stdio_output@@V?$standard_base@DV?$stream_output_adapter@D@__crt_stdio_output@@@2@@__crt_stdio_output@@AEAA_NXZ 00000001400327a0 f i libucrt:output.obj
 0001:000317bc       ?state_case_percent@?$output_processor@DV?$string_output_adapter@D@__crt_stdio_output@@V?$format_validation_base@DV?$string_output_adapter@D@__crt_stdio_output@@@2@@__crt_stdio_output@@AEAA_NXZ 00000001400327bc f i libucrt:output.obj
 0001:000317d8       ?state_case_percent@?$output_processor@DV?$string_output_adapter@D@__crt_stdio_output@@V?$positional_parameter_base@DV?$string_output_adapter@D@__crt_stdio_output@@@2@@__crt_stdio_output@@AEAA_NXZ 00000001400327d8 f i libucrt:output.obj
 0001:000317f4       ?state_case_percent@?$output_processor@DV?$string_output_adapter@D@__crt_stdio_output@@V?$standard_base@DV?$string_output_adapter@D@__crt_stdio_output@@@2@@__crt_stdio_output@@AEAA_NXZ 00000001400327f4 f i libucrt:output.obj
 0001:00031810       ?state_case_percent@?$output_processor@_WV?$stream_output_adapter@_W@__crt_stdio_output@@V?$format_validation_base@_WV?$stream_output_adapter@_W@__crt_stdio_output@@@2@@__crt_stdio_output@@AEAA_NXZ 0000000140032810 f i libucrt:output.obj
 0001:0003182c       ?state_case_percent@?$output_processor@_WV?$stream_output_adapter@_W@__crt_stdio_output@@V?$positional_parameter_base@_WV?$stream_output_adapter@_W@__crt_stdio_output@@@2@@__crt_stdio_output@@AEAA_NXZ 000000014003282c f i libucrt:output.obj
 0001:00031848       ?state_case_percent@?$output_processor@_WV?$stream_output_adapter@_W@__crt_stdio_output@@V?$standard_base@_WV?$stream_output_adapter@_W@__crt_stdio_output@@@2@@__crt_stdio_output@@AEAA_NXZ 0000000140032848 f i libucrt:output.obj
 0001:00031864       ?state_case_percent@?$output_processor@_WV?$string_output_adapter@_W@__crt_stdio_output@@V?$format_validation_base@_WV?$string_output_adapter@_W@__crt_stdio_output@@@2@@__crt_stdio_output@@AEAA_NXZ 0000000140032864 f i libucrt:output.obj
 0001:00031880       ?state_case_percent@?$output_processor@_WV?$string_output_adapter@_W@__crt_stdio_output@@V?$positional_parameter_base@_WV?$string_output_adapter@_W@__crt_stdio_output@@@2@@__crt_stdio_output@@AEAA_NXZ 0000000140032880 f i libucrt:output.obj
 0001:0003189c       ?state_case_percent@?$output_processor@_WV?$string_output_adapter@_W@__crt_stdio_output@@V?$standard_base@_WV?$string_output_adapter@_W@__crt_stdio_output@@@2@@__crt_stdio_output@@AEAA_NXZ 000000014003289c f i libucrt:output.obj
 0001:000318b8       ?state_case_precision@?$output_processor@DV?$stream_output_adapter@D@__crt_stdio_output@@V?$format_validation_base@DV?$stream_output_adapter@D@__crt_stdio_output@@@2@@__crt_stdio_output@@AEAA_NXZ 00000001400328b8 f i libucrt:output.obj
 0001:000318e8       ?state_case_precision@?$output_processor@DV?$stream_output_adapter@D@__crt_stdio_output@@V?$positional_parameter_base@DV?$stream_output_adapter@D@__crt_stdio_output@@@2@@__crt_stdio_output@@AEAA_NXZ 00000001400328e8 f i libucrt:output.obj
 0001:00031944       ?state_case_precision@?$output_processor@DV?$stream_output_adapter@D@__crt_stdio_output@@V?$standard_base@DV?$stream_output_adapter@D@__crt_stdio_output@@@2@@__crt_stdio_output@@AEAA_NXZ 0000000140032944 f i libucrt:output.obj
 0001:00031974       ?state_case_precision@?$output_processor@DV?$string_output_adapter@D@__crt_stdio_output@@V?$format_validation_base@DV?$string_output_adapter@D@__crt_stdio_output@@@2@@__crt_stdio_output@@AEAA_NXZ 0000000140032974 f i libucrt:output.obj
 0001:000319a4       ?state_case_precision@?$output_processor@DV?$string_output_adapter@D@__crt_stdio_output@@V?$positional_parameter_base@DV?$string_output_adapter@D@__crt_stdio_output@@@2@@__crt_stdio_output@@AEAA_NXZ 00000001400329a4 f i libucrt:output.obj
 0001:00031a00       ?state_case_precision@?$output_processor@DV?$string_output_adapter@D@__crt_stdio_output@@V?$standard_base@DV?$string_output_adapter@D@__crt_stdio_output@@@2@@__crt_stdio_output@@AEAA_NXZ 0000000140032a00 f i libucrt:output.obj
 0001:00031a30       ?state_case_precision@?$output_processor@_WV?$stream_output_adapter@_W@__crt_stdio_output@@V?$format_validation_base@_WV?$stream_output_adapter@_W@__crt_stdio_output@@@2@@__crt_stdio_output@@AEAA_NXZ 0000000140032a30 f i libucrt:output.obj
 0001:00031a64       ?state_case_precision@?$output_processor@_WV?$stream_output_adapter@_W@__crt_stdio_output@@V?$positional_parameter_base@_WV?$stream_output_adapter@_W@__crt_stdio_output@@@2@@__crt_stdio_output@@AEAA_NXZ 0000000140032a64 f i libucrt:output.obj
 0001:00031ac4       ?state_case_precision@?$output_processor@_WV?$stream_output_adapter@_W@__crt_stdio_output@@V?$standard_base@_WV?$stream_output_adapter@_W@__crt_stdio_output@@@2@@__crt_stdio_output@@AEAA_NXZ 0000000140032ac4 f i libucrt:output.obj
 0001:00031af8       ?state_case_precision@?$output_processor@_WV?$string_output_adapter@_W@__crt_stdio_output@@V?$format_validation_base@_WV?$string_output_adapter@_W@__crt_stdio_output@@@2@@__crt_stdio_output@@AEAA_NXZ 0000000140032af8 f i libucrt:output.obj
 0001:00031b2c       ?state_case_precision@?$output_processor@_WV?$string_output_adapter@_W@__crt_stdio_output@@V?$positional_parameter_base@_WV?$string_output_adapter@_W@__crt_stdio_output@@@2@@__crt_stdio_output@@AEAA_NXZ 0000000140032b2c f i libucrt:output.obj
 0001:00031b8c       ?state_case_precision@?$output_processor@_WV?$string_output_adapter@_W@__crt_stdio_output@@V?$standard_base@_WV?$string_output_adapter@_W@__crt_stdio_output@@@2@@__crt_stdio_output@@AEAA_NXZ 0000000140032b8c f i libucrt:output.obj
 0001:00031bc0       ?state_case_size@?$output_processor@DV?$stream_output_adapter@D@__crt_stdio_output@@V?$format_validation_base@DV?$stream_output_adapter@D@__crt_stdio_output@@@2@@__crt_stdio_output@@AEAA_NXZ 0000000140032bc0 f i libucrt:output.obj
 0001:00031d88       ?state_case_size@?$output_processor@DV?$stream_output_adapter@D@__crt_stdio_output@@V?$positional_parameter_base@DV?$stream_output_adapter@D@__crt_stdio_output@@@2@@__crt_stdio_output@@AEAA_NXZ 0000000140032d88 f i libucrt:output.obj
 0001:00031f50       ?state_case_size@?$output_processor@DV?$stream_output_adapter@D@__crt_stdio_output@@V?$standard_base@DV?$stream_output_adapter@D@__crt_stdio_output@@@2@@__crt_stdio_output@@AEAA_NXZ 0000000140032f50 f i libucrt:output.obj
 0001:00032118       ?state_case_size@?$output_processor@DV?$string_output_adapter@D@__crt_stdio_output@@V?$format_validation_base@DV?$string_output_adapter@D@__crt_stdio_output@@@2@@__crt_stdio_output@@AEAA_NXZ 0000000140033118 f i libucrt:output.obj
 0001:000322e0       ?state_case_size@?$output_processor@DV?$string_output_adapter@D@__crt_stdio_output@@V?$positional_parameter_base@DV?$string_output_adapter@D@__crt_stdio_output@@@2@@__crt_stdio_output@@AEAA_NXZ 00000001400332e0 f i libucrt:output.obj
 0001:000324a8       ?state_case_size@?$output_processor@DV?$string_output_adapter@D@__crt_stdio_output@@V?$standard_base@DV?$string_output_adapter@D@__crt_stdio_output@@@2@@__crt_stdio_output@@AEAA_NXZ 00000001400334a8 f i libucrt:output.obj
 0001:00032670       ?state_case_size@?$output_processor@_WV?$stream_output_adapter@_W@__crt_stdio_output@@V?$format_validation_base@_WV?$stream_output_adapter@_W@__crt_stdio_output@@@2@@__crt_stdio_output@@AEAA_NXZ 0000000140033670 f i libucrt:output.obj
 0001:00032868       ?state_case_size@?$output_processor@_WV?$stream_output_adapter@_W@__crt_stdio_output@@V?$positional_parameter_base@_WV?$stream_output_adapter@_W@__crt_stdio_output@@@2@@__crt_stdio_output@@AEAA_NXZ 0000000140033868 f i libucrt:output.obj
 0001:00032a60       ?state_case_size@?$output_processor@_WV?$stream_output_adapter@_W@__crt_stdio_output@@V?$standard_base@_WV?$stream_output_adapter@_W@__crt_stdio_output@@@2@@__crt_stdio_output@@AEAA_NXZ 0000000140033a60 f i libucrt:output.obj
 0001:00032c58       ?state_case_size@?$output_processor@_WV?$string_output_adapter@_W@__crt_stdio_output@@V?$format_validation_base@_WV?$string_output_adapter@_W@__crt_stdio_output@@@2@@__crt_stdio_output@@AEAA_NXZ 0000000140033c58 f i libucrt:output.obj
 0001:00032e50       ?state_case_size@?$output_processor@_WV?$string_output_adapter@_W@__crt_stdio_output@@V?$positional_parameter_base@_WV?$string_output_adapter@_W@__crt_stdio_output@@@2@@__crt_stdio_output@@AEAA_NXZ 0000000140033e50 f i libucrt:output.obj
 0001:00033048       ?state_case_size@?$output_processor@_WV?$string_output_adapter@_W@__crt_stdio_output@@V?$standard_base@_WV?$string_output_adapter@_W@__crt_stdio_output@@@2@@__crt_stdio_output@@AEAA_NXZ 0000000140034048 f i libucrt:output.obj
 0001:00033240       ?state_case_type@?$output_processor@DV?$stream_output_adapter@D@__crt_stdio_output@@V?$format_validation_base@DV?$stream_output_adapter@D@__crt_stdio_output@@@2@@__crt_stdio_output@@AEAA_NXZ 0000000140034240 f i libucrt:output.obj
 0001:00033568       ?state_case_type@?$output_processor@DV?$stream_output_adapter@D@__crt_stdio_output@@V?$positional_parameter_base@DV?$stream_output_adapter@D@__crt_stdio_output@@@2@@__crt_stdio_output@@AEAA_NXZ 0000000140034568 f i libucrt:output.obj
 0001:000338a8       ?state_case_type@?$output_processor@DV?$stream_output_adapter@D@__crt_stdio_output@@V?$standard_base@DV?$stream_output_adapter@D@__crt_stdio_output@@@2@@__crt_stdio_output@@AEAA_NXZ 00000001400348a8 f i libucrt:output.obj
 0001:00033bd0       ?state_case_type@?$output_processor@DV?$string_output_adapter@D@__crt_stdio_output@@V?$format_validation_base@DV?$string_output_adapter@D@__crt_stdio_output@@@2@@__crt_stdio_output@@AEAA_NXZ 0000000140034bd0 f i libucrt:output.obj
 0001:00033ed0       ?state_case_type@?$output_processor@DV?$string_output_adapter@D@__crt_stdio_output@@V?$positional_parameter_base@DV?$string_output_adapter@D@__crt_stdio_output@@@2@@__crt_stdio_output@@AEAA_NXZ 0000000140034ed0 f i libucrt:output.obj
 0001:000341ec       ?state_case_type@?$output_processor@DV?$string_output_adapter@D@__crt_stdio_output@@V?$standard_base@DV?$string_output_adapter@D@__crt_stdio_output@@@2@@__crt_stdio_output@@AEAA_NXZ 00000001400351ec f i libucrt:output.obj
 0001:000344ec       ?state_case_type@?$output_processor@_WV?$stream_output_adapter@_W@__crt_stdio_output@@V?$format_validation_base@_WV?$stream_output_adapter@_W@__crt_stdio_output@@@2@@__crt_stdio_output@@AEAA_NXZ 00000001400354ec f i libucrt:output.obj
 0001:00034880       ?state_case_type@?$output_processor@_WV?$stream_output_adapter@_W@__crt_stdio_output@@V?$positional_parameter_base@_WV?$stream_output_adapter@_W@__crt_stdio_output@@@2@@__crt_stdio_output@@AEAA_NXZ 0000000140035880 f i libucrt:output.obj
 0001:00034c30       ?state_case_type@?$output_processor@_WV?$stream_output_adapter@_W@__crt_stdio_output@@V?$standard_base@_WV?$stream_output_adapter@_W@__crt_stdio_output@@@2@@__crt_stdio_output@@AEAA_NXZ 0000000140035c30 f i libucrt:output.obj
 0001:00034fc4       ?state_case_type@?$output_processor@_WV?$string_output_adapter@_W@__crt_stdio_output@@V?$format_validation_base@_WV?$string_output_adapter@_W@__crt_stdio_output@@@2@@__crt_stdio_output@@AEAA_NXZ 0000000140035fc4 f i libucrt:output.obj
 0001:00035340       ?state_case_type@?$output_processor@_WV?$string_output_adapter@_W@__crt_stdio_output@@V?$positional_parameter_base@_WV?$string_output_adapter@_W@__crt_stdio_output@@@2@@__crt_stdio_output@@AEAA_NXZ 0000000140036340 f i libucrt:output.obj
 0001:000356d8       ?state_case_type@?$output_processor@_WV?$string_output_adapter@_W@__crt_stdio_output@@V?$standard_base@_WV?$string_output_adapter@_W@__crt_stdio_output@@@2@@__crt_stdio_output@@AEAA_NXZ 00000001400366d8 f i libucrt:output.obj
 0001:00035a54       ?state_case_width@?$output_processor@DV?$stream_output_adapter@D@__crt_stdio_output@@V?$format_validation_base@DV?$stream_output_adapter@D@__crt_stdio_output@@@2@@__crt_stdio_output@@AEAA_NXZ 0000000140036a54 f i libucrt:output.obj
 0001:00035a94       ?state_case_width@?$output_processor@DV?$stream_output_adapter@D@__crt_stdio_output@@V?$positional_parameter_base@DV?$stream_output_adapter@D@__crt_stdio_output@@@2@@__crt_stdio_output@@AEAA_NXZ 0000000140036a94 f i libucrt:output.obj
 0001:00035af8       ?state_case_width@?$output_processor@DV?$stream_output_adapter@D@__crt_stdio_output@@V?$standard_base@DV?$stream_output_adapter@D@__crt_stdio_output@@@2@@__crt_stdio_output@@AEAA_NXZ 0000000140036af8 f i libucrt:output.obj
 0001:00035b38       ?state_case_width@?$output_processor@DV?$string_output_adapter@D@__crt_stdio_output@@V?$format_validation_base@DV?$string_output_adapter@D@__crt_stdio_output@@@2@@__crt_stdio_output@@AEAA_NXZ 0000000140036b38 f i libucrt:output.obj
 0001:00035b78       ?state_case_width@?$output_processor@DV?$string_output_adapter@D@__crt_stdio_output@@V?$positional_parameter_base@DV?$string_output_adapter@D@__crt_stdio_output@@@2@@__crt_stdio_output@@AEAA_NXZ 0000000140036b78 f i libucrt:output.obj
 0001:00035bdc       ?state_case_width@?$output_processor@DV?$string_output_adapter@D@__crt_stdio_output@@V?$standard_base@DV?$string_output_adapter@D@__crt_stdio_output@@@2@@__crt_stdio_output@@AEAA_NXZ 0000000140036bdc f i libucrt:output.obj
 0001:00035c1c       ?state_case_width@?$output_processor@_WV?$stream_output_adapter@_W@__crt_stdio_output@@V?$format_validation_base@_WV?$stream_output_adapter@_W@__crt_stdio_output@@@2@@__crt_stdio_output@@AEAA_NXZ 0000000140036c1c f i libucrt:output.obj
 0001:00035c5c       ?state_case_width@?$output_processor@_WV?$stream_output_adapter@_W@__crt_stdio_output@@V?$positional_parameter_base@_WV?$stream_output_adapter@_W@__crt_stdio_output@@@2@@__crt_stdio_output@@AEAA_NXZ 0000000140036c5c f i libucrt:output.obj
 0001:00035cc4       ?state_case_width@?$output_processor@_WV?$stream_output_adapter@_W@__crt_stdio_output@@V?$standard_base@_WV?$stream_output_adapter@_W@__crt_stdio_output@@@2@@__crt_stdio_output@@AEAA_NXZ 0000000140036cc4 f i libucrt:output.obj
 0001:00035d04       ?state_case_width@?$output_processor@_WV?$string_output_adapter@_W@__crt_stdio_output@@V?$format_validation_base@_WV?$string_output_adapter@_W@__crt_stdio_output@@@2@@__crt_stdio_output@@AEAA_NXZ 0000000140036d04 f i libucrt:output.obj
 0001:00035d44       ?state_case_width@?$output_processor@_WV?$string_output_adapter@_W@__crt_stdio_output@@V?$positional_parameter_base@_WV?$string_output_adapter@_W@__crt_stdio_output@@@2@@__crt_stdio_output@@AEAA_NXZ 0000000140036d44 f i libucrt:output.obj
 0001:00035dac       ?state_case_width@?$output_processor@_WV?$string_output_adapter@_W@__crt_stdio_output@@V?$standard_base@_WV?$string_output_adapter@_W@__crt_stdio_output@@@2@@__crt_stdio_output@@AEAA_NXZ 0000000140036dac f i libucrt:output.obj
 0001:00035dec       ?state_count@?$format_validation_base@DV?$stream_output_adapter@D@__crt_stdio_output@@@__crt_stdio_output@@KAIXZ 0000000140036dec f i libucrt:output.obj
 0001:00035df4       ?state_count@?$format_validation_base@DV?$string_output_adapter@D@__crt_stdio_output@@@__crt_stdio_output@@KAIXZ 0000000140036df4 f i libucrt:output.obj
 0001:00035dfc       ?state_count@?$format_validation_base@_WV?$stream_output_adapter@_W@__crt_stdio_output@@@__crt_stdio_output@@KAIXZ 0000000140036dfc f i libucrt:output.obj
 0001:00035e04       ?state_count@?$format_validation_base@_WV?$string_output_adapter@_W@__crt_stdio_output@@@__crt_stdio_output@@KAIXZ 0000000140036e04 f i libucrt:output.obj
 0001:00035e0c       ?state_count@?$standard_base@DV?$stream_output_adapter@D@__crt_stdio_output@@@__crt_stdio_output@@KAIXZ 0000000140036e0c f i libucrt:output.obj
 0001:00035e14       ?state_count@?$standard_base@DV?$string_output_adapter@D@__crt_stdio_output@@@__crt_stdio_output@@KAIXZ 0000000140036e14 f i libucrt:output.obj
 0001:00035e1c       ?state_count@?$standard_base@_WV?$stream_output_adapter@_W@__crt_stdio_output@@@__crt_stdio_output@@KAIXZ 0000000140036e1c f i libucrt:output.obj
 0001:00035e24       ?state_count@?$standard_base@_WV?$string_output_adapter@_W@__crt_stdio_output@@@__crt_stdio_output@@KAIXZ 0000000140036e24 f i libucrt:output.obj
 0001:00035e2c       ?state_transition_table@?$format_validation_base@DV?$stream_output_adapter@D@__crt_stdio_output@@@__crt_stdio_output@@KAAEBV?$spectre_mitigated_lookup_table@Ustate_transition_pair@__crt_stdio_output@@$0IA@@2@XZ 0000000140036e2c f i libucrt:output.obj
 0001:00035e38       ?state_transition_table@?$format_validation_base@DV?$string_output_adapter@D@__crt_stdio_output@@@__crt_stdio_output@@KAAEBV?$spectre_mitigated_lookup_table@Ustate_transition_pair@__crt_stdio_output@@$0IA@@2@XZ 0000000140036e38 f i libucrt:output.obj
 0001:00035e44       ?state_transition_table@?$format_validation_base@_WV?$stream_output_adapter@_W@__crt_stdio_output@@@__crt_stdio_output@@KAAEBV?$spectre_mitigated_lookup_table@Ustate_transition_pair@__crt_stdio_output@@$0IA@@2@XZ 0000000140036e44 f i libucrt:output.obj
 0001:00035e50       ?state_transition_table@?$format_validation_base@_WV?$string_output_adapter@_W@__crt_stdio_output@@@__crt_stdio_output@@KAAEBV?$spectre_mitigated_lookup_table@Ustate_transition_pair@__crt_stdio_output@@$0IA@@2@XZ 0000000140036e50 f i libucrt:output.obj
 0001:00035e5c       ?state_transition_table@?$standard_base@DV?$stream_output_adapter@D@__crt_stdio_output@@@__crt_stdio_output@@KAAEBV?$spectre_mitigated_lookup_table@Ustate_transition_pair@__crt_stdio_output@@$0IA@@2@XZ 0000000140036e5c f i libucrt:output.obj
 0001:00035e68       ?state_transition_table@?$standard_base@DV?$string_output_adapter@D@__crt_stdio_output@@@__crt_stdio_output@@KAAEBV?$spectre_mitigated_lookup_table@Ustate_transition_pair@__crt_stdio_output@@$0IA@@2@XZ 0000000140036e68 f i libucrt:output.obj
 0001:00035e74       ?state_transition_table@?$standard_base@_WV?$stream_output_adapter@_W@__crt_stdio_output@@@__crt_stdio_output@@KAAEBV?$spectre_mitigated_lookup_table@Ustate_transition_pair@__crt_stdio_output@@$0IA@@2@XZ 0000000140036e74 f i libucrt:output.obj
 0001:00035e80       ?state_transition_table@?$standard_base@_WV?$string_output_adapter@_W@__crt_stdio_output@@@__crt_stdio_output@@KAAEBV?$spectre_mitigated_lookup_table@Ustate_transition_pair@__crt_stdio_output@@$0IA@@2@XZ 0000000140036e80 f i libucrt:output.obj
 0001:00035e8c       ?tchar_string@?$common_data@D@__crt_stdio_output@@IEAAAEAPEADD@Z 0000000140036e8c f i libucrt:output.obj
 0001:00035e94       ?tchar_string@?$common_data@D@__crt_stdio_output@@IEAAAEAPEADXZ 0000000140036e94 f i libucrt:output.obj
 0001:00035e9c       ?tchar_string@?$common_data@_W@__crt_stdio_output@@IEAAAEAPEA_WXZ 0000000140036e9c f i libucrt:output.obj
 0001:00035ea4       ?tchar_string@?$common_data@_W@__crt_stdio_output@@IEAAAEAPEA_W_W@Z 0000000140036ea4 f i libucrt:output.obj
 0001:00035eb0       ?to_integer_size@__crt_stdio_output@@YA_KW4length_modifier@1@@Z 0000000140036eb0 f i libucrt:output.obj
 0001:00035f34       ?type_case_X@?$output_processor@DV?$stream_output_adapter@D@__crt_stdio_output@@V?$format_validation_base@DV?$stream_output_adapter@D@__crt_stdio_output@@@2@@__crt_stdio_output@@AEAA_NXZ 0000000140036f34 f i libucrt:output.obj
 0001:00035f44       ?type_case_X@?$output_processor@DV?$stream_output_adapter@D@__crt_stdio_output@@V?$positional_parameter_base@DV?$stream_output_adapter@D@__crt_stdio_output@@@2@@__crt_stdio_output@@AEAA_NXZ 0000000140036f44 f i libucrt:output.obj
 0001:00035f54       ?type_case_X@?$output_processor@DV?$stream_output_adapter@D@__crt_stdio_output@@V?$standard_base@DV?$stream_output_adapter@D@__crt_stdio_output@@@2@@__crt_stdio_output@@AEAA_NXZ 0000000140036f54 f i libucrt:output.obj
 0001:00035f64       ?type_case_X@?$output_processor@DV?$string_output_adapter@D@__crt_stdio_output@@V?$format_validation_base@DV?$string_output_adapter@D@__crt_stdio_output@@@2@@__crt_stdio_output@@AEAA_NXZ 0000000140036f64 f i libucrt:output.obj
 0001:00035f74       ?type_case_X@?$output_processor@DV?$string_output_adapter@D@__crt_stdio_output@@V?$positional_parameter_base@DV?$string_output_adapter@D@__crt_stdio_output@@@2@@__crt_stdio_output@@AEAA_NXZ 0000000140036f74 f i libucrt:output.obj
 0001:00035f84       ?type_case_X@?$output_processor@DV?$string_output_adapter@D@__crt_stdio_output@@V?$standard_base@DV?$string_output_adapter@D@__crt_stdio_output@@@2@@__crt_stdio_output@@AEAA_NXZ 0000000140036f84 f i libucrt:output.obj
 0001:00035f94       ?type_case_X@?$output_processor@_WV?$stream_output_adapter@_W@__crt_stdio_output@@V?$format_validation_base@_WV?$stream_output_adapter@_W@__crt_stdio_output@@@2@@__crt_stdio_output@@AEAA_NXZ 0000000140036f94 f i libucrt:output.obj
 0001:00035fa4       ?type_case_X@?$output_processor@_WV?$stream_output_adapter@_W@__crt_stdio_output@@V?$positional_parameter_base@_WV?$stream_output_adapter@_W@__crt_stdio_output@@@2@@__crt_stdio_output@@AEAA_NXZ 0000000140036fa4 f i libucrt:output.obj
 0001:00035fb4       ?type_case_X@?$output_processor@_WV?$stream_output_adapter@_W@__crt_stdio_output@@V?$standard_base@_WV?$stream_output_adapter@_W@__crt_stdio_output@@@2@@__crt_stdio_output@@AEAA_NXZ 0000000140036fb4 f i libucrt:output.obj
 0001:00035fc4       ?type_case_X@?$output_processor@_WV?$string_output_adapter@_W@__crt_stdio_output@@V?$format_validation_base@_WV?$string_output_adapter@_W@__crt_stdio_output@@@2@@__crt_stdio_output@@AEAA_NXZ 0000000140036fc4 f i libucrt:output.obj
 0001:00035fd4       ?type_case_X@?$output_processor@_WV?$string_output_adapter@_W@__crt_stdio_output@@V?$positional_parameter_base@_WV?$string_output_adapter@_W@__crt_stdio_output@@@2@@__crt_stdio_output@@AEAA_NXZ 0000000140036fd4 f i libucrt:output.obj
 0001:00035fe4       ?type_case_X@?$output_processor@_WV?$string_output_adapter@_W@__crt_stdio_output@@V?$standard_base@_WV?$string_output_adapter@_W@__crt_stdio_output@@@2@@__crt_stdio_output@@AEAA_NXZ 0000000140036fe4 f i libucrt:output.obj
 0001:00035ff4       ?type_case_Z@?$output_processor@DV?$stream_output_adapter@D@__crt_stdio_output@@V?$format_validation_base@DV?$stream_output_adapter@D@__crt_stdio_output@@@2@@__crt_stdio_output@@AEAA_NXZ 0000000140036ff4 f i libucrt:output.obj
 0001:00036084       ?type_case_Z@?$output_processor@DV?$stream_output_adapter@D@__crt_stdio_output@@V?$positional_parameter_base@DV?$stream_output_adapter@D@__crt_stdio_output@@@2@@__crt_stdio_output@@AEAA_NXZ 0000000140037084 f i libucrt:output.obj
 0001:0003614c       ?type_case_Z@?$output_processor@DV?$stream_output_adapter@D@__crt_stdio_output@@V?$standard_base@DV?$stream_output_adapter@D@__crt_stdio_output@@@2@@__crt_stdio_output@@AEAA_NXZ 000000014003714c f i libucrt:output.obj
 0001:000361dc       ?type_case_Z@?$output_processor@DV?$string_output_adapter@D@__crt_stdio_output@@V?$format_validation_base@DV?$string_output_adapter@D@__crt_stdio_output@@@2@@__crt_stdio_output@@AEAA_NXZ 00000001400371dc f i libucrt:output.obj
 0001:0003626c       ?type_case_Z@?$output_processor@DV?$string_output_adapter@D@__crt_stdio_output@@V?$positional_parameter_base@DV?$string_output_adapter@D@__crt_stdio_output@@@2@@__crt_stdio_output@@AEAA_NXZ 000000014003726c f i libucrt:output.obj
 0001:00036334       ?type_case_Z@?$output_processor@DV?$string_output_adapter@D@__crt_stdio_output@@V?$standard_base@DV?$string_output_adapter@D@__crt_stdio_output@@@2@@__crt_stdio_output@@AEAA_NXZ 0000000140037334 f i libucrt:output.obj
 0001:000363c4       ?type_case_Z@?$output_processor@_WV?$stream_output_adapter@_W@__crt_stdio_output@@V?$format_validation_base@_WV?$stream_output_adapter@_W@__crt_stdio_output@@@2@@__crt_stdio_output@@AEAA_NXZ 00000001400373c4 f i libucrt:output.obj
 0001:0003645c       ?type_case_Z@?$output_processor@_WV?$stream_output_adapter@_W@__crt_stdio_output@@V?$positional_parameter_base@_WV?$stream_output_adapter@_W@__crt_stdio_output@@@2@@__crt_stdio_output@@AEAA_NXZ 000000014003745c f i libucrt:output.obj
 0001:00036518       ?type_case_Z@?$output_processor@_WV?$stream_output_adapter@_W@__crt_stdio_output@@V?$standard_base@_WV?$stream_output_adapter@_W@__crt_stdio_output@@@2@@__crt_stdio_output@@AEAA_NXZ 0000000140037518 f i libucrt:output.obj
 0001:000365b0       ?type_case_Z@?$output_processor@_WV?$string_output_adapter@_W@__crt_stdio_output@@V?$format_validation_base@_WV?$string_output_adapter@_W@__crt_stdio_output@@@2@@__crt_stdio_output@@AEAA_NXZ 00000001400375b0 f i libucrt:output.obj
 0001:00036648       ?type_case_Z@?$output_processor@_WV?$string_output_adapter@_W@__crt_stdio_output@@V?$positional_parameter_base@_WV?$string_output_adapter@_W@__crt_stdio_output@@@2@@__crt_stdio_output@@AEAA_NXZ 0000000140037648 f i libucrt:output.obj
 0001:00036704       ?type_case_Z@?$output_processor@_WV?$string_output_adapter@_W@__crt_stdio_output@@V?$standard_base@_WV?$string_output_adapter@_W@__crt_stdio_output@@@2@@__crt_stdio_output@@AEAA_NXZ 0000000140037704 f i libucrt:output.obj
 0001:0003679c       ?type_case_a@?$output_processor@DV?$stream_output_adapter@D@__crt_stdio_output@@V?$format_validation_base@DV?$stream_output_adapter@D@__crt_stdio_output@@@2@@__crt_stdio_output@@AEAA_NXZ 000000014003779c f i libucrt:output.obj
 0001:000369c8       ?type_case_a@?$output_processor@DV?$stream_output_adapter@D@__crt_stdio_output@@V?$positional_parameter_base@DV?$stream_output_adapter@D@__crt_stdio_output@@@2@@__crt_stdio_output@@AEAA_NXZ 00000001400379c8 f i libucrt:output.obj
 0001:00036c40       ?type_case_a@?$output_processor@DV?$stream_output_adapter@D@__crt_stdio_output@@V?$standard_base@DV?$stream_output_adapter@D@__crt_stdio_output@@@2@@__crt_stdio_output@@AEAA_NXZ 0000000140037c40 f i libucrt:output.obj
 0001:00036e6c       ?type_case_a@?$output_processor@DV?$string_output_adapter@D@__crt_stdio_output@@V?$format_validation_base@DV?$string_output_adapter@D@__crt_stdio_output@@@2@@__crt_stdio_output@@AEAA_NXZ 0000000140037e6c f i libucrt:output.obj
 0001:00037098       ?type_case_a@?$output_processor@DV?$string_output_adapter@D@__crt_stdio_output@@V?$positional_parameter_base@DV?$string_output_adapter@D@__crt_stdio_output@@@2@@__crt_stdio_output@@AEAA_NXZ 0000000140038098 f i libucrt:output.obj
 0001:00037310       ?type_case_a@?$output_processor@DV?$string_output_adapter@D@__crt_stdio_output@@V?$standard_base@DV?$string_output_adapter@D@__crt_stdio_output@@@2@@__crt_stdio_output@@AEAA_NXZ 0000000140038310 f i libucrt:output.obj
 0001:0003753c       ?type_case_a@?$output_processor@_WV?$stream_output_adapter@_W@__crt_stdio_output@@V?$format_validation_base@_WV?$stream_output_adapter@_W@__crt_stdio_output@@@2@@__crt_stdio_output@@AEAA_NXZ 000000014003853c f i libucrt:output.obj
 0001:00037794       ?type_case_a@?$output_processor@_WV?$stream_output_adapter@_W@__crt_stdio_output@@V?$positional_parameter_base@_WV?$stream_output_adapter@_W@__crt_stdio_output@@@2@@__crt_stdio_output@@AEAA_NXZ 0000000140038794 f i libucrt:output.obj
 0001:00037a38       ?type_case_a@?$output_processor@_WV?$stream_output_adapter@_W@__crt_stdio_output@@V?$standard_base@_WV?$stream_output_adapter@_W@__crt_stdio_output@@@2@@__crt_stdio_output@@AEAA_NXZ 0000000140038a38 f i libucrt:output.obj
 0001:00037c90       ?type_case_a@?$output_processor@_WV?$string_output_adapter@_W@__crt_stdio_output@@V?$format_validation_base@_WV?$string_output_adapter@_W@__crt_stdio_output@@@2@@__crt_stdio_output@@AEAA_NXZ 0000000140038c90 f i libucrt:output.obj
 0001:00037ee8       ?type_case_a@?$output_processor@_WV?$string_output_adapter@_W@__crt_stdio_output@@V?$positional_parameter_base@_WV?$string_output_adapter@_W@__crt_stdio_output@@@2@@__crt_stdio_output@@AEAA_NXZ 0000000140038ee8 f i libucrt:output.obj
 0001:0003818c       ?type_case_a@?$output_processor@_WV?$string_output_adapter@_W@__crt_stdio_output@@V?$standard_base@_WV?$string_output_adapter@_W@__crt_stdio_output@@@2@@__crt_stdio_output@@AEAA_NXZ 000000014003918c f i libucrt:output.obj
 0001:000383e4       ?type_case_c@?$output_processor@DV?$stream_output_adapter@D@__crt_stdio_output@@V?$format_validation_base@DV?$stream_output_adapter@D@__crt_stdio_output@@@2@@__crt_stdio_output@@AEAA_NXZ 00000001400393e4 f i libucrt:output.obj
 0001:000383ec       ?type_case_c@?$output_processor@DV?$stream_output_adapter@D@__crt_stdio_output@@V?$positional_parameter_base@DV?$stream_output_adapter@D@__crt_stdio_output@@@2@@__crt_stdio_output@@AEAA_NXZ 00000001400393ec f i libucrt:output.obj
 0001:000383f4       ?type_case_c@?$output_processor@DV?$stream_output_adapter@D@__crt_stdio_output@@V?$standard_base@DV?$stream_output_adapter@D@__crt_stdio_output@@@2@@__crt_stdio_output@@AEAA_NXZ 00000001400393f4 f i libucrt:output.obj
 0001:000383fc       ?type_case_c@?$output_processor@DV?$string_output_adapter@D@__crt_stdio_output@@V?$format_validation_base@DV?$string_output_adapter@D@__crt_stdio_output@@@2@@__crt_stdio_output@@AEAA_NXZ 00000001400393fc f i libucrt:output.obj
 0001:00038404       ?type_case_c@?$output_processor@DV?$string_output_adapter@D@__crt_stdio_output@@V?$positional_parameter_base@DV?$string_output_adapter@D@__crt_stdio_output@@@2@@__crt_stdio_output@@AEAA_NXZ 0000000140039404 f i libucrt:output.obj
 0001:0003840c       ?type_case_c@?$output_processor@DV?$string_output_adapter@D@__crt_stdio_output@@V?$standard_base@DV?$string_output_adapter@D@__crt_stdio_output@@@2@@__crt_stdio_output@@AEAA_NXZ 000000014003940c f i libucrt:output.obj
 0001:00038414       ?type_case_c@?$output_processor@_WV?$stream_output_adapter@_W@__crt_stdio_output@@V?$format_validation_base@_WV?$stream_output_adapter@_W@__crt_stdio_output@@@2@@__crt_stdio_output@@AEAA_NXZ 0000000140039414 f i libucrt:output.obj
 0001:0003841c       ?type_case_c@?$output_processor@_WV?$stream_output_adapter@_W@__crt_stdio_output@@V?$positional_parameter_base@_WV?$stream_output_adapter@_W@__crt_stdio_output@@@2@@__crt_stdio_output@@AEAA_NXZ 000000014003941c f i libucrt:output.obj
 0001:00038424       ?type_case_c@?$output_processor@_WV?$stream_output_adapter@_W@__crt_stdio_output@@V?$standard_base@_WV?$stream_output_adapter@_W@__crt_stdio_output@@@2@@__crt_stdio_output@@AEAA_NXZ 0000000140039424 f i libucrt:output.obj
 0001:0003842c       ?type_case_c@?$output_processor@_WV?$string_output_adapter@_W@__crt_stdio_output@@V?$format_validation_base@_WV?$string_output_adapter@_W@__crt_stdio_output@@@2@@__crt_stdio_output@@AEAA_NXZ 000000014003942c f i libucrt:output.obj
 0001:00038434       ?type_case_c@?$output_processor@_WV?$string_output_adapter@_W@__crt_stdio_output@@V?$positional_parameter_base@_WV?$string_output_adapter@_W@__crt_stdio_output@@@2@@__crt_stdio_output@@AEAA_NXZ 0000000140039434 f i libucrt:output.obj
 0001:0003843c       ?type_case_c@?$output_processor@_WV?$string_output_adapter@_W@__crt_stdio_output@@V?$standard_base@_WV?$string_output_adapter@_W@__crt_stdio_output@@@2@@__crt_stdio_output@@AEAA_NXZ 000000014003943c f i libucrt:output.obj
 0001:00038444       ?type_case_c_tchar@?$output_processor@DV?$stream_output_adapter@D@__crt_stdio_output@@V?$format_validation_base@DV?$stream_output_adapter@D@__crt_stdio_output@@@2@@__crt_stdio_output@@AEAA_ND@Z 0000000140039444 f i libucrt:output.obj
 0001:0003853c       ?type_case_c_tchar@?$output_processor@DV?$stream_output_adapter@D@__crt_stdio_output@@V?$positional_parameter_base@DV?$stream_output_adapter@D@__crt_stdio_output@@@2@@__crt_stdio_output@@AEAA_ND@Z 000000014003953c f i libucrt:output.obj
 0001:0003868c       ?type_case_c_tchar@?$output_processor@DV?$stream_output_adapter@D@__crt_stdio_output@@V?$standard_base@DV?$stream_output_adapter@D@__crt_stdio_output@@@2@@__crt_stdio_output@@AEAA_ND@Z 000000014003968c f i libucrt:output.obj
 0001:00038784       ?type_case_c_tchar@?$output_processor@DV?$string_output_adapter@D@__crt_stdio_output@@V?$format_validation_base@DV?$string_output_adapter@D@__crt_stdio_output@@@2@@__crt_stdio_output@@AEAA_ND@Z 0000000140039784 f i libucrt:output.obj
 0001:0003887c       ?type_case_c_tchar@?$output_processor@DV?$string_output_adapter@D@__crt_stdio_output@@V?$positional_parameter_base@DV?$string_output_adapter@D@__crt_stdio_output@@@2@@__crt_stdio_output@@AEAA_ND@Z 000000014003987c f i libucrt:output.obj
 0001:000389cc       ?type_case_c_tchar@?$output_processor@DV?$string_output_adapter@D@__crt_stdio_output@@V?$standard_base@DV?$string_output_adapter@D@__crt_stdio_output@@@2@@__crt_stdio_output@@AEAA_ND@Z 00000001400399cc f i libucrt:output.obj
 0001:00038ac4       ?type_case_c_tchar@?$output_processor@_WV?$stream_output_adapter@_W@__crt_stdio_output@@V?$format_validation_base@_WV?$stream_output_adapter@_W@__crt_stdio_output@@@2@@__crt_stdio_output@@AEAA_N_W@Z 0000000140039ac4 f i libucrt:output.obj
 0001:00038b94       ?type_case_c_tchar@?$output_processor@_WV?$stream_output_adapter@_W@__crt_stdio_output@@V?$positional_parameter_base@_WV?$stream_output_adapter@_W@__crt_stdio_output@@@2@@__crt_stdio_output@@AEAA_N_W@Z 0000000140039b94 f i libucrt:output.obj
 0001:00038c94       ?type_case_c_tchar@?$output_processor@_WV?$stream_output_adapter@_W@__crt_stdio_output@@V?$standard_base@_WV?$stream_output_adapter@_W@__crt_stdio_output@@@2@@__crt_stdio_output@@AEAA_N_W@Z 0000000140039c94 f i libucrt:output.obj
 0001:00038d64       ?type_case_c_tchar@?$output_processor@_WV?$string_output_adapter@_W@__crt_stdio_output@@V?$format_validation_base@_WV?$string_output_adapter@_W@__crt_stdio_output@@@2@@__crt_stdio_output@@AEAA_N_W@Z 0000000140039d64 f i libucrt:output.obj
 0001:00038e34       ?type_case_c_tchar@?$output_processor@_WV?$string_output_adapter@_W@__crt_stdio_output@@V?$positional_parameter_base@_WV?$string_output_adapter@_W@__crt_stdio_output@@@2@@__crt_stdio_output@@AEAA_N_W@Z 0000000140039e34 f i libucrt:output.obj
 0001:00038f34       ?type_case_c_tchar@?$output_processor@_WV?$string_output_adapter@_W@__crt_stdio_output@@V?$standard_base@_WV?$string_output_adapter@_W@__crt_stdio_output@@@2@@__crt_stdio_output@@AEAA_N_W@Z 0000000140039f34 f i libucrt:output.obj
 0001:00039004       ?type_case_d@?$output_processor@DV?$stream_output_adapter@D@__crt_stdio_output@@V?$format_validation_base@DV?$stream_output_adapter@D@__crt_stdio_output@@@2@@__crt_stdio_output@@AEAA_NXZ 000000014003a004 f i libucrt:output.obj
 0001:00039018       ?type_case_d@?$output_processor@DV?$stream_output_adapter@D@__crt_stdio_output@@V?$positional_parameter_base@DV?$stream_output_adapter@D@__crt_stdio_output@@@2@@__crt_stdio_output@@AEAA_NXZ 000000014003a018 f i libucrt:output.obj
 0001:0003902c       ?type_case_d@?$output_processor@DV?$stream_output_adapter@D@__crt_stdio_output@@V?$standard_base@DV?$stream_output_adapter@D@__crt_stdio_output@@@2@@__crt_stdio_output@@AEAA_NXZ 000000014003a02c f i libucrt:output.obj
 0001:00039040       ?type_case_d@?$output_processor@DV?$string_output_adapter@D@__crt_stdio_output@@V?$format_validation_base@DV?$string_output_adapter@D@__crt_stdio_output@@@2@@__crt_stdio_output@@AEAA_NXZ 000000014003a040 f i libucrt:output.obj
 0001:00039054       ?type_case_d@?$output_processor@DV?$string_output_adapter@D@__crt_stdio_output@@V?$positional_parameter_base@DV?$string_output_adapter@D@__crt_stdio_output@@@2@@__crt_stdio_output@@AEAA_NXZ 000000014003a054 f i libucrt:output.obj
 0001:00039068       ?type_case_d@?$output_processor@DV?$string_output_adapter@D@__crt_stdio_output@@V?$standard_base@DV?$string_output_adapter@D@__crt_stdio_output@@@2@@__crt_stdio_output@@AEAA_NXZ 000000014003a068 f i libucrt:output.obj
 0001:0003907c       ?type_case_d@?$output_processor@_WV?$stream_output_adapter@_W@__crt_stdio_output@@V?$format_validation_base@_WV?$stream_output_adapter@_W@__crt_stdio_output@@@2@@__crt_stdio_output@@AEAA_NXZ 000000014003a07c f i libucrt:output.obj
 0001:00039090       ?type_case_d@?$output_processor@_WV?$stream_output_adapter@_W@__crt_stdio_output@@V?$positional_parameter_base@_WV?$stream_output_adapter@_W@__crt_stdio_output@@@2@@__crt_stdio_output@@AEAA_NXZ 000000014003a090 f i libucrt:output.obj
 0001:000390a4       ?type_case_d@?$output_processor@_WV?$stream_output_adapter@_W@__crt_stdio_output@@V?$standard_base@_WV?$stream_output_adapter@_W@__crt_stdio_output@@@2@@__crt_stdio_output@@AEAA_NXZ 000000014003a0a4 f i libucrt:output.obj
 0001:000390b8       ?type_case_d@?$output_processor@_WV?$string_output_adapter@_W@__crt_stdio_output@@V?$format_validation_base@_WV?$string_output_adapter@_W@__crt_stdio_output@@@2@@__crt_stdio_output@@AEAA_NXZ 000000014003a0b8 f i libucrt:output.obj
 0001:000390cc       ?type_case_d@?$output_processor@_WV?$string_output_adapter@_W@__crt_stdio_output@@V?$positional_parameter_base@_WV?$string_output_adapter@_W@__crt_stdio_output@@@2@@__crt_stdio_output@@AEAA_NXZ 000000014003a0cc f i libucrt:output.obj
 0001:000390e0       ?type_case_d@?$output_processor@_WV?$string_output_adapter@_W@__crt_stdio_output@@V?$standard_base@_WV?$string_output_adapter@_W@__crt_stdio_output@@@2@@__crt_stdio_output@@AEAA_NXZ 000000014003a0e0 f i libucrt:output.obj
 0001:000390f4       ?type_case_integer@?$output_processor@DV?$stream_output_adapter@D@__crt_stdio_output@@V?$format_validation_base@DV?$stream_output_adapter@D@__crt_stdio_output@@@2@@__crt_stdio_output@@AEAA_NI_N@Z 000000014003a0f4 f i libucrt:output.obj
 0001:000392d4       ?type_case_integer@?$output_processor@DV?$stream_output_adapter@D@__crt_stdio_output@@V?$positional_parameter_base@DV?$stream_output_adapter@D@__crt_stdio_output@@@2@@__crt_stdio_output@@AEAA_NI_N@Z 000000014003a2d4 f i libucrt:output.obj
 0001:000394e8       ?type_case_integer@?$output_processor@DV?$stream_output_adapter@D@__crt_stdio_output@@V?$standard_base@DV?$stream_output_adapter@D@__crt_stdio_output@@@2@@__crt_stdio_output@@AEAA_NI_N@Z 000000014003a4e8 f i libucrt:output.obj
 0001:000396c8       ?type_case_integer@?$output_processor@DV?$string_output_adapter@D@__crt_stdio_output@@V?$format_validation_base@DV?$string_output_adapter@D@__crt_stdio_output@@@2@@__crt_stdio_output@@AEAA_NI_N@Z 000000014003a6c8 f i libucrt:output.obj
 0001:000398a8       ?type_case_integer@?$output_processor@DV?$string_output_adapter@D@__crt_stdio_output@@V?$positional_parameter_base@DV?$string_output_adapter@D@__crt_stdio_output@@@2@@__crt_stdio_output@@AEAA_NI_N@Z 000000014003a8a8 f i libucrt:output.obj
 0001:00039abc       ?type_case_integer@?$output_processor@DV?$string_output_adapter@D@__crt_stdio_output@@V?$standard_base@DV?$string_output_adapter@D@__crt_stdio_output@@@2@@__crt_stdio_output@@AEAA_NI_N@Z 000000014003aabc f i libucrt:output.obj
 0001:00039c9c       ?type_case_integer@?$output_processor@_WV?$stream_output_adapter@_W@__crt_stdio_output@@V?$format_validation_base@_WV?$stream_output_adapter@_W@__crt_stdio_output@@@2@@__crt_stdio_output@@AEAA_NI_N@Z 000000014003ac9c f i libucrt:output.obj
 0001:00039e84       ?type_case_integer@?$output_processor@_WV?$stream_output_adapter@_W@__crt_stdio_output@@V?$positional_parameter_base@_WV?$stream_output_adapter@_W@__crt_stdio_output@@@2@@__crt_stdio_output@@AEAA_NI_N@Z 000000014003ae84 f i libucrt:output.obj
 0001:0003a0a0       ?type_case_integer@?$output_processor@_WV?$stream_output_adapter@_W@__crt_stdio_output@@V?$standard_base@_WV?$stream_output_adapter@_W@__crt_stdio_output@@@2@@__crt_stdio_output@@AEAA_NI_N@Z 000000014003b0a0 f i libucrt:output.obj
 0001:0003a288       ?type_case_integer@?$output_processor@_WV?$string_output_adapter@_W@__crt_stdio_output@@V?$format_validation_base@_WV?$string_output_adapter@_W@__crt_stdio_output@@@2@@__crt_stdio_output@@AEAA_NI_N@Z 000000014003b288 f i libucrt:output.obj
 0001:0003a470       ?type_case_integer@?$output_processor@_WV?$string_output_adapter@_W@__crt_stdio_output@@V?$positional_parameter_base@_WV?$string_output_adapter@_W@__crt_stdio_output@@@2@@__crt_stdio_output@@AEAA_NI_N@Z 000000014003b470 f i libucrt:output.obj
 0001:0003a68c       ?type_case_integer@?$output_processor@_WV?$string_output_adapter@_W@__crt_stdio_output@@V?$standard_base@_WV?$string_output_adapter@_W@__crt_stdio_output@@@2@@__crt_stdio_output@@AEAA_NI_N@Z 000000014003b68c f i libucrt:output.obj
 0001:0003a874       ?type_case_n@?$output_processor@DV?$stream_output_adapter@D@__crt_stdio_output@@V?$format_validation_base@DV?$stream_output_adapter@D@__crt_stdio_output@@@2@@__crt_stdio_output@@AEAA_NXZ 000000014003b874 f i libucrt:output.obj
 0001:0003a91c       ?type_case_n@?$output_processor@DV?$stream_output_adapter@D@__crt_stdio_output@@V?$positional_parameter_base@DV?$stream_output_adapter@D@__crt_stdio_output@@@2@@__crt_stdio_output@@AEAA_NXZ 000000014003b91c f i libucrt:output.obj
 0001:0003a9f8       ?type_case_n@?$output_processor@DV?$stream_output_adapter@D@__crt_stdio_output@@V?$standard_base@DV?$stream_output_adapter@D@__crt_stdio_output@@@2@@__crt_stdio_output@@AEAA_NXZ 000000014003b9f8 f i libucrt:output.obj
 0001:0003aaa0       ?type_case_n@?$output_processor@DV?$string_output_adapter@D@__crt_stdio_output@@V?$format_validation_base@DV?$string_output_adapter@D@__crt_stdio_output@@@2@@__crt_stdio_output@@AEAA_NXZ 000000014003baa0 f i libucrt:output.obj
 0001:0003ab48       ?type_case_n@?$output_processor@DV?$string_output_adapter@D@__crt_stdio_output@@V?$positional_parameter_base@DV?$string_output_adapter@D@__crt_stdio_output@@@2@@__crt_stdio_output@@AEAA_NXZ 000000014003bb48 f i libucrt:output.obj
 0001:0003ac24       ?type_case_n@?$output_processor@DV?$string_output_adapter@D@__crt_stdio_output@@V?$standard_base@DV?$string_output_adapter@D@__crt_stdio_output@@@2@@__crt_stdio_output@@AEAA_NXZ 000000014003bc24 f i libucrt:output.obj
 0001:0003accc       ?type_case_n@?$output_processor@_WV?$stream_output_adapter@_W@__crt_stdio_output@@V?$format_validation_base@_WV?$stream_output_adapter@_W@__crt_stdio_output@@@2@@__crt_stdio_output@@AEAA_NXZ 000000014003bccc f i libucrt:output.obj
 0001:0003ad74       ?type_case_n@?$output_processor@_WV?$stream_output_adapter@_W@__crt_stdio_output@@V?$positional_parameter_base@_WV?$stream_output_adapter@_W@__crt_stdio_output@@@2@@__crt_stdio_output@@AEAA_NXZ 000000014003bd74 f i libucrt:output.obj
 0001:0003ae50       ?type_case_n@?$output_processor@_WV?$stream_output_adapter@_W@__crt_stdio_output@@V?$standard_base@_WV?$stream_output_adapter@_W@__crt_stdio_output@@@2@@__crt_stdio_output@@AEAA_NXZ 000000014003be50 f i libucrt:output.obj
 0001:0003aef8       ?type_case_n@?$output_processor@_WV?$string_output_adapter@_W@__crt_stdio_output@@V?$format_validation_base@_WV?$string_output_adapter@_W@__crt_stdio_output@@@2@@__crt_stdio_output@@AEAA_NXZ 000000014003bef8 f i libucrt:output.obj
 0001:0003afa0       ?type_case_n@?$output_processor@_WV?$string_output_adapter@_W@__crt_stdio_output@@V?$positional_parameter_base@_WV?$string_output_adapter@_W@__crt_stdio_output@@@2@@__crt_stdio_output@@AEAA_NXZ 000000014003bfa0 f i libucrt:output.obj
 0001:0003b07c       ?type_case_n@?$output_processor@_WV?$string_output_adapter@_W@__crt_stdio_output@@V?$standard_base@_WV?$string_output_adapter@_W@__crt_stdio_output@@@2@@__crt_stdio_output@@AEAA_NXZ 000000014003c07c f i libucrt:output.obj
 0001:0003b124       ?type_case_o@?$output_processor@DV?$stream_output_adapter@D@__crt_stdio_output@@V?$format_validation_base@DV?$stream_output_adapter@D@__crt_stdio_output@@@2@@__crt_stdio_output@@AEAA_NXZ 000000014003c124 f i libucrt:output.obj
 0001:0003b14c       ?type_case_o@?$output_processor@DV?$stream_output_adapter@D@__crt_stdio_output@@V?$positional_parameter_base@DV?$stream_output_adapter@D@__crt_stdio_output@@@2@@__crt_stdio_output@@AEAA_NXZ 000000014003c14c f i libucrt:output.obj
 0001:0003b174       ?type_case_o@?$output_processor@DV?$stream_output_adapter@D@__crt_stdio_output@@V?$standard_base@DV?$stream_output_adapter@D@__crt_stdio_output@@@2@@__crt_stdio_output@@AEAA_NXZ 000000014003c174 f i libucrt:output.obj
 0001:0003b19c       ?type_case_o@?$output_processor@DV?$string_output_adapter@D@__crt_stdio_output@@V?$format_validation_base@DV?$string_output_adapter@D@__crt_stdio_output@@@2@@__crt_stdio_output@@AEAA_NXZ 000000014003c19c f i libucrt:output.obj
 0001:0003b1c4       ?type_case_o@?$output_processor@DV?$string_output_adapter@D@__crt_stdio_output@@V?$positional_parameter_base@DV?$string_output_adapter@D@__crt_stdio_output@@@2@@__crt_stdio_output@@AEAA_NXZ 000000014003c1c4 f i libucrt:output.obj
 0001:0003b1ec       ?type_case_o@?$output_processor@DV?$string_output_adapter@D@__crt_stdio_output@@V?$standard_base@DV?$string_output_adapter@D@__crt_stdio_output@@@2@@__crt_stdio_output@@AEAA_NXZ 000000014003c1ec f i libucrt:output.obj
 0001:0003b214       ?type_case_o@?$output_processor@_WV?$stream_output_adapter@_W@__crt_stdio_output@@V?$format_validation_base@_WV?$stream_output_adapter@_W@__crt_stdio_output@@@2@@__crt_stdio_output@@AEAA_NXZ 000000014003c214 f i libucrt:output.obj
 0001:0003b23c       ?type_case_o@?$output_processor@_WV?$stream_output_adapter@_W@__crt_stdio_output@@V?$positional_parameter_base@_WV?$stream_output_adapter@_W@__crt_stdio_output@@@2@@__crt_stdio_output@@AEAA_NXZ 000000014003c23c f i libucrt:output.obj
 0001:0003b264       ?type_case_o@?$output_processor@_WV?$stream_output_adapter@_W@__crt_stdio_output@@V?$standard_base@_WV?$stream_output_adapter@_W@__crt_stdio_output@@@2@@__crt_stdio_output@@AEAA_NXZ 000000014003c264 f i libucrt:output.obj
 0001:0003b28c       ?type_case_o@?$output_processor@_WV?$string_output_adapter@_W@__crt_stdio_output@@V?$format_validation_base@_WV?$string_output_adapter@_W@__crt_stdio_output@@@2@@__crt_stdio_output@@AEAA_NXZ 000000014003c28c f i libucrt:output.obj
 0001:0003b2b4       ?type_case_o@?$output_processor@_WV?$string_output_adapter@_W@__crt_stdio_output@@V?$positional_parameter_base@_WV?$string_output_adapter@_W@__crt_stdio_output@@@2@@__crt_stdio_output@@AEAA_NXZ 000000014003c2b4 f i libucrt:output.obj
 0001:0003b2dc       ?type_case_o@?$output_processor@_WV?$string_output_adapter@_W@__crt_stdio_output@@V?$standard_base@_WV?$string_output_adapter@_W@__crt_stdio_output@@@2@@__crt_stdio_output@@AEAA_NXZ 000000014003c2dc f i libucrt:output.obj
 0001:0003b304       ?type_case_p@?$output_processor@DV?$stream_output_adapter@D@__crt_stdio_output@@V?$format_validation_base@DV?$stream_output_adapter@D@__crt_stdio_output@@@2@@__crt_stdio_output@@AEAA_NXZ 000000014003c304 f i libucrt:output.obj
 0001:0003b320       ?type_case_p@?$output_processor@DV?$stream_output_adapter@D@__crt_stdio_output@@V?$positional_parameter_base@DV?$stream_output_adapter@D@__crt_stdio_output@@@2@@__crt_stdio_output@@AEAA_NXZ 000000014003c320 f i libucrt:output.obj
 0001:0003b33c       ?type_case_p@?$output_processor@DV?$stream_output_adapter@D@__crt_stdio_output@@V?$standard_base@DV?$stream_output_adapter@D@__crt_stdio_output@@@2@@__crt_stdio_output@@AEAA_NXZ 000000014003c33c f i libucrt:output.obj
 0001:0003b358       ?type_case_p@?$output_processor@DV?$string_output_adapter@D@__crt_stdio_output@@V?$format_validation_base@DV?$string_output_adapter@D@__crt_stdio_output@@@2@@__crt_stdio_output@@AEAA_NXZ 000000014003c358 f i libucrt:output.obj
 0001:0003b374       ?type_case_p@?$output_processor@DV?$string_output_adapter@D@__crt_stdio_output@@V?$positional_parameter_base@DV?$string_output_adapter@D@__crt_stdio_output@@@2@@__crt_stdio_output@@AEAA_NXZ 000000014003c374 f i libucrt:output.obj
 0001:0003b390       ?type_case_p@?$output_processor@DV?$string_output_adapter@D@__crt_stdio_output@@V?$standard_base@DV?$string_output_adapter@D@__crt_stdio_output@@@2@@__crt_stdio_output@@AEAA_NXZ 000000014003c390 f i libucrt:output.obj
 0001:0003b3ac       ?type_case_p@?$output_processor@_WV?$stream_output_adapter@_W@__crt_stdio_output@@V?$format_validation_base@_WV?$stream_output_adapter@_W@__crt_stdio_output@@@2@@__crt_stdio_output@@AEAA_NXZ 000000014003c3ac f i libucrt:output.obj
 0001:0003b3c8       ?type_case_p@?$output_processor@_WV?$stream_output_adapter@_W@__crt_stdio_output@@V?$positional_parameter_base@_WV?$stream_output_adapter@_W@__crt_stdio_output@@@2@@__crt_stdio_output@@AEAA_NXZ 000000014003c3c8 f i libucrt:output.obj
 0001:0003b3e4       ?type_case_p@?$output_processor@_WV?$stream_output_adapter@_W@__crt_stdio_output@@V?$standard_base@_WV?$stream_output_adapter@_W@__crt_stdio_output@@@2@@__crt_stdio_output@@AEAA_NXZ 000000014003c3e4 f i libucrt:output.obj
 0001:0003b400       ?type_case_p@?$output_processor@_WV?$string_output_adapter@_W@__crt_stdio_output@@V?$format_validation_base@_WV?$string_output_adapter@_W@__crt_stdio_output@@@2@@__crt_stdio_output@@AEAA_NXZ 000000014003c400 f i libucrt:output.obj
 0001:0003b41c       ?type_case_p@?$output_processor@_WV?$string_output_adapter@_W@__crt_stdio_output@@V?$positional_parameter_base@_WV?$string_output_adapter@_W@__crt_stdio_output@@@2@@__crt_stdio_output@@AEAA_NXZ 000000014003c41c f i libucrt:output.obj
 0001:0003b438       ?type_case_p@?$output_processor@_WV?$string_output_adapter@_W@__crt_stdio_output@@V?$standard_base@_WV?$string_output_adapter@_W@__crt_stdio_output@@@2@@__crt_stdio_output@@AEAA_NXZ 000000014003c438 f i libucrt:output.obj
 0001:0003b454       ?type_case_s@?$output_processor@DV?$stream_output_adapter@D@__crt_stdio_output@@V?$format_validation_base@DV?$stream_output_adapter@D@__crt_stdio_output@@@2@@__crt_stdio_output@@AEAA_NXZ 000000014003c454 f i libucrt:output.obj
 0001:0003b510       ?type_case_s@?$output_processor@DV?$stream_output_adapter@D@__crt_stdio_output@@V?$positional_parameter_base@DV?$stream_output_adapter@D@__crt_stdio_output@@@2@@__crt_stdio_output@@AEAA_NXZ 000000014003c510 f i libucrt:output.obj
 0001:0003b5f4       ?type_case_s@?$output_processor@DV?$stream_output_adapter@D@__crt_stdio_output@@V?$standard_base@DV?$stream_output_adapter@D@__crt_stdio_output@@@2@@__crt_stdio_output@@AEAA_NXZ 000000014003c5f4 f i libucrt:output.obj
 0001:0003b6b0       ?type_case_s@?$output_processor@DV?$string_output_adapter@D@__crt_stdio_output@@V?$format_validation_base@DV?$string_output_adapter@D@__crt_stdio_output@@@2@@__crt_stdio_output@@AEAA_NXZ 000000014003c6b0 f i libucrt:output.obj
 0001:0003b76c       ?type_case_s@?$output_processor@DV?$string_output_adapter@D@__crt_stdio_output@@V?$positional_parameter_base@DV?$string_output_adapter@D@__crt_stdio_output@@@2@@__crt_stdio_output@@AEAA_NXZ 000000014003c76c f i libucrt:output.obj
 0001:0003b850       ?type_case_s@?$output_processor@DV?$string_output_adapter@D@__crt_stdio_output@@V?$standard_base@DV?$string_output_adapter@D@__crt_stdio_output@@@2@@__crt_stdio_output@@AEAA_NXZ 000000014003c850 f i libucrt:output.obj
 0001:0003b90c       ?type_case_s@?$output_processor@_WV?$stream_output_adapter@_W@__crt_stdio_output@@V?$format_validation_base@_WV?$stream_output_adapter@_W@__crt_stdio_output@@@2@@__crt_stdio_output@@AEAA_NXZ 000000014003c90c f i libucrt:output.obj
 0001:0003ba04       ?type_case_s@?$output_processor@_WV?$stream_output_adapter@_W@__crt_stdio_output@@V?$positional_parameter_base@_WV?$stream_output_adapter@_W@__crt_stdio_output@@@2@@__crt_stdio_output@@AEAA_NXZ 000000014003ca04 f i libucrt:output.obj
 0001:0003bb28       ?type_case_s@?$output_processor@_WV?$stream_output_adapter@_W@__crt_stdio_output@@V?$standard_base@_WV?$stream_output_adapter@_W@__crt_stdio_output@@@2@@__crt_stdio_output@@AEAA_NXZ 000000014003cb28 f i libucrt:output.obj
 0001:0003bc20       ?type_case_s@?$output_processor@_WV?$string_output_adapter@_W@__crt_stdio_output@@V?$format_validation_base@_WV?$string_output_adapter@_W@__crt_stdio_output@@@2@@__crt_stdio_output@@AEAA_NXZ 000000014003cc20 f i libucrt:output.obj
 0001:0003bd18       ?type_case_s@?$output_processor@_WV?$string_output_adapter@_W@__crt_stdio_output@@V?$positional_parameter_base@_WV?$string_output_adapter@_W@__crt_stdio_output@@@2@@__crt_stdio_output@@AEAA_NXZ 000000014003cd18 f i libucrt:output.obj
 0001:0003be3c       ?type_case_s@?$output_processor@_WV?$string_output_adapter@_W@__crt_stdio_output@@V?$standard_base@_WV?$string_output_adapter@_W@__crt_stdio_output@@@2@@__crt_stdio_output@@AEAA_NXZ 000000014003ce3c f i libucrt:output.obj
 0001:0003bf34       ?type_case_s_compute_narrow_string_length@?$output_processor@DV?$stream_output_adapter@D@__crt_stdio_output@@V?$format_validation_base@DV?$stream_output_adapter@D@__crt_stdio_output@@@2@@__crt_stdio_output@@AEBAHHD@Z 000000014003cf34 f i libucrt:output.obj
 0001:0003bf44       ?type_case_s_compute_narrow_string_length@?$output_processor@DV?$stream_output_adapter@D@__crt_stdio_output@@V?$positional_parameter_base@DV?$stream_output_adapter@D@__crt_stdio_output@@@2@@__crt_stdio_output@@AEBAHHD@Z 000000014003cf44 f i libucrt:output.obj
 0001:0003bf54       ?type_case_s_compute_narrow_string_length@?$output_processor@DV?$stream_output_adapter@D@__crt_stdio_output@@V?$standard_base@DV?$stream_output_adapter@D@__crt_stdio_output@@@2@@__crt_stdio_output@@AEBAHHD@Z 000000014003cf54 f i libucrt:output.obj
 0001:0003bf64       ?type_case_s_compute_narrow_string_length@?$output_processor@DV?$string_output_adapter@D@__crt_stdio_output@@V?$format_validation_base@DV?$string_output_adapter@D@__crt_stdio_output@@@2@@__crt_stdio_output@@AEBAHHD@Z 000000014003cf64 f i libucrt:output.obj
 0001:0003bf74       ?type_case_s_compute_narrow_string_length@?$output_processor@DV?$string_output_adapter@D@__crt_stdio_output@@V?$positional_parameter_base@DV?$string_output_adapter@D@__crt_stdio_output@@@2@@__crt_stdio_output@@AEBAHHD@Z 000000014003cf74 f i libucrt:output.obj
 0001:0003bf84       ?type_case_s_compute_narrow_string_length@?$output_processor@DV?$string_output_adapter@D@__crt_stdio_output@@V?$standard_base@DV?$string_output_adapter@D@__crt_stdio_output@@@2@@__crt_stdio_output@@AEBAHHD@Z 000000014003cf84 f i libucrt:output.obj
 0001:0003bf94       ?type_case_s_compute_narrow_string_length@?$output_processor@_WV?$stream_output_adapter@_W@__crt_stdio_output@@V?$format_validation_base@_WV?$stream_output_adapter@_W@__crt_stdio_output@@@2@@__crt_stdio_output@@AEBAHH_W@Z 000000014003cf94 f i libucrt:output.obj
 0001:0003bffc       ?type_case_s_compute_narrow_string_length@?$output_processor@_WV?$stream_output_adapter@_W@__crt_stdio_output@@V?$positional_parameter_base@_WV?$stream_output_adapter@_W@__crt_stdio_output@@@2@@__crt_stdio_output@@AEBAHH_W@Z 000000014003cffc f i libucrt:output.obj
 0001:0003c064       ?type_case_s_compute_narrow_string_length@?$output_processor@_WV?$stream_output_adapter@_W@__crt_stdio_output@@V?$standard_base@_WV?$stream_output_adapter@_W@__crt_stdio_output@@@2@@__crt_stdio_output@@AEBAHH_W@Z 000000014003d064 f i libucrt:output.obj
 0001:0003c0cc       ?type_case_s_compute_narrow_string_length@?$output_processor@_WV?$string_output_adapter@_W@__crt_stdio_output@@V?$format_validation_base@_WV?$string_output_adapter@_W@__crt_stdio_output@@@2@@__crt_stdio_output@@AEBAHH_W@Z 000000014003d0cc f i libucrt:output.obj
 0001:0003c134       ?type_case_s_compute_narrow_string_length@?$output_processor@_WV?$string_output_adapter@_W@__crt_stdio_output@@V?$positional_parameter_base@_WV?$string_output_adapter@_W@__crt_stdio_output@@@2@@__crt_stdio_output@@AEBAHH_W@Z 000000014003d134 f i libucrt:output.obj
 0001:0003c19c       ?type_case_s_compute_narrow_string_length@?$output_processor@_WV?$string_output_adapter@_W@__crt_stdio_output@@V?$standard_base@_WV?$string_output_adapter@_W@__crt_stdio_output@@@2@@__crt_stdio_output@@AEBAHH_W@Z 000000014003d19c f i libucrt:output.obj
 0001:0003c204       ?type_case_u@?$output_processor@DV?$stream_output_adapter@D@__crt_stdio_output@@V?$format_validation_base@DV?$stream_output_adapter@D@__crt_stdio_output@@@2@@__crt_stdio_output@@AEAA_NXZ 000000014003d204 f i libucrt:output.obj
 0001:0003c214       ?type_case_u@?$output_processor@DV?$stream_output_adapter@D@__crt_stdio_output@@V?$positional_parameter_base@DV?$stream_output_adapter@D@__crt_stdio_output@@@2@@__crt_stdio_output@@AEAA_NXZ 000000014003d214 f i libucrt:output.obj
 0001:0003c224       ?type_case_u@?$output_processor@DV?$stream_output_adapter@D@__crt_stdio_output@@V?$standard_base@DV?$stream_output_adapter@D@__crt_stdio_output@@@2@@__crt_stdio_output@@AEAA_NXZ 000000014003d224 f i libucrt:output.obj
 0001:0003c234       ?type_case_u@?$output_processor@DV?$string_output_adapter@D@__crt_stdio_output@@V?$format_validation_base@DV?$string_output_adapter@D@__crt_stdio_output@@@2@@__crt_stdio_output@@AEAA_NXZ 000000014003d234 f i libucrt:output.obj
 0001:0003c244       ?type_case_u@?$output_processor@DV?$string_output_adapter@D@__crt_stdio_output@@V?$positional_parameter_base@DV?$string_output_adapter@D@__crt_stdio_output@@@2@@__crt_stdio_output@@AEAA_NXZ 000000014003d244 f i libucrt:output.obj
 0001:0003c254       ?type_case_u@?$output_processor@DV?$string_output_adapter@D@__crt_stdio_output@@V?$standard_base@DV?$string_output_adapter@D@__crt_stdio_output@@@2@@__crt_stdio_output@@AEAA_NXZ 000000014003d254 f i libucrt:output.obj
 0001:0003c264       ?type_case_u@?$output_processor@_WV?$stream_output_adapter@_W@__crt_stdio_output@@V?$format_validation_base@_WV?$stream_output_adapter@_W@__crt_stdio_output@@@2@@__crt_stdio_output@@AEAA_NXZ 000000014003d264 f i libucrt:output.obj
 0001:0003c274       ?type_case_u@?$output_processor@_WV?$stream_output_adapter@_W@__crt_stdio_output@@V?$positional_parameter_base@_WV?$stream_output_adapter@_W@__crt_stdio_output@@@2@@__crt_stdio_output@@AEAA_NXZ 000000014003d274 f i libucrt:output.obj
 0001:0003c284       ?type_case_u@?$output_processor@_WV?$stream_output_adapter@_W@__crt_stdio_output@@V?$standard_base@_WV?$stream_output_adapter@_W@__crt_stdio_output@@@2@@__crt_stdio_output@@AEAA_NXZ 000000014003d284 f i libucrt:output.obj
 0001:0003c294       ?type_case_u@?$output_processor@_WV?$string_output_adapter@_W@__crt_stdio_output@@V?$format_validation_base@_WV?$string_output_adapter@_W@__crt_stdio_output@@@2@@__crt_stdio_output@@AEAA_NXZ 000000014003d294 f i libucrt:output.obj
 0001:0003c2a4       ?type_case_u@?$output_processor@_WV?$string_output_adapter@_W@__crt_stdio_output@@V?$positional_parameter_base@_WV?$string_output_adapter@_W@__crt_stdio_output@@@2@@__crt_stdio_output@@AEAA_NXZ 000000014003d2a4 f i libucrt:output.obj
 0001:0003c2b4       ?type_case_u@?$output_processor@_WV?$string_output_adapter@_W@__crt_stdio_output@@V?$standard_base@_WV?$string_output_adapter@_W@__crt_stdio_output@@@2@@__crt_stdio_output@@AEAA_NXZ 000000014003d2b4 f i libucrt:output.obj
 0001:0003c2c4       ?type_case_x@?$output_processor@DV?$stream_output_adapter@D@__crt_stdio_output@@V?$format_validation_base@DV?$stream_output_adapter@D@__crt_stdio_output@@@2@@__crt_stdio_output@@AEAA_NXZ 000000014003d2c4 f i libucrt:output.obj
 0001:0003c2d4       ?type_case_x@?$output_processor@DV?$stream_output_adapter@D@__crt_stdio_output@@V?$positional_parameter_base@DV?$stream_output_adapter@D@__crt_stdio_output@@@2@@__crt_stdio_output@@AEAA_NXZ 000000014003d2d4 f i libucrt:output.obj
 0001:0003c2e4       ?type_case_x@?$output_processor@DV?$stream_output_adapter@D@__crt_stdio_output@@V?$standard_base@DV?$stream_output_adapter@D@__crt_stdio_output@@@2@@__crt_stdio_output@@AEAA_NXZ 000000014003d2e4 f i libucrt:output.obj
 0001:0003c2f4       ?type_case_x@?$output_processor@DV?$string_output_adapter@D@__crt_stdio_output@@V?$format_validation_base@DV?$string_output_adapter@D@__crt_stdio_output@@@2@@__crt_stdio_output@@AEAA_NXZ 000000014003d2f4 f i libucrt:output.obj
 0001:0003c304       ?type_case_x@?$output_processor@DV?$string_output_adapter@D@__crt_stdio_output@@V?$positional_parameter_base@DV?$string_output_adapter@D@__crt_stdio_output@@@2@@__crt_stdio_output@@AEAA_NXZ 000000014003d304 f i libucrt:output.obj
 0001:0003c314       ?type_case_x@?$output_processor@DV?$string_output_adapter@D@__crt_stdio_output@@V?$standard_base@DV?$string_output_adapter@D@__crt_stdio_output@@@2@@__crt_stdio_output@@AEAA_NXZ 000000014003d314 f i libucrt:output.obj
 0001:0003c324       ?type_case_x@?$output_processor@_WV?$stream_output_adapter@_W@__crt_stdio_output@@V?$format_validation_base@_WV?$stream_output_adapter@_W@__crt_stdio_output@@@2@@__crt_stdio_output@@AEAA_NXZ 000000014003d324 f i libucrt:output.obj
 0001:0003c334       ?type_case_x@?$output_processor@_WV?$stream_output_adapter@_W@__crt_stdio_output@@V?$positional_parameter_base@_WV?$stream_output_adapter@_W@__crt_stdio_output@@@2@@__crt_stdio_output@@AEAA_NXZ 000000014003d334 f i libucrt:output.obj
 0001:0003c344       ?type_case_x@?$output_processor@_WV?$stream_output_adapter@_W@__crt_stdio_output@@V?$standard_base@_WV?$stream_output_adapter@_W@__crt_stdio_output@@@2@@__crt_stdio_output@@AEAA_NXZ 000000014003d344 f i libucrt:output.obj
 0001:0003c354       ?type_case_x@?$output_processor@_WV?$string_output_adapter@_W@__crt_stdio_output@@V?$format_validation_base@_WV?$string_output_adapter@_W@__crt_stdio_output@@@2@@__crt_stdio_output@@AEAA_NXZ 000000014003d354 f i libucrt:output.obj
 0001:0003c364       ?type_case_x@?$output_processor@_WV?$string_output_adapter@_W@__crt_stdio_output@@V?$positional_parameter_base@_WV?$string_output_adapter@_W@__crt_stdio_output@@@2@@__crt_stdio_output@@AEAA_NXZ 000000014003d364 f i libucrt:output.obj
 0001:0003c374       ?type_case_x@?$output_processor@_WV?$string_output_adapter@_W@__crt_stdio_output@@V?$standard_base@_WV?$string_output_adapter@_W@__crt_stdio_output@@@2@@__crt_stdio_output@@AEAA_NXZ 000000014003d374 f i libucrt:output.obj
 0001:0003c384       ?unset_flag@?$output_processor@DV?$stream_output_adapter@D@__crt_stdio_output@@V?$format_validation_base@DV?$stream_output_adapter@D@__crt_stdio_output@@@2@@__crt_stdio_output@@AEAAXI@Z 000000014003d384 f i libucrt:output.obj
 0001:0003c38c       ?unset_flag@?$output_processor@DV?$stream_output_adapter@D@__crt_stdio_output@@V?$positional_parameter_base@DV?$stream_output_adapter@D@__crt_stdio_output@@@2@@__crt_stdio_output@@AEAAXI@Z 000000014003d38c f i libucrt:output.obj
 0001:0003c394       ?unset_flag@?$output_processor@DV?$stream_output_adapter@D@__crt_stdio_output@@V?$standard_base@DV?$stream_output_adapter@D@__crt_stdio_output@@@2@@__crt_stdio_output@@AEAAXI@Z 000000014003d394 f i libucrt:output.obj
 0001:0003c39c       ?unset_flag@?$output_processor@DV?$string_output_adapter@D@__crt_stdio_output@@V?$format_validation_base@DV?$string_output_adapter@D@__crt_stdio_output@@@2@@__crt_stdio_output@@AEAAXI@Z 000000014003d39c f i libucrt:output.obj
 0001:0003c3a4       ?unset_flag@?$output_processor@DV?$string_output_adapter@D@__crt_stdio_output@@V?$positional_parameter_base@DV?$string_output_adapter@D@__crt_stdio_output@@@2@@__crt_stdio_output@@AEAAXI@Z 000000014003d3a4 f i libucrt:output.obj
 0001:0003c3ac       ?unset_flag@?$output_processor@DV?$string_output_adapter@D@__crt_stdio_output@@V?$standard_base@DV?$string_output_adapter@D@__crt_stdio_output@@@2@@__crt_stdio_output@@AEAAXI@Z 000000014003d3ac f i libucrt:output.obj
 0001:0003c3b4       ?unset_flag@?$output_processor@_WV?$stream_output_adapter@_W@__crt_stdio_output@@V?$format_validation_base@_WV?$stream_output_adapter@_W@__crt_stdio_output@@@2@@__crt_stdio_output@@AEAAXI@Z 000000014003d3b4 f i libucrt:output.obj
 0001:0003c3bc       ?unset_flag@?$output_processor@_WV?$stream_output_adapter@_W@__crt_stdio_output@@V?$positional_parameter_base@_WV?$stream_output_adapter@_W@__crt_stdio_output@@@2@@__crt_stdio_output@@AEAAXI@Z 000000014003d3bc f i libucrt:output.obj
 0001:0003c3c4       ?unset_flag@?$output_processor@_WV?$stream_output_adapter@_W@__crt_stdio_output@@V?$standard_base@_WV?$stream_output_adapter@_W@__crt_stdio_output@@@2@@__crt_stdio_output@@AEAAXI@Z 000000014003d3c4 f i libucrt:output.obj
 0001:0003c3cc       ?unset_flag@?$output_processor@_WV?$string_output_adapter@_W@__crt_stdio_output@@V?$format_validation_base@_WV?$string_output_adapter@_W@__crt_stdio_output@@@2@@__crt_stdio_output@@AEAAXI@Z 000000014003d3cc f i libucrt:output.obj
 0001:0003c3d4       ?unset_flag@?$output_processor@_WV?$string_output_adapter@_W@__crt_stdio_output@@V?$positional_parameter_base@_WV?$string_output_adapter@_W@__crt_stdio_output@@@2@@__crt_stdio_output@@AEAAXI@Z 000000014003d3d4 f i libucrt:output.obj
 0001:0003c3dc       ?unset_flag@?$output_processor@_WV?$string_output_adapter@_W@__crt_stdio_output@@V?$standard_base@_WV?$string_output_adapter@_W@__crt_stdio_output@@@2@@__crt_stdio_output@@AEAAXI@Z 000000014003d3dc f i libucrt:output.obj
 0001:0003c3e4       ?update_field_width@?$positional_parameter_base@DV?$stream_output_adapter@D@__crt_stdio_output@@@__crt_stdio_output@@IEAA_NXZ 000000014003d3e4 f i libucrt:output.obj
 0001:0003c540       ?update_field_width@?$positional_parameter_base@DV?$string_output_adapter@D@__crt_stdio_output@@@__crt_stdio_output@@IEAA_NXZ 000000014003d540 f i libucrt:output.obj
 0001:0003c69c       ?update_field_width@?$positional_parameter_base@_WV?$stream_output_adapter@_W@__crt_stdio_output@@@__crt_stdio_output@@IEAA_NXZ 000000014003d69c f i libucrt:output.obj
 0001:0003c7fc       ?update_field_width@?$positional_parameter_base@_WV?$string_output_adapter@_W@__crt_stdio_output@@@__crt_stdio_output@@IEAA_NXZ 000000014003d7fc f i libucrt:output.obj
 0001:0003c95c       ?update_field_width@?$standard_base@DV?$stream_output_adapter@D@__crt_stdio_output@@@__crt_stdio_output@@IEAA_NXZ 000000014003d95c f i libucrt:output.obj
 0001:0003c974       ?update_field_width@?$standard_base@DV?$string_output_adapter@D@__crt_stdio_output@@@__crt_stdio_output@@IEAA_NXZ 000000014003d974 f i libucrt:output.obj
 0001:0003c98c       ?update_field_width@?$standard_base@_WV?$stream_output_adapter@_W@__crt_stdio_output@@@__crt_stdio_output@@IEAA_NXZ 000000014003d98c f i libucrt:output.obj
 0001:0003c9a4       ?update_field_width@?$standard_base@_WV?$string_output_adapter@_W@__crt_stdio_output@@@__crt_stdio_output@@IEAA_NXZ 000000014003d9a4 f i libucrt:output.obj
 0001:0003c9bc       ?update_precision@?$positional_parameter_base@DV?$stream_output_adapter@D@__crt_stdio_output@@@__crt_stdio_output@@IEAA_NXZ 000000014003d9bc f i libucrt:output.obj
 0001:0003cb18       ?update_precision@?$positional_parameter_base@DV?$string_output_adapter@D@__crt_stdio_output@@@__crt_stdio_output@@IEAA_NXZ 000000014003db18 f i libucrt:output.obj
 0001:0003cc74       ?update_precision@?$positional_parameter_base@_WV?$stream_output_adapter@_W@__crt_stdio_output@@@__crt_stdio_output@@IEAA_NXZ 000000014003dc74 f i libucrt:output.obj
 0001:0003cdd4       ?update_precision@?$positional_parameter_base@_WV?$string_output_adapter@_W@__crt_stdio_output@@@__crt_stdio_output@@IEAA_NXZ 000000014003ddd4 f i libucrt:output.obj
 0001:0003cf34       ?update_precision@?$standard_base@DV?$stream_output_adapter@D@__crt_stdio_output@@@__crt_stdio_output@@IEAA_NXZ 000000014003df34 f i libucrt:output.obj
 0001:0003cf4c       ?update_precision@?$standard_base@DV?$string_output_adapter@D@__crt_stdio_output@@@__crt_stdio_output@@IEAA_NXZ 000000014003df4c f i libucrt:output.obj
 0001:0003cf64       ?update_precision@?$standard_base@_WV?$stream_output_adapter@_W@__crt_stdio_output@@@__crt_stdio_output@@IEAA_NXZ 000000014003df64 f i libucrt:output.obj
 0001:0003cf7c       ?update_precision@?$standard_base@_WV?$string_output_adapter@_W@__crt_stdio_output@@@__crt_stdio_output@@IEAA_NXZ 000000014003df7c f i libucrt:output.obj
 0001:0003cf94       ?valid@__crt_stdio_stream@@QEBA_NXZ 000000014003df94 f i libucrt:output.obj
 0001:0003cfa0       ?validate@?$stream_output_adapter@D@__crt_stdio_output@@QEBA_NXZ 000000014003dfa0 f i libucrt:output.obj
 0001:0003cfd8       ?validate@?$stream_output_adapter@_W@__crt_stdio_output@@QEBA_NXZ 000000014003dfd8 f i libucrt:output.obj
 0001:0003d008       ?validate@?$string_output_adapter@D@__crt_stdio_output@@QEBA_NXZ 000000014003e008 f i libucrt:output.obj
 0001:0003d038       ?validate@?$string_output_adapter@_W@__crt_stdio_output@@QEBA_NXZ 000000014003e038 f i libucrt:output.obj
 0001:0003d068       ?validate_and_store_parameter_data@?$positional_parameter_base@DV?$stream_output_adapter@D@__crt_stdio_output@@@__crt_stdio_output@@AEAA_NAEAUparameter_data@12@W4parameter_type@12@DW4length_modifier@2@@Z 000000014003e068 f i libucrt:output.obj
 0001:0003d0b8       ?validate_and_store_parameter_data@?$positional_parameter_base@DV?$string_output_adapter@D@__crt_stdio_output@@@__crt_stdio_output@@AEAA_NAEAUparameter_data@12@W4parameter_type@12@DW4length_modifier@2@@Z 000000014003e0b8 f i libucrt:output.obj
 0001:0003d108       ?validate_and_store_parameter_data@?$positional_parameter_base@_WV?$stream_output_adapter@_W@__crt_stdio_output@@@__crt_stdio_output@@AEAA_NAEAUparameter_data@12@W4parameter_type@12@_WW4length_modifier@2@@Z 000000014003e108 f i libucrt:output.obj
 0001:0003d158       ?validate_and_store_parameter_data@?$positional_parameter_base@_WV?$string_output_adapter@_W@__crt_stdio_output@@@__crt_stdio_output@@AEAA_NAEAUparameter_data@12@W4parameter_type@12@_WW4length_modifier@2@@Z 000000014003e158 f i libucrt:output.obj
 0001:0003d1a8       ?validate_and_update_state_at_beginning_of_format_character@?$positional_parameter_base@DV?$stream_output_adapter@D@__crt_stdio_output@@@__crt_stdio_output@@IEAA_NXZ 000000014003e1a8 f i libucrt:output.obj
 0001:0003d2f8       ?validate_and_update_state_at_beginning_of_format_character@?$positional_parameter_base@DV?$string_output_adapter@D@__crt_stdio_output@@@__crt_stdio_output@@IEAA_NXZ 000000014003e2f8 f i libucrt:output.obj
 0001:0003d448       ?validate_and_update_state_at_beginning_of_format_character@?$positional_parameter_base@_WV?$stream_output_adapter@_W@__crt_stdio_output@@@__crt_stdio_output@@IEAA_NXZ 000000014003e448 f i libucrt:output.obj
 0001:0003d5a4       ?validate_and_update_state_at_beginning_of_format_character@?$positional_parameter_base@_WV?$string_output_adapter@_W@__crt_stdio_output@@@__crt_stdio_output@@IEAA_NXZ 000000014003e5a4 f i libucrt:output.obj
 0001:0003d700       ?validate_and_update_state_at_beginning_of_format_character@?$standard_base@DV?$stream_output_adapter@D@__crt_stdio_output@@@__crt_stdio_output@@IEAA_NXZ 000000014003e700 f i libucrt:output.obj
 0001:0003d704       ?validate_and_update_state_at_beginning_of_format_character@?$standard_base@DV?$string_output_adapter@D@__crt_stdio_output@@@__crt_stdio_output@@IEAA_NXZ 000000014003e704 f i libucrt:output.obj
 0001:0003d708       ?validate_and_update_state_at_beginning_of_format_character@?$standard_base@_WV?$stream_output_adapter@_W@__crt_stdio_output@@@__crt_stdio_output@@IEAA_NXZ 000000014003e708 f i libucrt:output.obj
 0001:0003d70c       ?validate_and_update_state_at_beginning_of_format_character@?$standard_base@_WV?$string_output_adapter@_W@__crt_stdio_output@@@__crt_stdio_output@@IEAA_NXZ 000000014003e70c f i libucrt:output.obj
 0001:0003d710       ?validate_and_update_state_at_end_of_format_string@?$format_validation_base@DV?$stream_output_adapter@D@__crt_stdio_output@@@__crt_stdio_output@@IEBA_NXZ 000000014003e710 f i libucrt:output.obj
 0001:0003d748       ?validate_and_update_state_at_end_of_format_string@?$format_validation_base@DV?$string_output_adapter@D@__crt_stdio_output@@@__crt_stdio_output@@IEBA_NXZ 000000014003e748 f i libucrt:output.obj
 0001:0003d780       ?validate_and_update_state_at_end_of_format_string@?$format_validation_base@_WV?$stream_output_adapter@_W@__crt_stdio_output@@@__crt_stdio_output@@IEBA_NXZ 000000014003e780 f i libucrt:output.obj
 0001:0003d7b8       ?validate_and_update_state_at_end_of_format_string@?$format_validation_base@_WV?$string_output_adapter@_W@__crt_stdio_output@@@__crt_stdio_output@@IEBA_NXZ 000000014003e7b8 f i libucrt:output.obj
 0001:0003d7f0       ?validate_and_update_state_at_end_of_format_string@?$positional_parameter_base@DV?$stream_output_adapter@D@__crt_stdio_output@@@__crt_stdio_output@@IEAA_NXZ 000000014003e7f0 f i libucrt:output.obj
 0001:0003d8b4       ?validate_and_update_state_at_end_of_format_string@?$positional_parameter_base@DV?$string_output_adapter@D@__crt_stdio_output@@@__crt_stdio_output@@IEAA_NXZ 000000014003e8b4 f i libucrt:output.obj
 0001:0003d978       ?validate_and_update_state_at_end_of_format_string@?$positional_parameter_base@_WV?$stream_output_adapter@_W@__crt_stdio_output@@@__crt_stdio_output@@IEAA_NXZ 000000014003e978 f i libucrt:output.obj
 0001:0003da3c       ?validate_and_update_state_at_end_of_format_string@?$positional_parameter_base@_WV?$string_output_adapter@_W@__crt_stdio_output@@@__crt_stdio_output@@IEAA_NXZ 000000014003ea3c f i libucrt:output.obj
 0001:0003db00       ?validate_and_update_state_at_end_of_format_string@?$standard_base@DV?$stream_output_adapter@D@__crt_stdio_output@@@__crt_stdio_output@@IEBA_NXZ 000000014003eb00 f i libucrt:output.obj
 0001:0003db04       ?validate_and_update_state_at_end_of_format_string@?$standard_base@DV?$string_output_adapter@D@__crt_stdio_output@@@__crt_stdio_output@@IEBA_NXZ 000000014003eb04 f i libucrt:output.obj
 0001:0003db08       ?validate_and_update_state_at_end_of_format_string@?$standard_base@_WV?$stream_output_adapter@_W@__crt_stdio_output@@@__crt_stdio_output@@IEBA_NXZ 000000014003eb08 f i libucrt:output.obj
 0001:0003db0c       ?validate_and_update_state_at_end_of_format_string@?$standard_base@_WV?$string_output_adapter@_W@__crt_stdio_output@@@__crt_stdio_output@@IEBA_NXZ 000000014003eb0c f i libucrt:output.obj
 0001:0003db10       ?validate_state_for_type_case_a@?$positional_parameter_base@DV?$stream_output_adapter@D@__crt_stdio_output@@@__crt_stdio_output@@IEAA_NXZ 000000014003eb10 f i libucrt:output.obj
 0001:0003dbd4       ?validate_state_for_type_case_a@?$positional_parameter_base@DV?$string_output_adapter@D@__crt_stdio_output@@@__crt_stdio_output@@IEAA_NXZ 000000014003ebd4 f i libucrt:output.obj
 0001:0003dc98       ?validate_state_for_type_case_a@?$positional_parameter_base@_WV?$stream_output_adapter@_W@__crt_stdio_output@@@__crt_stdio_output@@IEAA_NXZ 000000014003ec98 f i libucrt:output.obj
 0001:0003dd5c       ?validate_state_for_type_case_a@?$positional_parameter_base@_WV?$string_output_adapter@_W@__crt_stdio_output@@@__crt_stdio_output@@IEAA_NXZ 000000014003ed5c f i libucrt:output.obj
 0001:0003de20       ?validate_state_for_type_case_a@?$standard_base@DV?$stream_output_adapter@D@__crt_stdio_output@@@__crt_stdio_output@@IEBA_NXZ 000000014003ee20 f i libucrt:output.obj
 0001:0003de24       ?validate_state_for_type_case_a@?$standard_base@DV?$string_output_adapter@D@__crt_stdio_output@@@__crt_stdio_output@@IEBA_NXZ 000000014003ee24 f i libucrt:output.obj
 0001:0003de28       ?validate_state_for_type_case_a@?$standard_base@_WV?$stream_output_adapter@_W@__crt_stdio_output@@@__crt_stdio_output@@IEBA_NXZ 000000014003ee28 f i libucrt:output.obj
 0001:0003de2c       ?validate_state_for_type_case_a@?$standard_base@_WV?$string_output_adapter@_W@__crt_stdio_output@@@__crt_stdio_output@@IEBA_NXZ 000000014003ee2c f i libucrt:output.obj
 0001:0003de30       ?validate_stream_is_ansi_if_required@?$__acrt_stdio_char_traits@D@@SA_NQEAU_iobuf@@@Z 000000014003ee30 f i libucrt:output.obj
 0001:0003def0       ?validate_stream_is_ansi_if_required@?$__acrt_stdio_char_traits@_W@@SA_NQEAU_iobuf@@@Z 000000014003eef0 f i libucrt:output.obj
 0001:0003def4       ?wide_null_string@?$output_processor@DV?$stream_output_adapter@D@__crt_stdio_output@@V?$format_validation_base@DV?$stream_output_adapter@D@__crt_stdio_output@@@2@@__crt_stdio_output@@CAPEA_WXZ 000000014003eef4 f i libucrt:output.obj
 0001:0003df00       ?wide_null_string@?$output_processor@DV?$stream_output_adapter@D@__crt_stdio_output@@V?$positional_parameter_base@DV?$stream_output_adapter@D@__crt_stdio_output@@@2@@__crt_stdio_output@@CAPEA_WXZ 000000014003ef00 f i libucrt:output.obj
 0001:0003df0c       ?wide_null_string@?$output_processor@DV?$stream_output_adapter@D@__crt_stdio_output@@V?$standard_base@DV?$stream_output_adapter@D@__crt_stdio_output@@@2@@__crt_stdio_output@@CAPEA_WXZ 000000014003ef0c f i libucrt:output.obj
 0001:0003df18       ?wide_null_string@?$output_processor@DV?$string_output_adapter@D@__crt_stdio_output@@V?$format_validation_base@DV?$string_output_adapter@D@__crt_stdio_output@@@2@@__crt_stdio_output@@CAPEA_WXZ 000000014003ef18 f i libucrt:output.obj
 0001:0003df24       ?wide_null_string@?$output_processor@DV?$string_output_adapter@D@__crt_stdio_output@@V?$positional_parameter_base@DV?$string_output_adapter@D@__crt_stdio_output@@@2@@__crt_stdio_output@@CAPEA_WXZ 000000014003ef24 f i libucrt:output.obj
 0001:0003df30       ?wide_null_string@?$output_processor@DV?$string_output_adapter@D@__crt_stdio_output@@V?$standard_base@DV?$string_output_adapter@D@__crt_stdio_output@@@2@@__crt_stdio_output@@CAPEA_WXZ 000000014003ef30 f i libucrt:output.obj
 0001:0003df3c       ?wide_null_string@?$output_processor@_WV?$stream_output_adapter@_W@__crt_stdio_output@@V?$format_validation_base@_WV?$stream_output_adapter@_W@__crt_stdio_output@@@2@@__crt_stdio_output@@CAPEA_WXZ 000000014003ef3c f i libucrt:output.obj
 0001:0003df48       ?wide_null_string@?$output_processor@_WV?$stream_output_adapter@_W@__crt_stdio_output@@V?$positional_parameter_base@_WV?$stream_output_adapter@_W@__crt_stdio_output@@@2@@__crt_stdio_output@@CAPEA_WXZ 000000014003ef48 f i libucrt:output.obj
 0001:0003df54       ?wide_null_string@?$output_processor@_WV?$stream_output_adapter@_W@__crt_stdio_output@@V?$standard_base@_WV?$stream_output_adapter@_W@__crt_stdio_output@@@2@@__crt_stdio_output@@CAPEA_WXZ 000000014003ef54 f i libucrt:output.obj
 0001:0003df60       ?wide_null_string@?$output_processor@_WV?$string_output_adapter@_W@__crt_stdio_output@@V?$format_validation_base@_WV?$string_output_adapter@_W@__crt_stdio_output@@@2@@__crt_stdio_output@@CAPEA_WXZ 000000014003ef60 f i libucrt:output.obj
 0001:0003df6c       ?wide_null_string@?$output_processor@_WV?$string_output_adapter@_W@__crt_stdio_output@@V?$positional_parameter_base@_WV?$string_output_adapter@_W@__crt_stdio_output@@@2@@__crt_stdio_output@@CAPEA_WXZ 000000014003ef6c f i libucrt:output.obj
 0001:0003df78       ?wide_null_string@?$output_processor@_WV?$string_output_adapter@_W@__crt_stdio_output@@V?$standard_base@_WV?$string_output_adapter@_W@__crt_stdio_output@@@2@@__crt_stdio_output@@CAPEA_WXZ 000000014003ef78 f i libucrt:output.obj
 0001:0003df84       ?write_character@?$output_adapter_common@DV?$stream_output_adapter@D@__crt_stdio_output@@@__crt_stdio_output@@QEBAXDQEAH@Z 000000014003ef84 f i libucrt:output.obj
 0001:0003dfe0       ?write_character@?$output_adapter_common@_WV?$stream_output_adapter@_W@__crt_stdio_output@@@__crt_stdio_output@@QEBAX_WQEAH@Z 000000014003efe0 f i libucrt:output.obj
 0001:0003e040       ?write_character@?$string_output_adapter@D@__crt_stdio_output@@QEBA_NDQEAH@Z 000000014003f040 f i libucrt:output.obj
 0001:0003e098       ?write_character@?$string_output_adapter@_W@__crt_stdio_output@@QEBA_N_WQEAH@Z 000000014003f098 f i libucrt:output.obj
 0001:0003e0f4       ?write_character_without_count_update@?$stream_output_adapter@D@__crt_stdio_output@@QEBA_ND@Z 000000014003f0f4 f i libucrt:output.obj
 0001:0003e140       ?write_character_without_count_update@?$stream_output_adapter@_W@__crt_stdio_output@@QEBA_N_W@Z 000000014003f140 f i libucrt:output.obj
 0001:0003e190       ?write_stored_string_tchar@?$output_processor@DV?$stream_output_adapter@D@__crt_stdio_output@@V?$format_validation_base@DV?$stream_output_adapter@D@__crt_stdio_output@@@2@@__crt_stdio_output@@AEAA_ND@Z 000000014003f190 f i libucrt:output.obj
 0001:0003e2fc       ?write_stored_string_tchar@?$output_processor@DV?$stream_output_adapter@D@__crt_stdio_output@@V?$positional_parameter_base@DV?$stream_output_adapter@D@__crt_stdio_output@@@2@@__crt_stdio_output@@AEAA_ND@Z 000000014003f2fc f i libucrt:output.obj
 0001:0003e468       ?write_stored_string_tchar@?$output_processor@DV?$stream_output_adapter@D@__crt_stdio_output@@V?$standard_base@DV?$stream_output_adapter@D@__crt_stdio_output@@@2@@__crt_stdio_output@@AEAA_ND@Z 000000014003f468 f i libucrt:output.obj
 0001:0003e5d4       ?write_stored_string_tchar@?$output_processor@DV?$string_output_adapter@D@__crt_stdio_output@@V?$format_validation_base@DV?$string_output_adapter@D@__crt_stdio_output@@@2@@__crt_stdio_output@@AEAA_ND@Z 000000014003f5d4 f i libucrt:output.obj
 0001:0003e6e4       ?write_stored_string_tchar@?$output_processor@DV?$string_output_adapter@D@__crt_stdio_output@@V?$positional_parameter_base@DV?$string_output_adapter@D@__crt_stdio_output@@@2@@__crt_stdio_output@@AEAA_ND@Z 000000014003f6e4 f i libucrt:output.obj
 0001:0003e7f4       ?write_stored_string_tchar@?$output_processor@DV?$string_output_adapter@D@__crt_stdio_output@@V?$standard_base@DV?$string_output_adapter@D@__crt_stdio_output@@@2@@__crt_stdio_output@@AEAA_ND@Z 000000014003f7f4 f i libucrt:output.obj
 0001:0003e904       ?write_stored_string_tchar@?$output_processor@_WV?$stream_output_adapter@_W@__crt_stdio_output@@V?$format_validation_base@_WV?$stream_output_adapter@_W@__crt_stdio_output@@@2@@__crt_stdio_output@@AEAA_N_W@Z 000000014003f904 f i libucrt:output.obj
 0001:0003ea48       ?write_stored_string_tchar@?$output_processor@_WV?$stream_output_adapter@_W@__crt_stdio_output@@V?$positional_parameter_base@_WV?$stream_output_adapter@_W@__crt_stdio_output@@@2@@__crt_stdio_output@@AEAA_N_W@Z 000000014003fa48 f i libucrt:output.obj
 0001:0003eb8c       ?write_stored_string_tchar@?$output_processor@_WV?$stream_output_adapter@_W@__crt_stdio_output@@V?$standard_base@_WV?$stream_output_adapter@_W@__crt_stdio_output@@@2@@__crt_stdio_output@@AEAA_N_W@Z 000000014003fb8c f i libucrt:output.obj
 0001:0003ecd0       ?write_stored_string_tchar@?$output_processor@_WV?$string_output_adapter@_W@__crt_stdio_output@@V?$format_validation_base@_WV?$string_output_adapter@_W@__crt_stdio_output@@@2@@__crt_stdio_output@@AEAA_N_W@Z 000000014003fcd0 f i libucrt:output.obj
 0001:0003edf0       ?write_stored_string_tchar@?$output_processor@_WV?$string_output_adapter@_W@__crt_stdio_output@@V?$positional_parameter_base@_WV?$string_output_adapter@_W@__crt_stdio_output@@@2@@__crt_stdio_output@@AEAA_N_W@Z 000000014003fdf0 f i libucrt:output.obj
 0001:0003ef10       ?write_stored_string_tchar@?$output_processor@_WV?$string_output_adapter@_W@__crt_stdio_output@@V?$standard_base@_WV?$string_output_adapter@_W@__crt_stdio_output@@@2@@__crt_stdio_output@@AEAA_N_W@Z 000000014003ff10 f i libucrt:output.obj
 0001:0003f030       ?write_string@?$stream_output_adapter@D@__crt_stdio_output@@QEBAXQEBDHQEAHAEAV__crt_deferred_errno_cache@@@Z 0000000140040030 f i libucrt:output.obj
 0001:0003f060       ?write_string@?$stream_output_adapter@_W@__crt_stdio_output@@QEBAXQEB_WHQEAHAEAV__crt_deferred_errno_cache@@@Z 0000000140040060 f i libucrt:output.obj
 0001:0003f090       ?write_string@?$string_output_adapter@D@__crt_stdio_output@@QEBAXQEBDHQEAHAEAV__crt_deferred_errno_cache@@@Z 0000000140040090 f i libucrt:output.obj
 0001:0003f15c       ?write_string@?$string_output_adapter@_W@__crt_stdio_output@@QEBAXQEB_WHQEAHAEAV__crt_deferred_errno_cache@@@Z 000000014004015c f i libucrt:output.obj
 0001:0003f22c       ?write_string_impl@?$output_adapter_common@DV?$stream_output_adapter@D@__crt_stdio_output@@@__crt_stdio_output@@IEBAXQEBDHQEAHAEAV__crt_deferred_errno_cache@@@Z 000000014004022c f i libucrt:output.obj
 0001:0003f360       ?write_string_impl@?$output_adapter_common@_WV?$stream_output_adapter@_W@__crt_stdio_output@@@__crt_stdio_output@@IEBAXQEB_WHQEAHAEAV__crt_deferred_errno_cache@@@Z 0000000140040360 f i libucrt:output.obj
 0001:0003f4a0       __acrt_isleadbyte_l_noupdate 00000001400404a0 f i libucrt:output.obj
 0001:0003f4cc       __acrt_locale_changed      00000001400404cc f i libucrt:output.obj
 0001:0003f4dc       __stdio_common_vfprintf    00000001400404dc f   libucrt:output.obj
 0001:0003f58c       __stdio_common_vfprintf_p  000000014004058c f   libucrt:output.obj
 0001:0003f63c       __stdio_common_vfprintf_s  000000014004063c f   libucrt:output.obj
 0001:0003f6ec       __stdio_common_vfwprintf   00000001400406ec f   libucrt:output.obj
 0001:0003f79c       __stdio_common_vfwprintf_p 000000014004079c f   libucrt:output.obj
 0001:0003f84c       __stdio_common_vfwprintf_s 000000014004084c f   libucrt:output.obj
 0001:0003f8fc       __stdio_common_vsnprintf_s 00000001400408fc f   libucrt:output.obj
 0001:0003fa98       __stdio_common_vsnwprintf_s 0000000140040a98 f   libucrt:output.obj
 0001:0003fc48       __stdio_common_vsprintf    0000000140040c48 f   libucrt:output.obj
 0001:0003fc50       __stdio_common_vsprintf_p  0000000140040c50 f   libucrt:output.obj
 0001:0003fc58       __stdio_common_vsprintf_s  0000000140040c58 f   libucrt:output.obj
 0001:0003fcd4       __stdio_common_vswprintf   0000000140040cd4 f   libucrt:output.obj
 0001:0003fcdc       __stdio_common_vswprintf_p 0000000140040cdc f   libucrt:output.obj
 0001:0003fce4       __stdio_common_vswprintf_s 0000000140040ce4 f   libucrt:output.obj
 0001:0003fd70       _ctype_fast_check_internal 0000000140040d70 f i libucrt:output.obj
 0001:0003fd88       _isdigit_fast_internal     0000000140040d88 f i libucrt:output.obj
 0001:0003fda4       _tolower_fast_internal     0000000140040da4 f i libucrt:output.obj
 0001:0003fdbc       ??$is_overflow_condition@K@__crt_strtox@@YA_NIK@Z 0000000140040dbc f i libucrt:atox.obj
 0001:0003fdec       ??$is_overflow_condition@_K@__crt_strtox@@YA_NI_K@Z 0000000140040dec f i libucrt:atox.obj
 0001:0003fe28       ??$make_c_string_character_source@D$$T@__crt_strtox@@YA?AV?$c_string_character_source@D@0@QEBD$$T@Z 0000000140040e28 f i libucrt:atox.obj
 0001:0003fe40       ??$make_c_string_character_source@_W$$T@__crt_strtox@@YA?AV?$c_string_character_source@_W@0@QEB_W$$T@Z 0000000140040e40 f i libucrt:atox.obj
 0001:0003fe58       ??$parse_integer@KV?$c_string_character_source@D@__crt_strtox@@@__crt_strtox@@YAKQEAU__crt_locale_pointers@@V?$c_string_character_source@D@0@H_N@Z 0000000140040e58 f i libucrt:atox.obj
 0001:0004021c       ??$parse_integer@KV?$c_string_character_source@_W@__crt_strtox@@@__crt_strtox@@YAKQEAU__crt_locale_pointers@@V?$c_string_character_source@_W@0@H_N@Z 000000014004121c f i libucrt:atox.obj
 0001:00040a6c       ??$parse_integer@_KV?$c_string_character_source@D@__crt_strtox@@@__crt_strtox@@YA_KQEAU__crt_locale_pointers@@V?$c_string_character_source@D@0@H_N@Z 0000000140041a6c f i libucrt:atox.obj
 0001:00040e14       ??$parse_integer@_KV?$c_string_character_source@_W@__crt_strtox@@@__crt_strtox@@YA_KQEAU__crt_locale_pointers@@V?$c_string_character_source@_W@0@H_N@Z 0000000140041e14 f i libucrt:atox.obj
 0001:00041740       ??$parse_integer_from_string@JD$$T@__crt_strtox@@YAJQEBD$$THQEAU__crt_locale_pointers@@@Z 0000000140042740 f i libucrt:atox.obj
 0001:0004177c       ??$parse_integer_from_string@J_W$$T@__crt_strtox@@YAJQEB_W$$THQEAU__crt_locale_pointers@@@Z 000000014004277c f i libucrt:atox.obj
 0001:000417b8       ??$parse_integer_from_string@_JD$$T@__crt_strtox@@YA_JQEBD$$THQEAU__crt_locale_pointers@@@Z 00000001400427b8 f i libucrt:atox.obj
 0001:000417f4       ??$parse_integer_from_string@_J_W$$T@__crt_strtox@@YA_JQEB_W$$THQEAU__crt_locale_pointers@@@Z 00000001400427f4 f i libucrt:atox.obj
 0001:00041830       ??0?$c_string_character_source@D@__crt_strtox@@QEAA@QEBDQEAPEBD@Z 0000000140042830 f i libucrt:atox.obj
 0001:00041848       ??0?$c_string_character_source@_W@__crt_strtox@@QEAA@QEB_WQEAPEB_W@Z 0000000140042848 f i libucrt:atox.obj
 0001:00041860       ??1?$c_string_character_source@D@__crt_strtox@@QEAA@XZ 0000000140042860 f i libucrt:atox.obj
 0001:00041874       ??1?$c_string_character_source@_W@__crt_strtox@@QEAA@XZ 0000000140042874 f i libucrt:atox.obj
 0001:00041888       ?get@?$c_string_character_source@D@__crt_strtox@@QEAADXZ 0000000140042888 f i libucrt:atox.obj
 0001:00041898       ?get@?$c_string_character_source@_W@__crt_strtox@@QEAA_WXZ 0000000140042898 f i libucrt:atox.obj
 0001:000418ac       ?is_space@__crt_strtox@@YA_NDQEAU__crt_locale_pointers@@@Z 00000001400428ac f i libucrt:atox.obj
 0001:000418d4       ?is_space@__crt_strtox@@YA_N_WPEAU__crt_locale_pointers@@@Z 00000001400428d4 f i libucrt:atox.obj
 0001:000418f4       ?maximum_signed_value@__crt_strtox@@YAJK@Z 00000001400428f4 f i libucrt:atox.obj
 0001:000418fc       ?maximum_signed_value@__crt_strtox@@YA_J_K@Z 00000001400428fc f i libucrt:atox.obj
 0001:0004190c       ?minimum_signed_value@__crt_strtox@@YAJK@Z 000000014004290c f i libucrt:atox.obj
 0001:00041914       ?minimum_signed_value@__crt_strtox@@YA_J_K@Z 0000000140042914 f i libucrt:atox.obj
 0001:00041924       ?parse_digit@__crt_strtox@@YAID@Z 0000000140042924 f i libucrt:atox.obj
 0001:00041960       ?parse_digit@__crt_strtox@@YAI_W@Z 0000000140042960 f i libucrt:atox.obj
 0001:00041ba4       ?restore_state@?$c_string_character_source@D@__crt_strtox@@QEAA_NQEBD@Z 0000000140042ba4 f i libucrt:atox.obj
 0001:00041bac       ?restore_state@?$c_string_character_source@_W@__crt_strtox@@QEAA_NQEB_W@Z 0000000140042bac f i libucrt:atox.obj
 0001:00041bb4       ?save_state@?$c_string_character_source@D@__crt_strtox@@QEBAPEBDXZ 0000000140042bb4 f i libucrt:atox.obj
 0001:00041bb8       ?save_state@?$c_string_character_source@_W@__crt_strtox@@QEBAPEB_WXZ 0000000140042bb8 f i libucrt:atox.obj
 0001:00041bbc       ?unget@?$c_string_character_source@D@__crt_strtox@@QEAAXD@Z 0000000140042bbc f i libucrt:atox.obj
 0001:00041bf0       ?unget@?$c_string_character_source@_W@__crt_strtox@@QEAAX_W@Z 0000000140042bf0 f i libucrt:atox.obj
 0001:00041c28       ?validate@?$c_string_character_source@D@__crt_strtox@@QEBA_NXZ 0000000140042c28 f i libucrt:atox.obj
 0001:00041c58       ?validate@?$c_string_character_source@_W@__crt_strtox@@QEBA_NXZ 0000000140042c58 f i libucrt:atox.obj
 0001:00041c88       ?wide_character_to_digit@__crt_strtox@@YAH_W@Z 0000000140042c88 f i libucrt:atox.obj
 0001:00041e90       __acrt_get_locale_data_prefix 0000000140042e90 f i libucrt:atox.obj
 0001:00041e94       __ascii_iswalpha           0000000140042e94 f i libucrt:atox.obj
 0001:00041eb4       __ascii_toupper            0000000140042eb4 f i libucrt:atox.obj
 0001:00041ec8       __ascii_towupper           0000000140042ec8 f i libucrt:atox.obj
 0001:00041ed8       _atoi64                    0000000140042ed8 f   libucrt:atox.obj
 0001:00041f0c       _atoi64_l                  0000000140042f0c f   libucrt:atox.obj
 0001:00041f44       _atoi_l                    0000000140042f44 f   libucrt:atox.obj
 0001:00041f7c       _atol_l                    0000000140042f7c f   libucrt:atox.obj
 0001:00041fb4       _atoll_l                   0000000140042fb4 f   libucrt:atox.obj
 0001:00041fec       _chvalidchk_l              0000000140042fec f i libucrt:atox.obj
 0001:00042068       _ischartype_l              0000000140043068 f i libucrt:atox.obj
 0001:000420fc       _wtoi                      00000001400430fc f   libucrt:atox.obj
 0001:00042130       _wtoi64                    0000000140043130 f   libucrt:atox.obj
 0001:00042164       _wtoi64_l                  0000000140043164 f   libucrt:atox.obj
 0001:0004219c       _wtoi_l                    000000014004319c f   libucrt:atox.obj
 0001:000421d4       _wtol                      00000001400431d4 f   libucrt:atox.obj
 0001:00042208       _wtol_l                    0000000140043208 f   libucrt:atox.obj
 0001:00042240       _wtoll                     0000000140043240 f   libucrt:atox.obj
 0001:00042274       _wtoll_l                   0000000140043274 f   libucrt:atox.obj
 0001:000422ac       atoi                       00000001400432ac f   libucrt:atox.obj
 0001:000422e0       atol                       00000001400432e0 f   libucrt:atox.obj
 0001:00042314       atoll                      0000000140043314 f   libucrt:atox.obj
 0001:00042360       strncmp                    0000000140043360 f   libucrt:strncmp.obj
 0001:00042400       wcsncmp                    0000000140043400 f   libucrt:wcsncmp.obj
 0001:00042438       ??$?RU__acrt_ptd@@@__crt_internal_free_policy@@QEBAXQEBU__acrt_ptd@@@Z 0000000140043438 f i libucrt:per_thread_data.obj
 0001:000426f8       ??0?$__crt_unique_heap_ptr@U__acrt_ptd@@U__crt_internal_free_policy@@@@QEAA@QEAU__acrt_ptd@@@Z 00000001400436f8 f i libucrt:per_thread_data.obj
 0001:00042700       ??0__crt_scoped_get_last_error_reset@@QEAA@XZ 0000000140043700 f i libucrt:per_thread_data.obj
 0001:00042720       ??1?$__crt_unique_heap_ptr@U__acrt_ptd@@U__crt_internal_free_policy@@@@QEAA@XZ 0000000140043720 f i libucrt:per_thread_data.obj
 0001:00042744       ??1__crt_scoped_get_last_error_reset@@QEAA@XZ 0000000140043744 f i libucrt:per_thread_data.obj
 0001:00042750       ??B?$__crt_unique_heap_ptr@U__acrt_ptd@@U__crt_internal_free_policy@@@@QEBA_NXZ 0000000140043750 f i libucrt:per_thread_data.obj
 0001:00042a20       ?dangerous_get_state_array@?$dual_state_global@PEAU__crt_locale_data@@@__crt_state_management@@QEAAPEAPEAU__crt_locale_data@@XZ 0000000140043a20 f i libucrt:per_thread_data.obj
 0001:00042cb4       ?detach@?$__crt_unique_heap_ptr@U__acrt_ptd@@U__crt_internal_free_policy@@@@QEAAPEAU__acrt_ptd@@XZ 0000000140043cb4 f i libucrt:per_thread_data.obj
 0001:00042cc0       ?get@?$__crt_unique_heap_ptr@U__acrt_ptd@@U__crt_internal_free_policy@@@@QEBAPEAU__acrt_ptd@@XZ 0000000140043cc0 f i libucrt:per_thread_data.obj
 0001:00042cc4       ?get_current_state_index@__crt_state_management@@YA_KAEBV__crt_scoped_get_last_error_reset@@@Z 0000000140043cc4 f i libucrt:per_thread_data.obj
 0001:00042e8c       ?is_valid@?$__crt_unique_heap_ptr@U__acrt_ptd@@U__crt_internal_free_policy@@@@QEBA_NXZ 0000000140043e8c f i libucrt:per_thread_data.obj
 0001:00042e98       ?release@?$__crt_unique_heap_ptr@U__acrt_ptd@@U__crt_internal_free_policy@@@@QEAAXXZ 0000000140043e98 f i libucrt:per_thread_data.obj
 0001:00042f64       __acrt_freeptd             0000000140043f64 f   libucrt:per_thread_data.obj
 0001:00042fb8       __acrt_getptd              0000000140043fb8 f   libucrt:per_thread_data.obj
 0001:000430c4       __acrt_getptd_head         00000001400440c4 f   libucrt:per_thread_data.obj
 0001:00043194       __acrt_getptd_noexit       0000000140044194 f   libucrt:per_thread_data.obj
 0001:00043294       __acrt_initialize_ptd      0000000140044294 f   libucrt:per_thread_data.obj
 0001:000432dc       __acrt_uninitialize_ptd    00000001400442dc f   libucrt:per_thread_data.obj
 0001:00043308       __threadhandle             0000000140044308 f   libucrt:per_thread_data.obj
 0001:00043310       __threadid                 0000000140044310 f   libucrt:per_thread_data.obj
 0001:00043318       ??$__crt_fast_decode_pointer@P6AXPEB_W00I_K@Z@@YAP6AXPEB_W00I_K@ZQ6AX000I1@Z@Z 0000000140044318 f i libucrt:invalid_parameter.obj
 0001:00043334       ??$__crt_fast_encode_pointer@P6AXPEB_W00I_K@Z@@YAP6AXPEB_W00I_K@ZQ6AX000I1@Z@Z 0000000140044334 f i libucrt:invalid_parameter.obj
 0001:0004335c       ??$initialize_from_array@$$BY00Q6AXPEB_W00I_K@Z@?$dual_state_global@P6AXPEB_W00I_K@Z@__crt_state_management@@QEAAXAEAY00Q6AXPEB_W00I_K@Z@Z 000000014004435c f i libucrt:invalid_parameter.obj
 0001:000433ec       ?dangerous_get_state_array@?$dual_state_global@P6AXPEB_W00I_K@Z@__crt_state_management@@QEAAPEAP6AXPEB_W00I_K@ZXZ 00000001400443ec f i libucrt:invalid_parameter.obj
 0001:000433f0       ?value@?$dual_state_global@P6AXPEB_W00I_K@Z@__crt_state_management@@QEAAAEAP6AXPEB_W00I_K@ZXZ 00000001400443f0 f i libucrt:invalid_parameter.obj
 0001:000433f4       __acrt_call_reportfault    00000001400443f4 f   libucrt:invalid_parameter.obj
 0001:000435a8       __acrt_initialize_invalid_parameter_handler 00000001400445a8 f   libucrt:invalid_parameter.obj
 0001:000435b4       _get_invalid_parameter_handler 00000001400445b4 f   libucrt:invalid_parameter.obj
 0001:000435d0       _get_thread_local_invalid_parameter_handler 00000001400445d0 f   libucrt:invalid_parameter.obj
 0001:000435f0       _invalid_parameter         00000001400445f0 f   libucrt:invalid_parameter.obj
 0001:000436cc       _invalid_parameter_noinfo  00000001400446cc f   libucrt:invalid_parameter.obj
 0001:000436f4       _invalid_parameter_noinfo_noreturn 00000001400446f4 f   libucrt:invalid_parameter.obj
 0001:00043730       _invoke_watson             0000000140044730 f   libucrt:invalid_parameter.obj
 0001:00043788       _set_invalid_parameter_handler 0000000140044788 f   libucrt:invalid_parameter.obj
 0001:000437cc       _set_thread_local_invalid_parameter_handler 00000001400447cc f   libucrt:invalid_parameter.obj
 0001:000437fc       _set_error_mode            00000001400447fc f   libucrt:set_error_mode.obj
 0001:000438f4       wcscat_s                   00000001400448f4 f   libucrt:wcscat_s.obj
 0001:00043a1c       wcscpy_s                   0000000140044a1c f   libucrt:wcscpy_s.obj
 0001:00043bb0       wcsncpy_s                  0000000140044bb0 f   libucrt:wcsncpy_s.obj
 0001:00043e6c       ??$message_box@$$TAEBQEBDAEBQEBDK@?$__crt_char_traits@D@@SAH$$QEA$$TAEBQEBD1$$QEAK@Z 0000000140044e6c f i libucrt:crtmbox.obj
 0001:00043e84       ??$message_box@$$TAEBQEB_WAEBQEB_WK@?$__crt_char_traits@_W@@SAH$$QEA$$TAEBQEB_W1$$QEAK@Z 0000000140044e84 f i libucrt:crtmbox.obj
 0001:00043e9c       ??$message_box@PEAUHWND__@@AEBQEBDAEBQEBDAEBI@?$__crt_char_traits@D@@SAH$$QEAPEAUHWND__@@AEBQEBD1AEBI@Z 0000000140044e9c f i libucrt:crtmbox.obj
 0001:00043eb4       ??$message_box@PEAUHWND__@@AEBQEB_WAEBQEB_WAEBI@?$__crt_char_traits@_W@@SAH$$QEAPEAUHWND__@@AEBQEB_W1AEBI@Z 0000000140044eb4 f i libucrt:crtmbox.obj
 0001:00043ecc       ??$output_debug_string@AEBQEBD@?$__crt_char_traits@D@@SAXAEBQEBD@Z 0000000140044ecc f i libucrt:crtmbox.obj
 0001:00043ed8       ??$output_debug_string@AEBQEB_W@?$__crt_char_traits@_W@@SAXAEBQEB_W@Z 0000000140044ed8 f i libucrt:crtmbox.obj
 0001:00043ee4       __acrt_show_narrow_message_box 0000000140044ee4 f   libucrt:crtmbox.obj
 0001:00043fb0       __acrt_show_wide_message_box 0000000140044fb0 f   libucrt:crtmbox.obj
 0001:00044080       __acrt_errno_from_os_error 0000000140045080 f   libucrt:errno.obj
 0001:000440d8       __acrt_errno_map_os_error  00000001400450d8 f   libucrt:errno.obj
 0001:0004413c       __doserrno                 000000014004513c f   libucrt:errno.obj
 0001:00044164       _errno                     0000000140045164 f   libucrt:errno.obj
 0001:0004418c       _get_doserrno              000000014004518c f   libucrt:errno.obj
 0001:000441d8       _get_errno                 00000001400451d8 f   libucrt:errno.obj
 0001:00044224       _set_doserrno              0000000140045224 f   libucrt:errno.obj
 0001:0004426c       _set_errno                 000000014004526c f   libucrt:errno.obj
 0001:000442b4       _calloc_base               00000001400452b4 f   libucrt:calloc_base.obj
 0001:00044354       _free_base                 0000000140045354 f   libucrt:free_base.obj
 0001:00044798       ??$__acrt_mbs_to_wcs_cp@U__crt_win32_buffer_internal_dynamic_resizing@@@@YAHQEBDAEAV?$__crt_win32_buffer@_WU__crt_win32_buffer_internal_dynamic_resizing@@@@I@Z 0000000140045798 f i libucrt:argv_wildcards.obj
 0001:0004496c       ??$__acrt_wcs_to_mbs_cp@U__crt_win32_buffer_internal_dynamic_resizing@@@@YAHQEB_WAEAV?$__crt_win32_buffer@DU__crt_win32_buffer_internal_dynamic_resizing@@@@I@Z 000000014004596c f i libucrt:argv_wildcards.obj
 0001:00045c4c       ??$tcslen@AEBQEBD@?$__crt_char_traits@D@@SA_KAEBQEBD@Z 0000000140046c4c f i libucrt:argv_wildcards.obj
 0001:00045c64       ??$tcslen@AEBQEB_W@?$__crt_char_traits@_W@@SA_KAEBQEB_W@Z 0000000140046c64 f i libucrt:argv_wildcards.obj
 0001:00045c7c       ??$tcsncpy_s@AEAPEAD_KAEAPEADAEB_K@?$__crt_char_traits@D@@SAHAEAPEAD$$QEA_K0AEB_K@Z 0000000140046c7c f i libucrt:argv_wildcards.obj
 0001:00045c94       ??$tcsncpy_s@AEAPEA_W_KAEAPEA_WAEB_K@?$__crt_char_traits@_W@@SAHAEAPEA_W$$QEA_K0AEB_K@Z 0000000140046c94 f i libucrt:argv_wildcards.obj
 0001:00045cac       ??$tcsncpy_s@PEADAEB_KAEBQEBDAEB_K@?$__crt_char_traits@D@@SAH$$QEAPEADAEB_KAEBQEBD1@Z 0000000140046cac f i libucrt:argv_wildcards.obj
 0001:00045cc4       ??$tcsncpy_s@PEAD_KAEBQEBDAEB_K@?$__crt_char_traits@D@@SAH$$QEAPEAD$$QEA_KAEBQEBDAEB_K@Z 0000000140046cc4 f i libucrt:argv_wildcards.obj
 0001:00045cdc       ??$tcsncpy_s@PEA_WAEB_KAEBQEB_WAEB_K@?$__crt_char_traits@_W@@SAH$$QEAPEA_WAEB_KAEBQEB_W1@Z 0000000140046cdc f i libucrt:argv_wildcards.obj
 0001:00045cf4       ??$tcsncpy_s@PEA_W_KAEBQEB_WAEB_K@?$__crt_char_traits@_W@@SAH$$QEAPEA_W$$QEA_KAEBQEB_WAEB_K@Z 0000000140046cf4 f i libucrt:argv_wildcards.obj
 0001:00045d0c       ??$tcspbrk@AEAPEADAEAY02$$CBD@?$__crt_char_traits@D@@SAPEADAEAPEADAEAY02$$CBD@Z 0000000140046d0c f i libucrt:argv_wildcards.obj
 0001:00045d18       ??$tcspbrk@AEAPEA_WAEAY02$$CB_W@?$__crt_char_traits@_W@@SAPEA_WAEAPEA_WAEAY02$$CB_W@Z 0000000140046d18 f i libucrt:argv_wildcards.obj
 0001:00045d24       ??0?$__crt_unique_handle_t@U__crt_findfile_traits@@@@QEAA@QEAX@Z 0000000140046d24 f i libucrt:argv_wildcards.obj
 0001:00045d2c       ??0?$__crt_win32_buffer@DU__crt_win32_buffer_internal_dynamic_resizing@@@@QEAA@XZ 0000000140046d2c f i libucrt:argv_wildcards.obj
 0001:00045d50       ??0?$__crt_win32_buffer@_WU__crt_win32_buffer_internal_dynamic_resizing@@@@QEAA@XZ 0000000140046d50 f i libucrt:argv_wildcards.obj
 0001:00045da4       ??1?$__crt_unique_handle_t@U__crt_findfile_traits@@@@QEAA@XZ 0000000140046da4 f i libucrt:argv_wildcards.obj
 0001:00045dd0       ??1?$__crt_win32_buffer@DU__crt_win32_buffer_internal_dynamic_resizing@@@@QEAA@XZ 0000000140046dd0 f i libucrt:argv_wildcards.obj
 0001:00045dfc       ??1?$__crt_win32_buffer@_WU__crt_win32_buffer_internal_dynamic_resizing@@@@QEAA@XZ 0000000140046dfc f i libucrt:argv_wildcards.obj
 0001:00045fc4       ?__acrt_get_utf8_acp_compatibility_codepage@@YAIXZ 0000000140046fc4 f i libucrt:argv_wildcards.obj
 0001:00046020       ?_deallocate@?$__crt_win32_buffer@DU__crt_win32_buffer_internal_dynamic_resizing@@@@AEAAXXZ 0000000140047020 f i libucrt:argv_wildcards.obj
 0001:0004604c       ?_deallocate@?$__crt_win32_buffer@_WU__crt_win32_buffer_internal_dynamic_resizing@@@@AEAAXXZ 000000014004704c f i libucrt:argv_wildcards.obj
 0001:00046078       ?allocate@?$__crt_win32_buffer@DU__crt_win32_buffer_internal_dynamic_resizing@@@@QEAAH_K@Z 0000000140047078 f i libucrt:argv_wildcards.obj
 0001:000460ec       ?allocate@?$__crt_win32_buffer@_WU__crt_win32_buffer_internal_dynamic_resizing@@@@QEAAH_K@Z 00000001400470ec f i libucrt:argv_wildcards.obj
 0001:00046160       ?allocate@__crt_win32_buffer_internal_dynamic_resizing@@SAHQEAPEAX_KAEBV__crt_win32_buffer_empty_debug_info@@@Z 0000000140047160 f i libucrt:argv_wildcards.obj
 0001:000463c8       ?capacity@?$__crt_win32_buffer@DU__crt_win32_buffer_internal_dynamic_resizing@@@@QEBA_KXZ 00000001400473c8 f i libucrt:argv_wildcards.obj
 0001:000463d0       ?capacity@?$__crt_win32_buffer@_WU__crt_win32_buffer_internal_dynamic_resizing@@@@QEBA_KXZ 00000001400473d0 f i libucrt:argv_wildcards.obj
 0001:000463d8       ?close@?$__crt_unique_handle_t@U__crt_findfile_traits@@@@QEAAXXZ 00000001400473d8 f i libucrt:argv_wildcards.obj
 0001:00046404       ?close@__crt_findfile_traits@@SA_NPEAX@Z 0000000140047404 f i libucrt:argv_wildcards.obj
 0001:00046420       ?data@?$__crt_win32_buffer@DU__crt_win32_buffer_internal_dynamic_resizing@@@@QEAAPEADXZ 0000000140047420 f i libucrt:argv_wildcards.obj
 0001:00046428       ?data@?$__crt_win32_buffer@_WU__crt_win32_buffer_internal_dynamic_resizing@@@@QEAAPEA_WXZ 0000000140047428 f i libucrt:argv_wildcards.obj
 0001:00046430       ?deallocate@__crt_win32_buffer_internal_dynamic_resizing@@SAXQEAXAEBV__crt_win32_buffer_empty_debug_info@@@Z 0000000140047430 f i libucrt:argv_wildcards.obj
 0001:00046438       ?debug_info@?$__crt_win32_buffer@DU__crt_win32_buffer_internal_dynamic_resizing@@@@QEBAAEBV__crt_win32_buffer_empty_debug_info@@XZ 0000000140047438 f i libucrt:argv_wildcards.obj
 0001:0004643c       ?debug_info@?$__crt_win32_buffer@_WU__crt_win32_buffer_internal_dynamic_resizing@@@@QEBAAEBV__crt_win32_buffer_empty_debug_info@@XZ 000000014004743c f i libucrt:argv_wildcards.obj
 0001:00046640       ?get@?$__crt_unique_handle_t@U__crt_findfile_traits@@@@QEBAPEAXXZ 0000000140047640 f i libucrt:argv_wildcards.obj
 0001:0004670c       ?get_invalid_value@__crt_findfile_traits@@SAPEAXXZ 000000014004770c f i libucrt:argv_wildcards.obj
 0001:000467ec       ?set_to_nullptr@?$__crt_win32_buffer@DU__crt_win32_buffer_internal_dynamic_resizing@@@@QEAAXXZ 00000001400477ec f i libucrt:argv_wildcards.obj
 0001:0004682c       ?set_to_nullptr@?$__crt_win32_buffer@_WU__crt_win32_buffer_internal_dynamic_resizing@@@@QEAAXXZ 000000014004782c f i libucrt:argv_wildcards.obj
 0001:0004686c       ?size@?$__crt_win32_buffer@DU__crt_win32_buffer_internal_dynamic_resizing@@@@QEAAX_K@Z 000000014004786c f i libucrt:argv_wildcards.obj
 0001:00046874       ?size@?$__crt_win32_buffer@_WU__crt_win32_buffer_internal_dynamic_resizing@@@@QEAAX_K@Z 0000000140047874 f i libucrt:argv_wildcards.obj
 0001:0004689c       ?strpbrk@@YAPEADQEADQEBD@Z 000000014004789c f i libucrt:argv_wildcards.obj
 0001:000468a4       ?wcspbrk@@YAPEA_WPEA_WPEB_W@Z 00000001400478a4 f i libucrt:argv_wildcards.obj
 0001:000468ac       __acrt_expand_narrow_argv_wildcards 00000001400478ac f   libucrt:argv_wildcards.obj
 0001:000468b4       __acrt_expand_wide_argv_wildcards 00000001400478b4 f   libucrt:argv_wildcards.obj
 0001:00046a1c       ??$__acrt_wcs_to_mbs_cp@U__crt_win32_buffer_no_resizing@@@@YAHQEB_WAEAV?$__crt_win32_buffer@DU__crt_win32_buffer_no_resizing@@@@I@Z 0000000140047a1c f i libucrt:getmodulefilenamea.obj
 0001:00046b74       ??0?$__crt_win32_buffer@DU__crt_win32_buffer_no_resizing@@@@QEAA@QEAD_K@Z 0000000140047b74 f i libucrt:getmodulefilenamea.obj
 0001:00046b98       ??1?$__crt_win32_buffer@DU__crt_win32_buffer_no_resizing@@@@QEAA@XZ 0000000140047b98 f i libucrt:getmodulefilenamea.obj
 0001:00046be4       ?_deallocate@?$__crt_win32_buffer@DU__crt_win32_buffer_no_resizing@@@@AEAAXXZ 0000000140047be4 f i libucrt:getmodulefilenamea.obj
 0001:00046bf4       ?allocate@?$__crt_win32_buffer@DU__crt_win32_buffer_no_resizing@@@@QEAAH_K@Z 0000000140047bf4 f i libucrt:getmodulefilenamea.obj
 0001:00046c30       ?allocate@__crt_win32_buffer_no_resizing@@SAHQEAPEAX_KAEBV__crt_win32_buffer_empty_debug_info@@@Z 0000000140047c30 f i libucrt:getmodulefilenamea.obj
 0001:00046c4c       ?capacity@?$__crt_win32_buffer@DU__crt_win32_buffer_no_resizing@@@@QEBA_KXZ 0000000140047c4c f i libucrt:getmodulefilenamea.obj
 0001:00046c54       ?data@?$__crt_win32_buffer@DU__crt_win32_buffer_no_resizing@@@@QEAAPEADXZ 0000000140047c54 f i libucrt:getmodulefilenamea.obj
 0001:00046c5c       ?deallocate@__crt_win32_buffer_no_resizing@@SAXQEAXAEBV__crt_win32_buffer_empty_debug_info@@@Z 0000000140047c5c f i libucrt:getmodulefilenamea.obj
 0001:00046c60       ?debug_info@?$__crt_win32_buffer@DU__crt_win32_buffer_no_resizing@@@@QEBAAEBV__crt_win32_buffer_empty_debug_info@@XZ 0000000140047c60 f i libucrt:getmodulefilenamea.obj
 0001:00046c64       ?set_to_nullptr@?$__crt_win32_buffer@DU__crt_win32_buffer_no_resizing@@@@QEAAXXZ 0000000140047c64 f i libucrt:getmodulefilenamea.obj
 0001:00046c80       ?size@?$__crt_win32_buffer@DU__crt_win32_buffer_no_resizing@@@@QEAAX_K@Z 0000000140047c80 f i libucrt:getmodulefilenamea.obj
 0001:00046c88       ?size@?$__crt_win32_buffer@DU__crt_win32_buffer_no_resizing@@@@QEBA_KXZ 0000000140047c88 f i libucrt:getmodulefilenamea.obj
 0001:00046c90       __acrt_GetModuleFileNameA  0000000140047c90 f   libucrt:getmodulefilenamea.obj
 0001:00047050       ??$initialize_from_array@$$BY10BAA@E@?$dual_state_global@PEAE@__crt_state_management@@QEAAXAEAY10BAA@E@Z 0000000140048050 f i libucrt:mbctype.obj
 0001:00047054       ??$initialize_from_array@$$BY10BAB@E@?$dual_state_global@PEAE@__crt_state_management@@QEAAXAEAY10BAB@E@Z 0000000140048054 f i libucrt:mbctype.obj
 0001:000472e0       ?dangerous_get_state_array@?$dual_state_global@PEAE@__crt_state_management@@QEAAPEAPEAEXZ 00000001400482e0 f i libucrt:mbctype.obj
 0001:000472e4       ?dangerous_get_state_array@?$dual_state_global@PEAU__crt_multibyte_data@@@__crt_state_management@@QEAAPEAPEAU__crt_multibyte_data@@XZ 00000001400482e4 f i libucrt:mbctype.obj
 0001:00047384       ?initialize@?$dual_state_global@PEAU__crt_multibyte_data@@@__crt_state_management@@QEAAXQEAU__crt_multibyte_data@@@Z 0000000140048384 f i libucrt:mbctype.obj
 0001:000479dc       ?value@?$dual_state_global@PEAE@__crt_state_management@@QEAAAEAPEAEXZ 00000001400489dc f i libucrt:mbctype.obj
 0001:000479e0       ?value@?$dual_state_global@PEAU__crt_multibyte_data@@@__crt_state_management@@QEAAAEAPEAU__crt_multibyte_data@@XZ 00000001400489e0 f i libucrt:mbctype.obj
 0001:000479e4       __acrt_initialize_multibyte 00000001400489e4 f   libucrt:mbctype.obj
 0001:00047a5c       __acrt_should_sync_with_global_locale 0000000140048a5c f i libucrt:mbctype.obj
 0001:00047a70       __acrt_update_thread_multibyte_data 0000000140048a70 f   libucrt:mbctype.obj
 0001:00047a94       __p__mbcasemap             0000000140048a94 f   libucrt:mbctype.obj
 0001:00047aa0       __p__mbctype               0000000140048aa0 f   libucrt:mbctype.obj
 0001:00047aac       _getmbcp                   0000000140048aac f   libucrt:mbctype.obj
 0001:00047af4       _setmbcp                   0000000140048af4 f   libucrt:mbctype.obj
 0001:00047b24       _setmbcp_nolock            0000000140048b24 f   libucrt:mbctype.obj
 0001:00047fc8       _ismbbalnum                0000000140048fc8 f   libucrt:ismbbyte.obj
 0001:00047fe4       _ismbbalnum_l              0000000140048fe4 f   libucrt:ismbbyte.obj
 0001:00048004       _ismbbalpha                0000000140049004 f   libucrt:ismbbyte.obj
 0001:00048020       _ismbbalpha_l              0000000140049020 f   libucrt:ismbbyte.obj
 0001:00048040       _ismbbblank                0000000140049040 f   libucrt:ismbbyte.obj
 0001:00048064       _ismbbblank_l              0000000140049064 f   libucrt:ismbbyte.obj
 0001:0004808c       _ismbbgraph                000000014004908c f   libucrt:ismbbyte.obj
 0001:000480a8       _ismbbgraph_l              00000001400490a8 f   libucrt:ismbbyte.obj
 0001:000480c8       _ismbbkalnum               00000001400490c8 f   libucrt:ismbbyte.obj
 0001:000480e0       _ismbbkalnum_l             00000001400490e0 f   libucrt:ismbbyte.obj
 0001:000480fc       _ismbbkana                 00000001400490fc f   libucrt:ismbbyte.obj
 0001:00048104       _ismbbkana_l               0000000140049104 f   libucrt:ismbbyte.obj
 0001:00048184       _ismbbkprint               0000000140049184 f   libucrt:ismbbyte.obj
 0001:0004819c       _ismbbkprint_l             000000014004919c f   libucrt:ismbbyte.obj
 0001:000481b8       _ismbbkpunct               00000001400491b8 f   libucrt:ismbbyte.obj
 0001:000481d0       _ismbbkpunct_l             00000001400491d0 f   libucrt:ismbbyte.obj
 0001:000481ec       _ismbblead                 00000001400491ec f   libucrt:ismbbyte.obj
 0001:00048204       _ismbblead_l               0000000140049204 f   libucrt:ismbbyte.obj
 0001:00048220       _ismbbprint                0000000140049220 f   libucrt:ismbbyte.obj
 0001:0004823c       _ismbbprint_l              000000014004923c f   libucrt:ismbbyte.obj
 0001:0004825c       _ismbbpunct                000000014004925c f   libucrt:ismbbyte.obj
 0001:00048274       _ismbbpunct_l              0000000140049274 f   libucrt:ismbbyte.obj
 0001:00048290       _ismbbtrail                0000000140049290 f   libucrt:ismbbyte.obj
 0001:000482a8       _ismbbtrail_l              00000001400492a8 f   libucrt:ismbbyte.obj
 0001:00048330       __acrt_MultiByteToWideChar 0000000140049330 f   libucrt:multibytetowidechar.obj
 0001:000483f8       __acrt_WideCharToMultiByte 00000001400493f8 f   libucrt:widechartomultibyte.obj
 0001:00048594       __dcrt_get_narrow_environment_from_os 0000000140049594 f   libucrt:get_environment_from_os.obj
 0001:000486d8       __dcrt_get_wide_environment_from_os 00000001400496d8 f   libucrt:get_environment_from_os.obj
 0001:0004937c       ??$get_or_create_environment_nolock@$$V@?$__crt_char_traits@D@@SAPEAPEADXZ 000000014004a37c f i libucrt:setenv.obj
 0001:00049384       ??$get_or_create_environment_nolock@$$V@?$__crt_char_traits@_W@@SAPEAPEA_WXZ 000000014004a384 f i libucrt:setenv.obj
 0001:0004938c       ??$set_environment_variable@AEBQEADQEAD@?$__crt_char_traits@D@@SAHAEBQEAD$$QEBQEAD@Z 000000014004a38c f i libucrt:setenv.obj
 0001:0004939c       ??$set_environment_variable@AEBQEA_WQEA_W@?$__crt_char_traits@_W@@SAHAEBQEA_W$$QEBQEA_W@Z 000000014004a39c f i libucrt:setenv.obj
 0001:000493ac       ??$tcschr@AEBQEADD@?$__crt_char_traits@D@@SAPEADAEBQEAD$$QEAD@Z 000000014004a3ac f i libucrt:setenv.obj
 0001:000493bc       ??$tcschr@AEBQEA_WD@?$__crt_char_traits@_W@@SAPEA_WAEBQEA_W$$QEAD@Z 000000014004a3bc f i libucrt:setenv.obj
 0001:000493cc       ??$tcscpy_s@AEAPEADAEB_KAEAPEAD@?$__crt_char_traits@D@@SAHAEAPEADAEB_K0@Z 000000014004a3cc f i libucrt:setenv.obj
 0001:000493e0       ??$tcscpy_s@AEAPEA_WAEB_KAEAPEA_W@?$__crt_char_traits@_W@@SAHAEAPEA_WAEB_K0@Z 000000014004a3e0 f i libucrt:setenv.obj
 0001:000493f4       ??$tcscpy_s@AEBQEADAEB_KAEBQEAD@?$__crt_char_traits@D@@SAHAEBQEADAEB_K0@Z 000000014004a3f4 f i libucrt:setenv.obj
 0001:00049408       ??$tcscpy_s@AEBQEA_WAEB_KAEBQEA_W@?$__crt_char_traits@_W@@SAHAEBQEA_WAEB_K0@Z 000000014004a408 f i libucrt:setenv.obj
 0001:0004941c       ??$tcslen@AEBQEAD@?$__crt_char_traits@D@@SA_KAEBQEAD@Z 000000014004a41c f i libucrt:setenv.obj
 0001:00049434       ??$tcslen@AEBQEA_W@?$__crt_char_traits@_W@@SA_KAEBQEA_W@Z 000000014004a434 f i libucrt:setenv.obj
 0001:0004944c       ??$tcsnicoll@AEBQEBDAEAPEADAEB_K@?$__crt_char_traits@D@@SAHAEBQEBDAEAPEADAEB_K@Z 000000014004a44c f i libucrt:setenv.obj
 0001:00049460       ??$tcsnicoll@AEBQEB_WAEAPEA_WAEB_K@?$__crt_char_traits@_W@@SAHAEBQEB_WAEAPEA_WAEB_K@Z 000000014004a460 f i libucrt:setenv.obj
 0001:000494bc       ?strchr@@YAPEADQEADH@Z     000000014004a4bc f i libucrt:setenv.obj
 0001:000494c4       ?wcschr@@YAPEA_WPEA_W_W@Z  000000014004a4c4 f i libucrt:setenv.obj
 0001:000494cc       __dcrt_set_variable_in_narrow_environment_nolock 000000014004a4cc f   libucrt:setenv.obj
 0001:000494d4       __dcrt_set_variable_in_wide_environment_nolock 000000014004a4d4 f   libucrt:setenv.obj
 0001:000494dc       __acrt_initialize_locks    000000014004a4dc f   libucrt:locks.obj
 0001:00049538       __acrt_lock                000000014004a538 f   libucrt:locks.obj
 0001:00049558       __acrt_uninitialize_locks  000000014004a558 f   libucrt:locks.obj
 0001:0004959c       __acrt_unlock              000000014004a59c f   libucrt:locks.obj
 0001:000495bc       _lock_locales              000000014004a5bc f   libucrt:locks.obj
 0001:000495e0       _unlock_locales            000000014004a5e0 f   libucrt:locks.obj
 0001:000497fc       __acrt_get_begin_thread_init_policy 000000014004a7fc f   libucrt:win_policies.obj
 0001:00049864       __acrt_get_developer_information_policy 000000014004a864 f   libucrt:win_policies.obj
 0001:000498cc       __acrt_get_process_end_policy 000000014004a8cc f   libucrt:win_policies.obj
 0001:00049918       __acrt_get_windowing_model_policy 000000014004a918 f   libucrt:win_policies.obj
 0001:000499a0       ??$?RU__crt_lowio_handle_data@@@__crt_internal_free_policy@@QEBAXQEBU__crt_lowio_handle_data@@@Z 000000014004a9a0 f i libucrt:osfinfo.obj
 0001:000499ac       ??0?$__crt_unique_heap_ptr@U__crt_lowio_handle_data@@U__crt_internal_free_policy@@@@QEAA@QEAU__crt_lowio_handle_data@@@Z 000000014004a9ac f i libucrt:osfinfo.obj
 0001:000499b4       ??1?$__crt_unique_heap_ptr@U__crt_lowio_handle_data@@U__crt_internal_free_policy@@@@QEAA@XZ 000000014004a9b4 f i libucrt:osfinfo.obj
 0001:000499d8       ??B?$__crt_unique_heap_ptr@U__crt_lowio_handle_data@@U__crt_internal_free_policy@@@@QEBA_NXZ 000000014004a9d8 f i libucrt:osfinfo.obj
 0001:000499e4       ?detach@?$__crt_unique_heap_ptr@U__crt_lowio_handle_data@@U__crt_internal_free_policy@@@@QEAAPEAU__crt_lowio_handle_data@@XZ 000000014004a9e4 f i libucrt:osfinfo.obj
 0001:000499f0       ?get@?$__crt_unique_heap_ptr@U__crt_lowio_handle_data@@U__crt_internal_free_policy@@@@QEBAPEAU__crt_lowio_handle_data@@XZ 000000014004a9f0 f i libucrt:osfinfo.obj
 0001:000499f4       ?is_valid@?$__crt_unique_heap_ptr@U__crt_lowio_handle_data@@U__crt_internal_free_policy@@@@QEBA_NXZ 000000014004a9f4 f i libucrt:osfinfo.obj
 0001:00049a00       ?release@?$__crt_unique_heap_ptr@U__crt_lowio_handle_data@@U__crt_internal_free_policy@@@@QEAAXXZ 000000014004aa00 f i libucrt:osfinfo.obj
 0001:00049a24       __acrt_lowio_create_handle_array 000000014004aa24 f   libucrt:osfinfo.obj
 0001:00049af4       __acrt_lowio_destroy_handle_array 000000014004aaf4 f   libucrt:osfinfo.obj
 0001:00049b58       __acrt_lowio_ensure_fh_exists 000000014004ab58 f   libucrt:osfinfo.obj
 0001:00049c2c       __acrt_lowio_lock_fh       000000014004ac2c f   libucrt:osfinfo.obj
 0001:00049c5c       __acrt_lowio_set_os_handle 000000014004ac5c f   libucrt:osfinfo.obj
 0001:00049d4c       __acrt_lowio_unlock_fh     000000014004ad4c f   libucrt:osfinfo.obj
 0001:00049d7c       _alloc_osfhnd              000000014004ad7c f   libucrt:osfinfo.obj
 0001:00049f0c       _free_osfhnd               000000014004af0c f   libucrt:osfinfo.obj
 0001:00049ff4       _get_osfhandle             000000014004aff4 f   libucrt:osfinfo.obj
 0001:0004a088       _open_osfhandle            000000014004b088 f   libucrt:osfinfo.obj
 0001:0004a1cc       ?dangerous_get_state_array@?$dual_state_global@H@__crt_state_management@@QEAAPEAHXZ 000000014004b1cc f i libucrt:txtmode.obj
 0001:0004a1d0       __acrt_initialize_fmode    000000014004b1d0 f   libucrt:txtmode.obj
 0001:0004a1f0       __p__fmode                 000000014004b1f0 f   libucrt:txtmode.obj
 0001:0004a498       __acrt_initialize_lowio    000000014004b498 f   libucrt:ioinit.obj
 0001:0004a4e4       __acrt_uninitialize_lowio  000000014004b4e4 f   libucrt:ioinit.obj
 0001:0004a534       ??$?RG@__crt_internal_free_policy@@QEBAXQEBG@Z 000000014004b534 f i libucrt:initctype.obj
 0001:0004a540       ??$?RJ@__crt_internal_free_policy@@QEBAXQEBJ@Z 000000014004b540 f i libucrt:initctype.obj
 0001:0004a54c       ??0?$__crt_unique_heap_ptr@GU__crt_internal_free_policy@@@@QEAA@QEAG@Z 000000014004b54c f i libucrt:initctype.obj
 0001:0004a554       ??0?$__crt_unique_heap_ptr@JU__crt_internal_free_policy@@@@QEAA@QEAJ@Z 000000014004b554 f i libucrt:initctype.obj
 0001:0004a55c       ??1?$__crt_unique_heap_ptr@GU__crt_internal_free_policy@@@@QEAA@XZ 000000014004b55c f i libucrt:initctype.obj
 0001:0004a580       ??1?$__crt_unique_heap_ptr@JU__crt_internal_free_policy@@@@QEAA@XZ 000000014004b580 f i libucrt:initctype.obj
 0001:0004a5a4       ?detach@?$__crt_unique_heap_ptr@GU__crt_internal_free_policy@@@@QEAAPEAGXZ 000000014004b5a4 f i libucrt:initctype.obj
 0001:0004a5b0       ?detach@?$__crt_unique_heap_ptr@JU__crt_internal_free_policy@@@@QEAAPEAJXZ 000000014004b5b0 f i libucrt:initctype.obj
 0001:0004a5bc       ?release@?$__crt_unique_heap_ptr@GU__crt_internal_free_policy@@@@QEAAXXZ 000000014004b5bc f i libucrt:initctype.obj
 0001:0004a5e0       ?release@?$__crt_unique_heap_ptr@JU__crt_internal_free_policy@@@@QEAAXXZ 000000014004b5e0 f i libucrt:initctype.obj
 0001:0004a604       ___lc_codepage_func        000000014004b604 f   libucrt:initctype.obj
 0001:0004a640       ___lc_collate_cp_func      000000014004b640 f   libucrt:initctype.obj
 0001:0004a67c       ___lc_locale_name_func     000000014004b67c f   libucrt:initctype.obj
 0001:0004a6bc       ___mb_cur_max_func         000000014004b6bc f   libucrt:initctype.obj
 0001:0004a6f8       ___mb_cur_max_l_func       000000014004b6f8 f   libucrt:initctype.obj
 0001:0004a70c       __acrt_locale_initialize_ctype 000000014004b70c f   libucrt:initctype.obj
 0001:0004af08       ??$?RUlconv@@@__crt_internal_free_policy@@QEBAXQEBUlconv@@@Z 000000014004bf08 f i libucrt:initmon.obj
 0001:0004af14       ??0?$__crt_unique_heap_ptr@Ulconv@@U__crt_internal_free_policy@@@@QEAA@QEAUlconv@@@Z 000000014004bf14 f i libucrt:initmon.obj
 0001:0004af1c       ??1?$__crt_unique_heap_ptr@Ulconv@@U__crt_internal_free_policy@@@@QEAA@XZ 000000014004bf1c f i libucrt:initmon.obj
 0001:0004af40       ?detach@?$__crt_unique_heap_ptr@Ulconv@@U__crt_internal_free_policy@@@@QEAAPEAUlconv@@XZ 000000014004bf40 f i libucrt:initmon.obj
 0001:0004af4c       ?release@?$__crt_unique_heap_ptr@Ulconv@@U__crt_internal_free_policy@@@@QEAAXXZ 000000014004bf4c f i libucrt:initmon.obj
 0001:0004af70       __acrt_locale_free_monetary 000000014004bf70 f   libucrt:initmon.obj
 0001:0004b0bc       __acrt_locale_initialize_monetary 000000014004c0bc f   libucrt:initmon.obj
 0001:0004b77c       __acrt_locale_free_numeric 000000014004c77c f   libucrt:initnum.obj
 0001:0004b804       __acrt_locale_initialize_numeric 000000014004c804 f   libucrt:initnum.obj
 0001:0004bbe4       ??$?RU__crt_lc_time_data@@@__crt_internal_free_policy@@QEBAXQEBU__crt_lc_time_data@@@Z 000000014004cbe4 f i libucrt:inittime.obj
 0001:0004bc38       ??0?$__crt_unique_heap_ptr@U__crt_lc_time_data@@U__crt_internal_free_policy@@@@QEAA@QEAU__crt_lc_time_data@@@Z 000000014004cc38 f i libucrt:inittime.obj
 0001:0004bc40       ??1?$__crt_unique_heap_ptr@U__crt_lc_time_data@@U__crt_internal_free_policy@@@@QEAA@XZ 000000014004cc40 f i libucrt:inittime.obj
 0001:0004bc64       ??B?$__crt_unique_heap_ptr@U__crt_lc_time_data@@U__crt_internal_free_policy@@@@QEBA_NXZ 000000014004cc64 f i libucrt:inittime.obj
 0001:0004bc70       ?detach@?$__crt_unique_heap_ptr@U__crt_lc_time_data@@U__crt_internal_free_policy@@@@QEAAPEAU__crt_lc_time_data@@XZ 000000014004cc70 f i libucrt:inittime.obj
 0001:0004bcec       ?get@?$__crt_unique_heap_ptr@U__crt_lc_time_data@@U__crt_internal_free_policy@@@@QEBAPEAU__crt_lc_time_data@@XZ 000000014004ccec f i libucrt:inittime.obj
 0001:0004c194       ?is_valid@?$__crt_unique_heap_ptr@U__crt_lc_time_data@@U__crt_internal_free_policy@@@@QEBA_NXZ 000000014004d194 f i libucrt:inittime.obj
 0001:0004c1a0       ?release@?$__crt_unique_heap_ptr@U__crt_lc_time_data@@U__crt_internal_free_policy@@@@QEAAXXZ 000000014004d1a0 f i libucrt:inittime.obj
 0001:0004c1c4       __acrt_locale_free_time    000000014004d1c4 f   libucrt:inittime.obj
 0001:0004c310       __acrt_locale_initialize_time 000000014004d310 f   libucrt:inittime.obj
 0001:0004c3d4       __p___mb_cur_max           000000014004d3d4 f   libucrt:nlsdata.obj
 0001:0004c410       __pctype_func              000000014004d410 f   libucrt:ctype.obj
 0001:0004c44c       __pwctype_func             000000014004d44c f   libucrt:ctype.obj
 0001:0004c458       _malloc_base               000000014004d458 f   libucrt:malloc_base.obj
 0001:0004c604       wcsncat_s                  000000014004d604 f   libucrt:wcsncat_s.obj
 0001:0004c740       wcscspn                    000000014004d740 f   libucrt:wcscspn.obj
 0001:0004d25c       ??1?$__crt_simd_cleanup_guard@$00@@QEAA@XZ 000000014004e25c f i libucrt:strnlen.obj
 0001:0004d260       ??1?$__crt_simd_cleanup_guard@$0A@@@QEAA@XZ 000000014004e260 f i libucrt:strnlen.obj
 0001:0004d264       ?compare_equals@?$__crt_simd_traits@$00E@@SA?AT__m256i@@T2@0@Z 000000014004e264 f i libucrt:strnlen.obj
 0001:0004d270       ?compare_equals@?$__crt_simd_traits@$00G@@SA?AT__m256i@@T2@0@Z 000000014004e270 f i libucrt:strnlen.obj
 0001:0004d27c       ?compare_equals@?$__crt_simd_traits@$0A@E@@SA?AT__m128i@@T2@0@Z 000000014004e27c f i libucrt:strnlen.obj
 0001:0004d288       ?compare_equals@?$__crt_simd_traits@$0A@G@@SA?AT__m128i@@T2@0@Z 000000014004e288 f i libucrt:strnlen.obj
 0001:0004d294       ?compute_byte_mask@?$__crt_simd_pack_traits@$00@@SAHT__m256i@@@Z 000000014004e294 f i libucrt:strnlen.obj
 0001:0004d2a4       ?compute_byte_mask@?$__crt_simd_pack_traits@$0A@@@SAHT__m128i@@@Z 000000014004e2a4 f i libucrt:strnlen.obj
 0001:0004d2b0       ?get_zero_pack@?$__crt_simd_pack_traits@$00@@SA?AT__m256i@@XZ 000000014004e2b0 f i libucrt:strnlen.obj
 0001:0004d2b8       ?get_zero_pack@?$__crt_simd_pack_traits@$0A@@@SA?AT__m128i@@XZ 000000014004e2b8 f i libucrt:strnlen.obj
 0001:0004d2bc       strnlen                    000000014004e2bc f   libucrt:strnlen.obj
 0001:0004d460       wcslen                     000000014004e460 f   libucrt:strnlen.obj
 0001:0004d5d4       wcsnlen                    000000014004e5d4 f   libucrt:strnlen.obj
 0001:0004d820       wcspbrk                    000000014004e820 f   libucrt:wcspbrk.obj
 0001:0004d864       ??0?$__crt_scoped_stack_ptr@_W@@QEAA@U?$__crt_scoped_stack_ptr_tag@_W@@@Z 000000014004e864 f i libucrt:getstringtypea.obj
 0001:0004d86c       ??0?$__crt_scoped_stack_ptr_tag@_W@@QEAA@QEA_W@Z 000000014004e86c f i libucrt:getstringtypea.obj
 0001:0004d874       ??1?$__crt_scoped_stack_ptr@_W@@QEAA@XZ 000000014004e874 f i libucrt:getstringtypea.obj
 0001:0004d8a0       ?get@?$__crt_scoped_stack_ptr@_W@@QEBAPEA_WXZ 000000014004e8a0 f i libucrt:getstringtypea.obj
 0001:0004d8a4       _MallocaComputeSize        000000014004e8a4 f i libucrt:getstringtypea.obj
 0001:0004d8b8       _MarkAllocaS               000000014004e8b8 f i libucrt:getstringtypea.obj
 0001:0004d8cc       __acrt_GetStringTypeA      000000014004e8cc f   libucrt:getstringtypea.obj
 0001:0004dabc       _freea_crt                 000000014004eabc f i libucrt:getstringtypea.obj
 0001:0004dae4       __acrt_add_locale_ref      000000014004eae4 f   libucrt:locale_refcounting.obj
 0001:0004db94       __acrt_free_locale         000000014004eb94 f   libucrt:locale_refcounting.obj
 0001:0004dd68       __acrt_locale_add_lc_time_reference 000000014004ed68 f   libucrt:locale_refcounting.obj
 0001:0004dd98       __acrt_locale_free_lc_time_if_unreferenced 000000014004ed98 f   libucrt:locale_refcounting.obj
 0001:0004dddc       __acrt_locale_release_lc_time_reference 000000014004eddc f   libucrt:locale_refcounting.obj
 0001:0004de0c       __acrt_release_locale_ref  000000014004ee0c f   libucrt:locale_refcounting.obj
 0001:0004dee0       __acrt_update_thread_locale_data 000000014004eee0 f   libucrt:locale_refcounting.obj
 0001:0004df6c       _updatetlocinfoEx_nolock   000000014004ef6c f   libucrt:locale_refcounting.obj
 0001:0004ea50       __acrt_get_qualified_locale 000000014004fa50 f   libucrt:get_qualified_locale.obj
 0001:0004f810       __acrt_get_qualified_locale_downlevel 0000000140050810 f   libucrt:getqloc_downlevel.obj
 0001:0004fb64       ??$?B$$A6AHPEA_WK_J@Z@__crt_fast_encoded_nullptr_t@@QEBAP6AHPEA_WK_J@ZXZ 0000000140050b64 f i libucrt:winapi_thunks.obj
 0001:0004fc38       ??$__crt_fast_decode_pointer@P6AHPEA_WK_J@Z@@YAP6AHPEA_WK_J@ZQ6AH0K1@Z@Z 0000000140050c38 f i libucrt:winapi_thunks.obj
 0001:0004fc54       ??$__crt_fast_decode_pointer@PEAX@@YAPEAXQEAX@Z 0000000140050c54 f i libucrt:winapi_thunks.obj
 0001:0004fc70       ??$__crt_fast_encode_pointer@P6AHPEA_WK_J@Z@@YAP6AHPEA_WK_J@ZQ6AH0K1@Z@Z 0000000140050c70 f i libucrt:winapi_thunks.obj
 0001:00050a24       GetCurrentThreadEffectiveToken 0000000140051a24 f i libucrt:winapi_thunks.obj
 0001:00050a30       __acrt_AppPolicyGetProcessTerminationMethodInternal 0000000140051a30 f   libucrt:winapi_thunks.obj
 0001:00050a94       __acrt_AppPolicyGetShowDeveloperDiagnosticInternal 0000000140051a94 f   libucrt:winapi_thunks.obj
 0001:00050af8       __acrt_AppPolicyGetThreadInitializationTypeInternal 0000000140051af8 f   libucrt:winapi_thunks.obj
 0001:00050b5c       __acrt_AppPolicyGetWindowingModelInternal 0000000140051b5c f   libucrt:winapi_thunks.obj
 0001:00050bc0       __acrt_AreFileApisANSI     0000000140051bc0 f   libucrt:winapi_thunks.obj
 0001:00050c08       __acrt_CompareStringEx     0000000140051c08 f   libucrt:winapi_thunks.obj
 0001:00050d1c       __acrt_EnumSystemLocalesEx 0000000140051d1c f   libucrt:winapi_thunks.obj
 0001:00050dd8       __acrt_FlsAlloc            0000000140051dd8 f   libucrt:winapi_thunks.obj
 0001:00050e34       __acrt_FlsFree             0000000140051e34 f   libucrt:winapi_thunks.obj
 0001:00050e8c       __acrt_FlsGetValue         0000000140051e8c f   libucrt:winapi_thunks.obj
 0001:00050ee4       __acrt_FlsSetValue         0000000140051ee4 f   libucrt:winapi_thunks.obj
 0001:00050f4c       __acrt_GetDateFormatEx     0000000140051f4c f   libucrt:winapi_thunks.obj
 0001:00051030       __acrt_GetEnabledXStateFeatures 0000000140052030 f   libucrt:winapi_thunks.obj
 0001:00051078       __acrt_GetLocaleInfoEx     0000000140052078 f   libucrt:winapi_thunks.obj
 0001:0005111c       __acrt_GetSystemTimePreciseAsFileTime 000000014005211c f   libucrt:winapi_thunks.obj
 0001:00051178       __acrt_GetTimeFormatEx     0000000140052178 f   libucrt:winapi_thunks.obj
 0001:00051250       __acrt_GetUserDefaultLocaleName 0000000140052250 f   libucrt:winapi_thunks.obj
 0001:000512cc       __acrt_GetXStateFeaturesMask 00000001400522cc f   libucrt:winapi_thunks.obj
 0001:00051334       __acrt_InitializeCriticalSectionEx 0000000140052334 f   libucrt:winapi_thunks.obj
 0001:000513b0       __acrt_IsValidLocaleName   00000001400523b0 f   libucrt:winapi_thunks.obj
 0001:0005141c       __acrt_LCIDToLocaleName    000000014005241c f   libucrt:winapi_thunks.obj
 0001:000514a8       __acrt_LCMapStringEx       00000001400524a8 f   libucrt:winapi_thunks.obj
 0001:000515bc       __acrt_LocaleNameToLCID    00000001400525bc f   libucrt:winapi_thunks.obj
 0001:00051620       __acrt_LocateXStateFeature 0000000140052620 f   libucrt:winapi_thunks.obj
 0001:00051698       __acrt_MessageBoxA         0000000140052698 f   libucrt:winapi_thunks.obj
 0001:00051728       __acrt_MessageBoxW         0000000140052728 f   libucrt:winapi_thunks.obj
 0001:000517b8       __acrt_RoInitialize        00000001400527b8 f   libucrt:winapi_thunks.obj
 0001:00051808       __acrt_RoUninitialize      0000000140052808 f   libucrt:winapi_thunks.obj
 0001:00051848       __acrt_RtlGenRandom        0000000140052848 f   libucrt:winapi_thunks.obj
 0001:000518ac       __acrt_SetThreadStackGuarantee 00000001400528ac f   libucrt:winapi_thunks.obj
 0001:00051900       __acrt_can_show_message_box 0000000140052900 f   libucrt:winapi_thunks.obj
 0001:00051988       __acrt_can_use_vista_locale_apis 0000000140052988 f   libucrt:winapi_thunks.obj
 0001:000519c4       __acrt_can_use_xstate_apis 00000001400529c4 f   libucrt:winapi_thunks.obj
 0001:00051a00       __acrt_eagerly_load_locale_apis 0000000140052a00 f   libucrt:winapi_thunks.obj
 0001:00051bb0       __acrt_get_parent_window   0000000140052bb0 f   libucrt:winapi_thunks.obj
 0001:00051c48       __acrt_initialize_winapi_thunks 0000000140052c48 f   libucrt:winapi_thunks.obj
 0001:00051c88       __acrt_is_interactive      0000000140052c88 f   libucrt:winapi_thunks.obj
 0001:00051d80       __acrt_uninitialize_winapi_thunks 0000000140052d80 f   libucrt:winapi_thunks.obj
 0001:00051dd4       localeconv                 0000000140052dd4 f   libucrt:localeconv.obj
 0001:00051e14       _recalloc                  0000000140052e14 f   libucrt:recalloc.obj
 0001:00051e1c       _recalloc_base             0000000140052e1c f   libucrt:recalloc.obj
 0001:00051ed8       __acrt_getheap             0000000140052ed8 f   libucrt:heap_handle.obj
 0001:00051ee4       __acrt_initialize_heap     0000000140052ee4 f   libucrt:heap_handle.obj
 0001:00051f08       __acrt_uninitialize_heap   0000000140052f08 f   libucrt:heap_handle.obj
 0001:00051f18       _get_heap_handle           0000000140052f18 f   libucrt:heap_handle.obj
 0001:00051f24       __acrt_execute_initializers 0000000140052f24 f   libucrt:shared_initialization.obj
 0001:00051fc4       __acrt_execute_uninitializers 0000000140052fc4 f   libucrt:shared_initialization.obj
 0001:00052010       ??$?B$$A6AH_K@Z@__crt_fast_encoded_nullptr_t@@QEBAP6AH_K@ZXZ 0000000140053010 f i libucrt:new_handler.obj
 0001:0005201c       ??$__crt_fast_decode_pointer@P6AH_K@Z@@YAP6AH_K@ZQ6AH0@Z@Z 000000014005301c f i libucrt:new_handler.obj
 0001:00052038       ??$__crt_fast_encode_pointer@P6AH_K@Z@@YAP6AH_K@ZQ6AH0@Z@Z 0000000140053038 f i libucrt:new_handler.obj
 0001:00052060       ?_set_new_handler@@YAP6AH_K@ZH@Z 0000000140053060 f   libucrt:new_handler.obj
 0001:00052070       ?initialize@?$dual_state_global@P6AH_K@Z@__crt_state_management@@QEAAXQ6AH_K@Z@Z 0000000140053070 f i libucrt:new_handler.obj
 0001:000520a0       ?value@?$dual_state_global@P6AH_K@Z@__crt_state_management@@QEAAAEAP6AH_K@ZXZ 00000001400530a0 f i libucrt:new_handler.obj
 0001:000520a4       __acrt_initialize_new_handler 00000001400530a4 f   libucrt:new_handler.obj
 0001:000520b0       _callnewh                  00000001400530b0 f   libucrt:new_handler.obj
 0001:000520ec       _query_new_handler         00000001400530ec f   libucrt:new_handler.obj
 0001:00052130       _set_new_handler           0000000140053130 f   libucrt:new_handler.obj
 0001:000521a0       ??$?B$$A6AXH@Z@__crt_fast_encoded_nullptr_t@@QEBAP6AXH@ZXZ 00000001400531a0 f i libucrt:signal.obj
 0001:00052234       ??$__crt_fast_decode_pointer@P6AXH@Z@@YAP6AXH@ZQ6AXH@Z@Z 0000000140053234 f i libucrt:signal.obj
 0001:00052250       ??$__crt_fast_encode_pointer@P6AXH@Z@@YAP6AXH@ZQ6AXH@Z@Z 0000000140053250 f i libucrt:signal.obj
 0001:000523c0       ?initialize@?$dual_state_global@P6AXH@Z@__crt_state_management@@QEAAXQ6AXH@Z@Z 00000001400533c0 f i libucrt:signal.obj
 0001:0005247c       ?value@?$dual_state_global@P6AXH@Z@__crt_state_management@@QEAAAEAP6AXH@ZXZ 000000014005347c f i libucrt:signal.obj
 0001:00052480       __acrt_get_sigabrt_handler 0000000140053480 f   libucrt:signal.obj
 0001:000524bc       __acrt_initialize_signal_handlers 00000001400534bc f   libucrt:signal.obj
 0001:000524e0       __fpecode                  00000001400534e0 f   libucrt:signal.obj
 0001:000524f8       __pxcptinfoptrs            00000001400534f8 f   libucrt:signal.obj
 0001:00052510       raise                      0000000140053510 f   libucrt:signal.obj
 0001:00052814       signal                     0000000140053814 f   libucrt:signal.obj
 0001:00052da8       ??0__crt_stdio_stream@@QEAA@QEAU__crt_stdio_stream_data@@@Z 0000000140053da8 f i libucrt:fflush.obj
 0001:00052f74       ?__acrt_stdio_reset_buffer@@YAXV__crt_stdio_stream@@@Z 0000000140053f74 f i libucrt:fflush.obj
 0001:00053038       ?has_all_of@__crt_stdio_stream@@QEBA_NJ@Z 0000000140054038 f i libucrt:fflush.obj
 0001:00053090       ?set_flags@__crt_stdio_stream@@QEBA_NJ@Z 0000000140054090 f i libucrt:fflush.obj
 0001:000530b8       ?unset_flags@__crt_stdio_stream@@QEBA_NJ@Z 00000001400540b8 f i libucrt:fflush.obj
 0001:000530e8       __acrt_stdio_flush_nolock  00000001400540e8 f   libucrt:fflush.obj
 0001:00053180       _fflush_nolock             0000000140054180 f   libucrt:fflush.obj
 0001:000531e0       _flushall                  00000001400541e0 f   libucrt:fflush.obj
 0001:000531e8       fflush                     00000001400541e8 f   libucrt:fflush.obj
 0001:00053268       ??$?RPEAU__crt_stdio_stream_data@@@__crt_internal_free_policy@@QEBAXQEBQEAU__crt_stdio_stream_data@@@Z 0000000140054268 f i libucrt:_file.obj
 0001:00053274       ??0?$__crt_unique_heap_ptr@PEAU__crt_stdio_stream_data@@U__crt_internal_free_policy@@@@QEAA@QEAPEAU__crt_stdio_stream_data@@@Z 0000000140054274 f i libucrt:_file.obj
 0001:0005327c       ??1?$__crt_unique_heap_ptr@PEAU__crt_stdio_stream_data@@U__crt_internal_free_policy@@@@QEAA@XZ 000000014005427c f i libucrt:_file.obj
 0001:000532a0       ?detach@?$__crt_unique_heap_ptr@PEAU__crt_stdio_stream_data@@U__crt_internal_free_policy@@@@QEAAPEAPEAU__crt_stdio_stream_data@@XZ 00000001400542a0 f i libucrt:_file.obj
 0001:000532ac       ?release@?$__crt_unique_heap_ptr@PEAU__crt_stdio_stream_data@@U__crt_internal_free_policy@@@@QEAAXXZ 00000001400542ac f i libucrt:_file.obj
 0001:000532d0       __acrt_initialize_stdio    00000001400542d0 f   libucrt:_file.obj
 0001:00053438       __acrt_iob_func            0000000140054438 f   libucrt:_file.obj
 0001:00053450       __acrt_uninitialize_stdio  0000000140054450 f   libucrt:_file.obj
 0001:000534c4       _get_stream_buffer_pointers 00000001400544c4 f   libucrt:_file.obj
 0001:0005351c       _lock_file                 000000014005451c f   libucrt:_file.obj
 0001:0005352c       _unlock_file               000000014005452c f   libucrt:_file.obj
 0001:0005353c       ?has_any_buffer@__crt_stdio_stream@@QEBA_NXZ 000000014005453c f i libucrt:_sftbuf.obj
 0001:00053550       ?has_any_of@__crt_stdio_stream@@QEBA_NJ@Z 0000000140054550 f i libucrt:_sftbuf.obj
 0001:00053560       ?has_temporary_buffer@__crt_stdio_stream@@QEBA_NXZ 0000000140054560 f i libucrt:_sftbuf.obj
 0001:00053570       __acrt_should_use_temporary_buffer 0000000140054570 f   libucrt:_sftbuf.obj
 0001:000535c8       __acrt_stdio_begin_temporary_buffering_nolock 00000001400545c8 f   libucrt:_sftbuf.obj
 0001:000536c4       __acrt_stdio_end_temporary_buffering_nolock 00000001400546c4 f   libucrt:_sftbuf.obj
 0001:0005370c       ??$make_c_string_character_source@DPEAPEAD@__crt_strtox@@YA?AV?$c_string_character_source@D@0@QEBDQEAPEAD@Z 000000014005470c f i libucrt:strtox.obj
 0001:00053724       ??$make_c_string_character_source@_WPEAPEA_W@__crt_strtox@@YA?AV?$c_string_character_source@_W@0@QEB_WQEAPEA_W@Z 0000000140054724 f i libucrt:strtox.obj
 0001:0005373c       ??$parse_integer_from_string@JDPEAPEAD@__crt_strtox@@YAJQEBDQEAPEADHQEAU__crt_locale_pointers@@@Z 000000014005473c f i libucrt:strtox.obj
 0001:00053778       ??$parse_integer_from_string@J_WPEAPEA_W@__crt_strtox@@YAJQEB_WQEAPEA_WHQEAU__crt_locale_pointers@@@Z 0000000140054778 f i libucrt:strtox.obj
 0001:000537b4       ??$parse_integer_from_string@KDPEAPEAD@__crt_strtox@@YAKQEBDQEAPEADHQEAU__crt_locale_pointers@@@Z 00000001400547b4 f i libucrt:strtox.obj
 0001:000537f0       ??$parse_integer_from_string@K_WPEAPEA_W@__crt_strtox@@YAKQEB_WQEAPEA_WHQEAU__crt_locale_pointers@@@Z 00000001400547f0 f i libucrt:strtox.obj
 0001:0005382c       ??$parse_integer_from_string@_JDPEAPEAD@__crt_strtox@@YA_JQEBDQEAPEADHQEAU__crt_locale_pointers@@@Z 000000014005482c f i libucrt:strtox.obj
 0001:00053868       ??$parse_integer_from_string@_J_WPEAPEA_W@__crt_strtox@@YA_JQEB_WQEAPEA_WHQEAU__crt_locale_pointers@@@Z 0000000140054868 f i libucrt:strtox.obj
 0001:000538a4       ??$parse_integer_from_string@_KDPEAPEAD@__crt_strtox@@YA_KQEBDQEAPEADHQEAU__crt_locale_pointers@@@Z 00000001400548a4 f i libucrt:strtox.obj
 0001:000538e0       ??$parse_integer_from_string@_K_WPEAPEA_W@__crt_strtox@@YA_KQEB_WQEAPEA_WHQEAU__crt_locale_pointers@@@Z 00000001400548e0 f i libucrt:strtox.obj
 0001:0005391c       _strtoi64                  000000014005491c f   libucrt:strtox.obj
 0001:00053950       _strtoi64_l                0000000140054950 f   libucrt:strtox.obj
 0001:0005398c       _strtoimax_l               000000014005498c f   libucrt:strtox.obj
 0001:000539c8       _strtol_l                  00000001400549c8 f   libucrt:strtox.obj
 0001:00053a04       _strtoll_l                 0000000140054a04 f   libucrt:strtox.obj
 0001:00053a40       _strtoui64                 0000000140054a40 f   libucrt:strtox.obj
 0001:00053a74       _strtoui64_l               0000000140054a74 f   libucrt:strtox.obj
 0001:00053ab0       _strtoul_l                 0000000140054ab0 f   libucrt:strtox.obj
 0001:00053aec       _strtoull_l                0000000140054aec f   libucrt:strtox.obj
 0001:00053b28       _strtoumax_l               0000000140054b28 f   libucrt:strtox.obj
 0001:00053b64       _wcstoi64                  0000000140054b64 f   libucrt:strtox.obj
 0001:00053b98       _wcstoi64_l                0000000140054b98 f   libucrt:strtox.obj
 0001:00053bd4       _wcstoimax_l               0000000140054bd4 f   libucrt:strtox.obj
 0001:00053c10       _wcstol_l                  0000000140054c10 f   libucrt:strtox.obj
 0001:00053c4c       _wcstoll_l                 0000000140054c4c f   libucrt:strtox.obj
 0001:00053c88       _wcstoui64                 0000000140054c88 f   libucrt:strtox.obj
 0001:00053cbc       _wcstoui64_l               0000000140054cbc f   libucrt:strtox.obj
 0001:00053cf8       _wcstoul_l                 0000000140054cf8 f   libucrt:strtox.obj
 0001:00053d34       _wcstoull_l                0000000140054d34 f   libucrt:strtox.obj
 0001:00053d70       _wcstoumax_l               0000000140054d70 f   libucrt:strtox.obj
 0001:00053dac       strtoimax                  0000000140054dac f   libucrt:strtox.obj
 0001:00053de0       strtol                     0000000140054de0 f   libucrt:strtox.obj
 0001:00053e14       strtoll                    0000000140054e14 f   libucrt:strtox.obj
 0001:00053e48       strtoul                    0000000140054e48 f   libucrt:strtox.obj
 0001:00053e7c       strtoull                   0000000140054e7c f   libucrt:strtox.obj
 0001:00053eb0       strtoumax                  0000000140054eb0 f   libucrt:strtox.obj
 0001:00053ee4       wcstoimax                  0000000140054ee4 f   libucrt:strtox.obj
 0001:00053f18       wcstol                     0000000140054f18 f   libucrt:strtox.obj
 0001:00053f4c       wcstoll                    0000000140054f4c f   libucrt:strtox.obj
 0001:00053f80       wcstoul                    0000000140054f80 f   libucrt:strtox.obj
 0001:00053fb4       wcstoull                   0000000140054fb4 f   libucrt:strtox.obj
 0001:00053fe8       wcstoumax                  0000000140054fe8 f   libucrt:strtox.obj
 0001:0005401c       _mbtowc_l                  000000014005501c f   libucrt:mbtowc.obj
 0001:000541fc       mbtowc                     00000001400551fc f   libucrt:mbtowc.obj
 0001:00054208       _wctomb_l                  0000000140055208 f   libucrt:wctomb.obj
 0001:00054298       _wctomb_s_l                0000000140055298 f   libucrt:wctomb.obj
 0001:0005449c       wctomb                     000000014005549c f   libucrt:wctomb.obj
 0001:000544fc       wctomb_s                   00000001400554fc f   libucrt:wctomb.obj
 0001:00054518       __acrt_update_locale_info  0000000140055518 f   libucrt:locale_update.obj
 0001:00054558       __acrt_update_multibyte_info 0000000140055558 f   libucrt:locale_update.obj
 0001:00054598       ?__acrt_fp_classify@@YA?AW4__acrt_fp_class@@AEBN@Z 0000000140055598 f i libucrt:cvt.obj
 0001:0005460c       ?__acrt_fp_is_negative@@YA_NAEBN@Z 000000014005560c f i libucrt:cvt.obj
 0001:00055528       ?strrchr@@YAPEADQEADH@Z    0000000140056528 f i libucrt:cvt.obj
 0001:00055530       __acrt_fp_format           0000000140056530 f   libucrt:cvt.obj
 0001:00055958       _fputwc_nolock             0000000140056958 f   libucrt:fputwc.obj
 0001:00055b34       _fputwchar                 0000000140056b34 f   libucrt:fputwc.obj
 0001:00055b60       _putwc_nolock              0000000140056b60 f   libucrt:fputwc.obj
 0001:00055b68       fputwc                     0000000140056b68 f   libucrt:fputwc.obj
 0001:00055be0       putwc                      0000000140056be0 f   libucrt:fputwc.obj
 0001:00055be8       putwchar                   0000000140056be8 f   libucrt:fputwc.obj
 0001:00055bf0       ?lowio_handle@__crt_stdio_stream@@QEBAHXZ 0000000140056bf0 f i libucrt:fileno.obj
 0001:00055bf8       _fileno                    0000000140056bf8 f   libucrt:fileno.obj
 0001:00055c28       _fputc_nolock              0000000140056c28 f   libucrt:fputc.obj
 0001:00055c44       _fputchar                  0000000140056c44 f   libucrt:fputc.obj
 0001:00055c70       _putc_nolock               0000000140056c70 f   libucrt:fputc.obj
 0001:00055c8c       fputc                      0000000140056c8c f   libucrt:fputc.obj
 0001:00055dfc       putc                       0000000140056dfc f   libucrt:fputc.obj
 0001:00055e04       putchar                    0000000140056e04 f   libucrt:fputc.obj
 0001:00055e0c       _get_printf_count_output   0000000140056e0c f   libucrt:printf_count_output.obj
 0001:00055e2c       _set_printf_count_output   0000000140056e2c f   libucrt:printf_count_output.obj
 0001:00055e5c       _iswctype_l                0000000140056e5c f   libucrt:iswctype.obj
 0001:00055e64       iswctype                   0000000140056e64 f   libucrt:iswctype.obj
 0001:00055eec       _isctype                   0000000140056eec f   libucrt:isctype.obj
 0001:00055f28       _isctype_l                 0000000140056f28 f   libucrt:isctype.obj
 0001:00056074       _isleadbyte_fast_internal  0000000140057074 f i libucrt:isctype.obj
 0001:00056094       __acrt_OutputDebugStringA  0000000140057094 f   libucrt:outputdebugstringa.obj
 0001:00056290       qsort                      0000000140057290 f   libucrt:qsort.obj
 0001:0005680c       strncpy_s                  000000014005780c f   libucrt:strncpy_s.obj
 0001:000569e0       strpbrk                    00000001400579e0 f   libucrt:strpbrk.obj
 0001:00056e9c       _mbsdec                    0000000140057e9c f   libucrt:mbsdec.obj
 0001:00056ea8       _mbsdec_l                  0000000140057ea8 f   libucrt:mbsdec.obj
 0001:00056f64       ??B?$__crt_scoped_stack_ptr@_W@@QEBA_NXZ 0000000140057f64 f i libucrt:lcmapstringa.obj
 0001:0005734c       __acrt_LCMapStringA        000000014005834c f   libucrt:lcmapstringa.obj
 0001:00057424       _wcsnicoll                 0000000140058424 f   libucrt:wcsnicol.obj
 0001:00057488       _wcsnicoll_l               0000000140058488 f   libucrt:wcsnicol.obj
 0001:000575b4       _strnicoll                 00000001400585b4 f   libucrt:strnicol.obj
 0001:000575d0       _strnicoll_l               00000001400585d0 f   libucrt:strnicol.obj
 0001:00057918       __acrt_SetEnvironmentVariableA 0000000140058918 f   libucrt:setenvironmentvariablea.obj
 0001:00057cec       __acrt_GetLocaleInfoA      0000000140058cec f   libucrt:getlocaleinfoa.obj
 0001:00058544       _i64toa                    0000000140059544 f   libucrt:xtoa.obj
 0001:00058584       _i64toa_s                  0000000140059584 f   libucrt:xtoa.obj
 0001:000585b0       _i64tow                    00000001400595b0 f   libucrt:xtoa.obj
 0001:000585f0       _i64tow_s                  00000001400595f0 f   libucrt:xtoa.obj
 0001:0005861c       _itoa                      000000014005961c f   libucrt:xtoa.obj
 0001:00058658       _itoa_s                    0000000140059658 f   libucrt:xtoa.obj
 0001:00058680       _itow                      0000000140059680 f   libucrt:xtoa.obj
 0001:000586bc       _itow_s                    00000001400596bc f   libucrt:xtoa.obj
 0001:000586e4       _ltoa                      00000001400596e4 f   libucrt:xtoa.obj
 0001:00058720       _ltoa_s                    0000000140059720 f   libucrt:xtoa.obj
 0001:00058748       _ltow                      0000000140059748 f   libucrt:xtoa.obj
 0001:00058784       _ltow_s                    0000000140059784 f   libucrt:xtoa.obj
 0001:000587ac       _ui64toa                   00000001400597ac f   libucrt:xtoa.obj
 0001:000587d8       _ui64toa_s                 00000001400597d8 f   libucrt:xtoa.obj
 0001:000587f0       _ui64tow                   00000001400597f0 f   libucrt:xtoa.obj
 0001:0005881c       _ui64tow_s                 000000014005981c f   libucrt:xtoa.obj
 0001:00058834       _ultoa                     0000000140059834 f   libucrt:xtoa.obj
 0001:00058860       _ultoa_s                   0000000140059860 f   libucrt:xtoa.obj
 0001:00058878       _ultow                     0000000140059878 f   libucrt:xtoa.obj
 0001:000588a4       _ultow_s                   00000001400598a4 f   libucrt:xtoa.obj
 0001:000588bc       __ascii_wcsicmp            00000001400598bc f   libucrt:wcsicmp.obj
 0001:0005890c       _towlower_fast_internal    000000014005990c f i libucrt:wcsicmp.obj
 0001:0005893c       _towlower_internal         000000014005993c f i libucrt:wcsicmp.obj
 0001:00058980       _wcsicmp                   0000000140059980 f   libucrt:wcsicmp.obj
 0001:000589d8       _wcsicmp_l                 00000001400599d8 f   libucrt:wcsicmp.obj
 0001:00058b48       __ascii_wcsnicmp           0000000140059b48 f   libucrt:wcsnicmp.obj
 0001:00058ba8       _wcsnicmp                  0000000140059ba8 f   libucrt:wcsnicmp.obj
 0001:00058c00       _wcsnicmp_l                0000000140059c00 f   libucrt:wcsnicmp.obj
 0001:00058da4       wcscmp                     0000000140059da4 f   libucrt:wcscmp.obj
 0001:00058ef0       __acrt_DownlevelLCIDToLocaleName 0000000140059ef0 f   libucrt:lcidtoname_downlevel.obj
 0001:00059024       __acrt_DownlevelLocaleNameToLCID 000000014005a024 f   libucrt:lcidtoname_downlevel.obj
 0001:00059100       _msize                     000000014005a100 f   libucrt:msize.obj
 0001:00059108       _msize_base                000000014005a108 f   libucrt:msize.obj
 0001:00059150       _realloc_base              000000014005a150 f   libucrt:realloc_base.obj
 0001:0005937c       _commit                    000000014005a37c f   libucrt:commit.obj
 0001:0005a0c4       _utf8_no_of_trailbytes     000000014005b0c4 f i libucrt:write.obj
 0001:0005a0d8       _write                     000000014005b0d8 f   libucrt:write.obj
 0001:0005a200       _write_nolock              000000014005b200 f   libucrt:write.obj
 0001:0005a59c       ?is_in_use@__crt_stdio_stream@@QEBA_NXZ 000000014005b59c f i libucrt:closeall.obj
 0001:0005a5ac       _fcloseall                 000000014005b5ac f   libucrt:closeall.obj
 0001:0005a68c       ?has_crt_buffer@__crt_stdio_stream@@QEBA_NXZ 000000014005b68c f i libucrt:_freebuf.obj
 0001:0005a69c       __acrt_stdio_free_buffer_nolock 000000014005b69c f   libucrt:_freebuf.obj
 0001:0005a6ec       _isatty                    000000014005b6ec f   libucrt:isatty.obj
 0001:0005a764       __iswcsym                  000000014005b764 f i libucrt:_wctype.obj
 0001:0005a79c       __iswcsymf                 000000014005b79c f i libucrt:_wctype.obj
 0001:0005a7d4       _isleadbyte_l              000000014005b7d4 f i libucrt:_wctype.obj
 0001:0005a834       _iswalnum_l                000000014005b834 f i libucrt:_wctype.obj
 0001:0005a840       _iswalpha_l                000000014005b840 f i libucrt:_wctype.obj
 0001:0005a84c       _iswblank_l                000000014005b84c f i libucrt:_wctype.obj
 0001:0005a868       _iswcntrl_l                000000014005b868 f i libucrt:_wctype.obj
 0001:0005a874       _iswcsym_l                 000000014005b874 f i libucrt:_wctype.obj
 0001:0005a8ac       _iswcsymf_l                000000014005b8ac f i libucrt:_wctype.obj
 0001:0005a8e4       _iswdigit_l                000000014005b8e4 f i libucrt:_wctype.obj
 0001:0005a8f0       _iswgraph_l                000000014005b8f0 f i libucrt:_wctype.obj
 0001:0005a8fc       _iswlower_l                000000014005b8fc f i libucrt:_wctype.obj
 0001:0005a908       _iswprint_l                000000014005b908 f i libucrt:_wctype.obj
 0001:0005a914       _iswpunct_l                000000014005b914 f i libucrt:_wctype.obj
 0001:0005a920       _iswspace_l                000000014005b920 f i libucrt:_wctype.obj
 0001:0005a92c       _iswupper_l                000000014005b92c f i libucrt:_wctype.obj
 0001:0005a938       _iswxdigit_l               000000014005b938 f i libucrt:_wctype.obj
 0001:0005a944       isleadbyte                 000000014005b944 f i libucrt:_wctype.obj
 0001:0005a9a4       iswalnum                   000000014005b9a4 f i libucrt:_wctype.obj
 0001:0005a9b0       iswalpha                   000000014005b9b0 f i libucrt:_wctype.obj
 0001:0005a9bc       iswascii                   000000014005b9bc f i libucrt:_wctype.obj
 0001:0005a9d0       iswblank                   000000014005b9d0 f i libucrt:_wctype.obj
 0001:0005a9ec       iswcntrl                   000000014005b9ec f i libucrt:_wctype.obj
 0001:0005a9f8       iswdigit                   000000014005b9f8 f i libucrt:_wctype.obj
 0001:0005aa04       iswgraph                   000000014005ba04 f i libucrt:_wctype.obj
 0001:0005aa10       iswlower                   000000014005ba10 f i libucrt:_wctype.obj
 0001:0005aa1c       iswprint                   000000014005ba1c f i libucrt:_wctype.obj
 0001:0005aa28       iswpunct                   000000014005ba28 f i libucrt:_wctype.obj
 0001:0005aa34       iswspace                   000000014005ba34 f i libucrt:_wctype.obj
 0001:0005aa40       iswupper                   000000014005ba40 f i libucrt:_wctype.obj
 0001:0005aa4c       iswxdigit                  000000014005ba4c f i libucrt:_wctype.obj
 0001:0005aa88       ?__mbrtowc_utf8@__crt_mbstring@@YA_KPEA_WPEBD_KPEAU_Mbstatet@@@Z 000000014005ba88 f   libucrt:mbrtowc.obj
 0001:0005aad0       ?__mbsrtowcs_utf8@__crt_mbstring@@YA_KPEA_WPEAPEBD_KPEAU_Mbstatet@@@Z 000000014005bad0 f   libucrt:mbrtowc.obj
 0001:0005b144       btowc                      000000014005c144 f   libucrt:mbrtowc.obj
 0001:0005b1c4       mbrlen                     000000014005c1c4 f   libucrt:mbrtowc.obj
 0001:0005b214       mbrtowc                    000000014005c214 f   libucrt:mbrtowc.obj
 0001:0005b28c       mbsrtowcs                  000000014005c28c f   libucrt:mbrtowc.obj
 0001:0005b294       mbsrtowcs_s                000000014005c294 f   libucrt:mbrtowc.obj
 0001:0005b38c       ?__c32rtomb_utf8@__crt_mbstring@@YA_KPEAD_UPEAU_Mbstatet@@@Z 000000014005c38c f   libucrt:c32rtomb.obj
 0001:0005b46c       ?reset_and_return@__crt_mbstring@@YA_K_KPEAU_Mbstatet@@@Z 000000014005c46c f i libucrt:c32rtomb.obj
 0001:0005b478       ?return_illegal_sequence@__crt_mbstring@@YA_KPEAU_Mbstatet@@@Z 000000014005c478 f i libucrt:c32rtomb.obj
 0001:0005b49c       c32rtomb                   000000014005c49c f   libucrt:c32rtomb.obj
 0001:0005b580       __acrt_fp_strflt_to_string 000000014005c580 f   libucrt:_fptostr.obj
 0001:0005cce0       ??0big_integer@__crt_strtox@@QEAA@AEBU01@@Z 000000014005dce0 f i libucrt:cfout.obj
 0001:0005cd20       ??0big_integer@__crt_strtox@@QEAA@XZ 000000014005dd20 f i libucrt:cfout.obj
 0001:0005cda0       ??4big_integer@__crt_strtox@@QEAAAEAU01@AEBU01@@Z 000000014005dda0 f i libucrt:cfout.obj
 0001:0005cde0       ??8__crt_strtox@@YA_NAEBUbig_integer@0@0@Z 000000014005dde0 f i libucrt:cfout.obj
 0001:0005ce20       ??9__crt_strtox@@YA_NAEBUbig_integer@0@0@Z 000000014005de20 f i libucrt:cfout.obj
 0001:0005ce70       ?add_carry@__crt_strtox@@YAIAEAIII@Z 000000014005de70 f i libucrt:cfout.obj
 0001:0005ce90       ?add_multiply_carry@__crt_strtox@@YAIAEAIIII@Z 000000014005de90 f i libucrt:cfout.obj
 0001:0005cec0       ?bit_scan_reverse@__crt_strtox@@YAII@Z 000000014005dec0 f i libucrt:cfout.obj
 0001:0005cee0       ?count_sequential_high_zeroes@__crt_strtox@@YAII@Z 000000014005dee0 f i libucrt:cfout.obj
 0001:0005cf00       ?divide@__crt_strtox@@YA_KAEAUbig_integer@1@AEBU21@@Z 000000014005df00 f i libucrt:cfout.obj
 0001:0005d440       ?is_zero@__crt_strtox@@YA_NAEBUbig_integer@1@@Z 000000014005e440 f i libucrt:cfout.obj
 0001:0005d450       ?make_big_integer@__crt_strtox@@YA?AUbig_integer@1@_K@Z 000000014005e450 f i libucrt:cfout.obj
 0001:0005d470       ?make_big_integer_power_of_two@__crt_strtox@@YA?AUbig_integer@1@I@Z 000000014005e470 f i libucrt:cfout.obj
 0001:0005d4f0       ?multiply@__crt_strtox@@YA_NAEAUbig_integer@1@AEBU21@@Z 000000014005e4f0 f i libucrt:cfout.obj
 0001:0005d990       ?multiply@__crt_strtox@@YA_NAEAUbig_integer@1@I@Z 000000014005e990 f i libucrt:cfout.obj
 0001:0005dac0       ?multiply_64_32@__crt_strtox@@YA_K_KI@Z 000000014005eac0 f i libucrt:cfout.obj
 0001:0005dad0       ?multiply_by_power_of_ten@__crt_strtox@@YA_NAEAUbig_integer@1@I@Z 000000014005ead0 f i libucrt:cfout.obj
 0001:0005e1f0       ?multiply_core@__crt_strtox@@YAIQEAIII@Z 000000014005f1f0 f i libucrt:cfout.obj
 0001:0005e250       ?shift_left@__crt_strtox@@YA_NAEAUbig_integer@1@I@Z 000000014005f250 f i libucrt:cfout.obj
 0001:0005e42c       __acrt_fltout              000000014005f42c f   libucrt:cfout.obj
 0001:0005fbac       __fpe_flt_rounds           0000000140060bac f   libucrt:fegetround.obj
 0001:0005fc04       fegetround                 0000000140060c04 f   libucrt:fegetround.obj
 0001:00060034       ?has_big_buffer@__crt_stdio_stream@@QEBA_NXZ 0000000140061034 f i libucrt:_flsbuf.obj
 0001:000600dc       __acrt_stdio_flush_and_write_narrow_nolock 00000001400610dc f   libucrt:_flsbuf.obj
 0001:000601c0       __acrt_stdio_flush_and_write_wide_nolock 00000001400611c0 f   libucrt:_flsbuf.obj
 0001:000602ac       __acrt_GetStringTypeW      00000001400612ac f   libucrt:getstringtypew.obj
 0001:00060534       _mbstowcs_l                0000000140061534 f   libucrt:mbstowcs.obj
 0001:0006053c       _mbstowcs_s_l              000000014006153c f   libucrt:mbstowcs.obj
 0001:000606bc       mbstowcs                   00000001400616bc f   libucrt:mbstowcs.obj
 0001:000606dc       mbstowcs_s                 00000001400616dc f   libucrt:mbstowcs.obj
 0001:00060704       __strncnt                  0000000140061704 f   libucrt:strncnt.obj
 0001:00060720       __acrt_CompareStringW      0000000140061720 f   libucrt:comparestringw.obj
 0001:0006080c       __ascii_strnicmp           000000014006180c f   libucrt:strnicmp.obj
 0001:00060868       _strnicmp                  0000000140061868 f   libucrt:strnicmp.obj
 0001:000608cc       _strnicmp_l                00000001400618cc f   libucrt:strnicmp.obj
 0001:00060dd8       __acrt_CompareStringA      0000000140061dd8 f   libucrt:comparestringa.obj
 0001:00060e84       _towlower_l                0000000140061e84 f   libucrt:towlower.obj
 0001:00060f70       towlower                   0000000140061f70 f   libucrt:towlower.obj
 0001:000614c4       _lseek                     00000001400624c4 f   libucrt:lseek.obj
 0001:000614cc       _lseek_nolock              00000001400624cc f   libucrt:lseek.obj
 0001:000614d4       _lseeki64                  00000001400624d4 f   libucrt:lseek.obj
 0001:000614dc       _lseeki64_nolock           00000001400624dc f   libucrt:lseek.obj
 0001:000615a4       _putwch                    00000001400625a4 f   libucrt:putwch.obj
 0001:000615f0       _putwch_nolock             00000001400625f0 f   libucrt:putwch.obj
 0001:00062040       _read                      0000000140063040 f   libucrt:read.obj
 0001:000621a0       _read_nolock               00000001400631a0 f   libucrt:read.obj
 0001:0006270c       _fclose_nolock             000000014006370c f   libucrt:fclose.obj
 0001:000627b0       fclose                     00000001400637b0 f   libucrt:fclose.obj
 0001:0006282c       ?__mbrtoc32_utf8@__crt_mbstring@@YA_KPEA_UPEBD_KPEAU_Mbstatet@@@Z 000000014006382c f   libucrt:mbrtoc32.obj
 0001:00062a78       mbrtoc32                   0000000140063a78 f   libucrt:mbrtoc32.obj
 0001:00062a80       _controlfp_s               0000000140063a80 f   libucrt:contrlfp.obj
 0001:00062afc       fegetenv                   0000000140063afc f   libucrt:fegetenv.obj
 0001:00062b24       fesetenv                   0000000140063b24 f   libucrt:fesetenv.obj
 0001:00062b84       feholdexcept               0000000140063b84 f   libucrt:feholdexcept.obj
 0001:00062be8       ceil                       0000000140063be8 f   libucrt:ceil.obj
 0001:00062ce0       log10                      0000000140063ce0 f   libucrt:log10.obj
 0001:000633f8       ??$__acrt_fenv_shift_bits@W4__acrt_fenv_abstract_control@@@@YA?AW4__acrt_fenv_abstract_control@@W40@0I@Z 00000001400643f8 f i libucrt:_fenvutils.obj
 0001:00063404       ??$__acrt_fenv_shift_bits@W4__acrt_fenv_abstract_status@@@@YA?AW4__acrt_fenv_abstract_status@@W40@0I@Z 0000000140064404 f i libucrt:_fenvutils.obj
 0001:00063410       ??$__acrt_fenv_translate_bit@W4__acrt_fenv_abstract_control@@W4__acrt_fenv_machine_sse_control@@@@YA?AW4__acrt_fenv_abstract_control@@W4__acrt_fenv_machine_sse_control@@0W40@1@Z 0000000140064410 f i libucrt:_fenvutils.obj
 0001:00063420       ??$__acrt_fenv_translate_bit@W4__acrt_fenv_abstract_status@@W4__acrt_fenv_machine_sse_status@@@@YA?AW4__acrt_fenv_abstract_status@@W4__acrt_fenv_machine_sse_status@@0W40@1@Z 0000000140064420 f i libucrt:_fenvutils.obj
 0001:0006342c       ??$__acrt_fenv_translate_bit@W4__acrt_fenv_machine_sse_control@@W4__acrt_fenv_abstract_control@@@@YA?AW4__acrt_fenv_machine_sse_control@@W4__acrt_fenv_abstract_control@@0W40@1@Z 000000014006442c f i libucrt:_fenvutils.obj
 0001:0006343c       ??$__acrt_fenv_translate_bit@W4__acrt_fenv_machine_sse_status@@W4__acrt_fenv_abstract_status@@@@YA?AW4__acrt_fenv_machine_sse_status@@W4__acrt_fenv_abstract_status@@0W40@1@Z 000000014006443c f i libucrt:_fenvutils.obj
 0001:00063448       ??$__acrt_fenv_unshift_bits@W4__acrt_fenv_abstract_control@@@@YA?AW4__acrt_fenv_abstract_control@@W40@0I@Z 0000000140064448 f i libucrt:_fenvutils.obj
 0001:00063454       ??$__acrt_fenv_unshift_bits@W4__acrt_fenv_abstract_status@@@@YA?AW4__acrt_fenv_abstract_status@@W40@0I@Z 0000000140064454 f i libucrt:_fenvutils.obj
 0001:00063730       ??I@YA?AW4__acrt_fenv_abstract_control@@W40@0@Z 0000000140064730 f i libucrt:_fenvutils.obj
 0001:00063738       ??I@YA?AW4__acrt_fenv_abstract_status@@W40@0@Z 0000000140064738 f i libucrt:_fenvutils.obj
 0001:00063740       ??I@YA?AW4__acrt_fenv_machine_sse_control@@W40@0@Z 0000000140064740 f i libucrt:_fenvutils.obj
 0001:00063748       ??I@YA?AW4__acrt_fenv_machine_sse_status@@W40@0@Z 0000000140064748 f i libucrt:_fenvutils.obj
 0001:00063750       ??U@YA?AW4__acrt_fenv_abstract_control@@W40@0@Z 0000000140064750 f i libucrt:_fenvutils.obj
 0001:00063758       ??U@YA?AW4__acrt_fenv_abstract_status@@W40@0@Z 0000000140064758 f i libucrt:_fenvutils.obj
 0001:00063760       ??U@YA?AW4__acrt_fenv_machine_sse_control@@W40@0@Z 0000000140064760 f i libucrt:_fenvutils.obj
 0001:00063768       ??_5@YAAEAW4__acrt_fenv_abstract_control@@AEAW40@W40@@Z 0000000140064768 f i libucrt:_fenvutils.obj
 0001:00063770       ??_5@YAAEAW4__acrt_fenv_abstract_status@@AEAW40@W40@@Z 0000000140064770 f i libucrt:_fenvutils.obj
 0001:00063778       ??_5@YAAEAW4__acrt_fenv_machine_sse_control@@AEAW40@W40@@Z 0000000140064778 f i libucrt:_fenvutils.obj
 0001:00063780       ??_5@YAAEAW4__acrt_fenv_machine_sse_status@@AEAW40@W40@@Z 0000000140064780 f i libucrt:_fenvutils.obj
 0001:00063788       ?__acrt_fenv_shift_abstract_sse_control@@YA?AW4__acrt_fenv_abstract_control@@W41@@Z 0000000140064788 f i libucrt:_fenvutils.obj
 0001:000637a0       ?__acrt_fenv_shift_abstract_sse_status@@YA?AW4__acrt_fenv_abstract_status@@W41@@Z 00000001400647a0 f i libucrt:_fenvutils.obj
 0001:000637ac       ?__acrt_fenv_unshift_abstract_sse_control@@YA?AW4__acrt_fenv_abstract_control@@W41@@Z 00000001400647ac f i libucrt:_fenvutils.obj
 0001:000637c8       ?__acrt_fenv_unshift_abstract_sse_status@@YA?AW4__acrt_fenv_abstract_status@@W41@@Z 00000001400647c8 f i libucrt:_fenvutils.obj
 0001:00063bcc       __acrt_fenv_expand_round_control 0000000140064bcc f   libucrt:_fenvutils.obj
 0001:00063be8       __acrt_fenv_get_common_round_control 0000000140064be8 f   libucrt:_fenvutils.obj
 0001:00063bf4       __acrt_fenv_get_control    0000000140064bf4 f   libucrt:_fenvutils.obj
 0001:00063d24       __acrt_fenv_get_fp_status_word_from_exception_mask 0000000140064d24 f   libucrt:_fenvutils.obj
 0001:00063d34       __acrt_fenv_get_status     0000000140064d34 f   libucrt:_fenvutils.obj
 0001:00063d9c       __acrt_fenv_set_control    0000000140064d9c f   libucrt:_fenvutils.obj
 0001:00063f34       __acrt_fenv_set_status     0000000140064f34 f   libucrt:_fenvutils.obj
 0001:00063fd8       __acrt_stdio_allocate_buffer_nolock 0000000140064fd8 f   libucrt:_getbuf.obj
 0001:00064060       __acrt_LCMapStringW        0000000140065060 f   libucrt:lcmapstringw.obj
 0001:00064274       __dcrt_lowio_ensure_console_output_initialized 0000000140065274 f   libucrt:initcon.obj
 0001:000642dc       __dcrt_terminate_console_output 00000001400652dc f   libucrt:initcon.obj
 0001:00064300       __dcrt_write_console       0000000140065300 f   libucrt:initcon.obj
 0001:000645dc       _close                     00000001400655dc f   libucrt:close.obj
 0001:000646a8       _close_nolock              00000001400656a8 f   libucrt:close.obj
 0001:00064794       ??$?RU__crt_stdio_stream_data@@@__crt_internal_free_policy@@QEBAXQEBU__crt_stdio_stream_data@@@Z 0000000140065794 f i libucrt:stream.obj
 0001:000647a0       ??0?$__crt_unique_heap_ptr@U__crt_stdio_stream_data@@U__crt_internal_free_policy@@@@QEAA@QEAU__crt_stdio_stream_data@@@Z 00000001400657a0 f i libucrt:stream.obj
 0001:000647a8       ??0__crt_stdio_stream@@QEAA@XZ 00000001400657a8 f i libucrt:stream.obj
 0001:000647b4       ??1?$__crt_unique_heap_ptr@U__crt_stdio_stream_data@@U__crt_internal_free_policy@@@@QEAA@XZ 00000001400657b4 f i libucrt:stream.obj
 0001:000647d8       ?__acrt_stdio_allocate_stream@@YA?AV__crt_stdio_stream@@XZ 00000001400657d8 f   libucrt:stream.obj
 0001:00064844       ?__acrt_stdio_free_stream@@YAXV__crt_stdio_stream@@@Z 0000000140065844 f   libucrt:stream.obj
 0001:00064868       ?deallocate@__crt_stdio_stream@@QEAAXXZ 0000000140065868 f i libucrt:stream.obj
 0001:00064874       ?detach@?$__crt_unique_heap_ptr@U__crt_stdio_stream_data@@U__crt_internal_free_policy@@@@QEAAPEAU__crt_stdio_stream_data@@XZ 0000000140065874 f i libucrt:stream.obj
 0001:000649a4       ?lock@__crt_stdio_stream@@QEBAXXZ 00000001400659a4 f i libucrt:stream.obj
 0001:000649b0       ?release@?$__crt_unique_heap_ptr@U__crt_stdio_stream_data@@U__crt_internal_free_policy@@@@QEAAXXZ 00000001400659b0 f i libucrt:stream.obj
 0001:000649d4       ?try_allocate@__crt_stdio_stream@@QEAA_NXZ 00000001400659d4 f i libucrt:stream.obj
 0001:000649fc       ?unlock@__crt_stdio_stream@@QEBAXXZ 00000001400659fc f i libucrt:stream.obj
 0001:00064b74       _clearfp                   0000000140065b74 f   libucrt:ieee.obj
 0001:00064c00       _control87                 0000000140065c00 f   libucrt:ieee.obj
 0001:00064c08       _controlfp                 0000000140065c08 f   libucrt:ieee.obj
 0001:00064c14       _fpreset                   0000000140065c14 f   libucrt:ieee.obj
 0001:00064d10       _set_controlfp             0000000140065d10 f   libucrt:ieee.obj
 0001:00064d54       _statusfp                  0000000140065d54 f   libucrt:ieee.obj
 0001:000652a8       _handle_error              00000001400662a8 f   libucrt:libm_error.obj
 0001:00065418       _handle_errorf             0000000140066418 f   libucrt:libm_error.obj
 0001:00065598       _handle_nan                0000000140066598 f   libucrt:libm_error.obj
 0001:000655b8       _handle_nanf               00000001400665b8 f   libucrt:libm_error.obj
 0001:000655d0       __acrt_initialize_fma3     00000001400665d0 f   libucrt:fma3_available.obj
 0001:0006565c       _get_FMA3_enable           000000014006665c f   libucrt:fma3_available.obj
 0001:00065664       _set_FMA3_enable           0000000140066664 f   libucrt:fma3_available.obj
 0001:00065680       _log10_special             0000000140066680 f   libucrt:log_special.obj
 0001:000656a8       _log10f_special            00000001400666a8 f   libucrt:log_special.obj
 0001:000656d0       _log_special               00000001400666d0 f   libucrt:log_special.obj
 0001:000657b4       _logf_special              00000001400667b4 f   libucrt:log_special.obj
 0001:000658b0       _get_fpsr                  00000001400668b0 f   libucrt:fpsr.obj
 0001:000658c0       _set_fpsr                  00000001400668c0 f   libucrt:fpsr.obj
 0001:000658ca       _fclrf                     00000001400668ca f   libucrt:fpsr.obj
 0001:000658de       _frnd                      00000001400668de f   libucrt:fpsr.obj
 0001:00065914       _errcode                   0000000140066914 f   libucrt:fpexcept.obj
 0001:00065968       _except1                   0000000140066968 f   libucrt:fpexcept.obj
 0001:00065a98       _except2                   0000000140066a98 f   libucrt:fpexcept.obj
 0001:00065c20       _handle_exc                0000000140066c20 f   libucrt:fpexcept.obj
 0001:00065f20       _handle_qnan2              0000000140066f20 f   libucrt:fpexcept.obj
 0001:00065f28       _raise_exc                 0000000140066f28 f   libucrt:fpexcept.obj
 0001:00065f58       _raise_exc_ex              0000000140066f58 f   libucrt:fpexcept.obj
 0001:00066328       _raise_excf                0000000140067328 f   libucrt:fpexcept.obj
 0001:0006635c       _set_errno_from_matherr    000000014006735c f   libucrt:fpexcept.obj
 0001:00066398       _umatherr                  0000000140067398 f   libucrt:fpexcept.obj
 0001:000664a4       _clrfp                     00000001400674a4 f   libucrt:fpctrl.obj
 0001:000664c8       _ctrlfp                    00000001400674c8 f   libucrt:fpctrl.obj
 0001:00066564       _set_statfp                0000000140067564 f   libucrt:fpctrl.obj
 0001:0006658c       _statfp                    000000014006758c f   libucrt:fpctrl.obj
 0001:000665a4       _add_exp                   00000001400675a4 f   libucrt:util.obj
 0001:00066608       _decomp                    0000000140067608 f   libucrt:util.obj
 0001:00066784       _get_exp                   0000000140067784 f   libucrt:util.obj
 0001:000667a8       _set_bexp                  00000001400677a8 f   libucrt:util.obj
 0001:000667e4       _set_exp                   00000001400677e4 f   libucrt:util.obj
 0001:0006682c       _sptype                    000000014006782c f   libucrt:util.obj
 0001:000668c0       _FindPESection             00000001400678c0 f   libcmt:pesect.obj
 0001:00066920       _IsNonwritableInCurrentImage 0000000140067920 f   libcmt:pesect.obj
 0001:00066980       _ValidateImageBase         0000000140067980 f   libcmt:pesect.obj
 0001:000669b8       ??1type_info@@UEAA@XZ      00000001400679b8 f   libcmt:std_type_info_static.obj
 0001:000669c8       ??_Etype_info@@UEAAPEAXI@Z 00000001400679c8 f i libcmt:std_type_info_static.obj
 0001:000669c8       ??_Gtype_info@@UEAAPEAXI@Z 00000001400679c8 f i libcmt:std_type_info_static.obj
 0001:00066a00       __GSHandlerCheck           0000000140067a00 f   libcmt:gshandler.obj
 0001:00066a24       __GSHandlerCheckCommon     0000000140067a24 f   libcmt:gshandler.obj
 0001:00066ab0       __security_check_cookie    0000000140067ab0 f   libcmt:amdsecgs.obj
 0001:00066adc       ??3@YAXPEAX_K@Z            0000000140067adc f   libcmt:delete_scalar_size.obj
 0001:00066ae4       __GSHandlerCheck_SEH       0000000140067ae4 f   libcmt:gshandlerseh.obj
 0001:00066b8c       __raise_securityfailure    0000000140067b8c f   libcmt:gs_report.obj
 0001:00066bd0       __report_gsfailure         0000000140067bd0 f   libcmt:gs_report.obj
 0001:00066cd8       __report_rangecheckfailure 0000000140067cd8 f   libcmt:gs_report.obj
 0001:00066cf0       __report_securityfailure   0000000140067cf0 f   libcmt:gs_report.obj
 0001:00066db4       __report_securityfailureEx 0000000140067db4 f   libcmt:gs_report.obj
 0001:00067030       __chkstk                   0000000140068030 f   libcmt:chkstk.obj
 0001:00067030       _alloca_probe              0000000140068030 f   libcmt:chkstk.obj
 0001:00067098       ??3@YAXPEAX@Z              0000000140068098 f   libcmt:delete_scalar.obj
 0001:0006709d       RtlUnwindEx                000000014006809d f   kernel32:KERNEL32.dll
 0001:000670a3       InterlockedPushEntrySList  00000001400680a3 f   kernel32:KERNEL32.dll
 0001:000670a9       InterlockedFlushSList      00000001400680a9 f   kernel32:KERNEL32.dll
 0001:000670af       GetLastError               00000001400680af f   kernel32:KERNEL32.dll
 0001:000670b5       SetLastError               00000001400680b5 f   kernel32:KERNEL32.dll
 0001:000670bb       EnterCriticalSection       00000001400680bb f   kernel32:KERNEL32.dll
 0001:000670c1       LeaveCriticalSection       00000001400680c1 f   kernel32:KERNEL32.dll
 0001:000670c7       DeleteCriticalSection      00000001400680c7 f   kernel32:KERNEL32.dll
 0001:000670cd       InitializeCriticalSectionAndSpinCount 00000001400680cd f   kernel32:KERNEL32.dll
 0001:000670d3       TlsAlloc                   00000001400680d3 f   kernel32:KERNEL32.dll
 0001:000670d9       TlsGetValue                00000001400680d9 f   kernel32:KERNEL32.dll
 0001:000670df       TlsSetValue                00000001400680df f   kernel32:KERNEL32.dll
 0001:000670e5       TlsFree                    00000001400680e5 f   kernel32:KERNEL32.dll
 0001:000670eb       FreeLibrary                00000001400680eb f   kernel32:KERNEL32.dll
 0001:000670f1       GetProcAddress             00000001400680f1 f   kernel32:KERNEL32.dll
 0001:000670f7       LoadLibraryExW             00000001400680f7 f   kernel32:KERNEL32.dll
 0001:000670fd       EncodePointer              00000001400680fd f   kernel32:KERNEL32.dll
 0001:00067103       RaiseException             0000000140068103 f   kernel32:KERNEL32.dll
 0001:00067109       RtlPcToFileHeader          0000000140068109 f   kernel32:KERNEL32.dll
 0001:0006710f       GetStdHandle               000000014006810f f   kernel32:KERNEL32.dll
 0001:00067115       WriteFile                  0000000140068115 f   kernel32:KERNEL32.dll
 0001:0006711b       GetModuleFileNameW         000000014006811b f   kernel32:KERNEL32.dll
 0001:00067121       GetCurrentProcess          0000000140068121 f   kernel32:KERNEL32.dll
 0001:00067127       ExitProcess                0000000140068127 f   kernel32:KERNEL32.dll
 0001:0006712d       TerminateProcess           000000014006812d f   kernel32:KERNEL32.dll
 0001:00067133       GetModuleHandleExW         0000000140068133 f   kernel32:KERNEL32.dll
 0001:00067139       GetCommandLineA            0000000140068139 f   kernel32:KERNEL32.dll
 0001:0006713f       GetCommandLineW            000000014006813f f   kernel32:KERNEL32.dll
 0001:00067145       GetCurrentThread           0000000140068145 f   kernel32:KERNEL32.dll
 0001:0006714b       OutputDebugStringW         000000014006814b f   kernel32:KERNEL32.dll
 0001:00067151       HeapAlloc                  0000000140068151 f   kernel32:KERNEL32.dll
 0001:00067157       HeapFree                   0000000140068157 f   kernel32:KERNEL32.dll
 0001:0006715d       FindClose                  000000014006815d f   kernel32:KERNEL32.dll
 0001:00067163       FindFirstFileExW           0000000140068163 f   kernel32:KERNEL32.dll
 0001:00067169       FindNextFileW              0000000140068169 f   kernel32:KERNEL32.dll
 0001:0006716f       IsValidCodePage            000000014006816f f   kernel32:KERNEL32.dll
 0001:00067175       GetACP                     0000000140068175 f   kernel32:KERNEL32.dll
 0001:0006717b       GetOEMCP                   000000014006817b f   kernel32:KERNEL32.dll
 0001:00067181       GetCPInfo                  0000000140068181 f   kernel32:KERNEL32.dll
 0001:00067187       MultiByteToWideChar        0000000140068187 f   kernel32:KERNEL32.dll
 0001:0006718d       WideCharToMultiByte        000000014006818d f   kernel32:KERNEL32.dll
 0001:00067193       GetEnvironmentStringsW     0000000140068193 f   kernel32:KERNEL32.dll
 0001:00067199       FreeEnvironmentStringsW    0000000140068199 f   kernel32:KERNEL32.dll
 0001:0006719f       SetEnvironmentVariableW    000000014006819f f   kernel32:KERNEL32.dll
 0001:000671a5       SetStdHandle               00000001400681a5 f   kernel32:KERNEL32.dll
 0001:000671ab       GetFileType                00000001400681ab f   kernel32:KERNEL32.dll
 0001:000671b1       GetStringTypeW             00000001400681b1 f   kernel32:KERNEL32.dll
 0001:000671b7       GetLocaleInfoW             00000001400681b7 f   kernel32:KERNEL32.dll
 0001:000671bd       IsValidLocale              00000001400681bd f   kernel32:KERNEL32.dll
 0001:000671c3       GetUserDefaultLCID         00000001400681c3 f   kernel32:KERNEL32.dll
 0001:000671c9       EnumSystemLocalesW         00000001400681c9 f   kernel32:KERNEL32.dll
 0001:000671cf       GetDateFormatW             00000001400681cf f   kernel32:KERNEL32.dll
 0001:000671d5       GetTimeFormatW             00000001400681d5 f   kernel32:KERNEL32.dll
 0001:000671db       CompareStringW             00000001400681db f   kernel32:KERNEL32.dll
 0001:000671e1       LCMapStringW               00000001400681e1 f   kernel32:KERNEL32.dll
 0001:000671e7       GetProcessHeap             00000001400681e7 f   kernel32:KERNEL32.dll
 0001:000671ed       SetConsoleCtrlHandler      00000001400681ed f   kernel32:KERNEL32.dll
 0001:000671f3       HeapSize                   00000001400681f3 f   kernel32:KERNEL32.dll
 0001:000671f9       HeapReAlloc                00000001400681f9 f   kernel32:KERNEL32.dll
 0001:000671ff       FlushFileBuffers           00000001400681ff f   kernel32:KERNEL32.dll
 0001:00067205       GetConsoleOutputCP         0000000140068205 f   kernel32:KERNEL32.dll
 0001:0006720b       GetConsoleMode             000000014006820b f   kernel32:KERNEL32.dll
 0001:00067211       GetFileSizeEx              0000000140068211 f   kernel32:KERNEL32.dll
 0001:00067217       SetFilePointerEx           0000000140068217 f   kernel32:KERNEL32.dll
 0001:0006721d       ReadFile                   000000014006821d f   kernel32:KERNEL32.dll
 0001:00067223       ReadConsoleW               0000000140068223 f   kernel32:KERNEL32.dll
 0001:00067229       CreateFileW                0000000140068229 f   kernel32:KERNEL32.dll
 0001:0006722f       CloseHandle                000000014006822f f   kernel32:KERNEL32.dll
 0001:00067235       WriteConsoleW              0000000140068235 f   kernel32:KERNEL32.dll
 0001:00067250       memcmp                     0000000140068250 f   libvcruntime:memcmp.obj
 0001:0006734c       strchr                     000000014006834c f   libvcruntime:strchr.obj
 0001:000673e8       wcschr                     00000001400683e8 f   libvcruntime:wcschr.obj
 0001:00067480       strrchr                    0000000140068480 f   libvcruntime:strrchr.obj
 0001:0006760c       _local_unwind              000000014006860c f   libvcruntime:jmpuwind.obj
 0001:0006763f       RtlUnwind                  000000014006863f f   kernel32:KERNEL32.dll
 0001:000691f0       _guard_dispatch_icall_nop  000000014006a1f0 f   libcmt:guard_dispatch.obj
 0001:00069210       _guard_xfg_dispatch_icall_nop 000000014006a210 f   libcmt:guard_xfg_dispatch.obj
 0002:00000000       __xc_a                     000000014006d000     libcmt:initializers.obj
 0002:00000220       __xc_z                     000000014006d220     libcmt:initializers.obj
 0002:00000330       __xi_a                     000000014006d330     libcmt:initializers.obj
 0002:00000660       __acrt_multibyte_initializer 000000014006d660     libucrt:multibyte_initializer.obj
 0002:00000670       __acrt_fmode_initializer   000000014006d670     libucrt:fmode_initializer.obj
 0002:00000680       __acrt_stdio_initializer   000000014006d680     libucrt:stdio_initializer.obj
 0002:00000690       __acrt_tran_fma3_initializer 000000014006d690     libucrt:fma3_initializer.obj
 0002:000007a0       __xi_z                     000000014006d7a0     libcmt:initializers.obj
 0002:000008b0       __xp_a                     000000014006d8b0     libcmt:initializers.obj
 0002:000009c0       __acrt_locale_terminator   000000014006d9c0     libucrt:locale_initializer.obj
 0002:000009d0       __dcrt_console_output_terminator 000000014006d9d0     libucrt:console_output_initializer.obj
 0002:00000ae0       __acrt_stdio_terminator    000000014006dae0     libucrt:stdio_initializer.obj
 0002:00000bf0       __xp_z                     000000014006dbf0     libcmt:initializers.obj
 0002:00000d00       __xt_a                     000000014006dd00     libcmt:initializers.obj
 0002:00000e10       __xt_z                     000000014006de10     libcmt:initializers.obj
 0002:00000f20       __real@3f800000            000000014006df20     main-423f63.o
 0002:00000f24       __real@3f3504f3            000000014006df24     main-423f63.o
 0002:00000f28       ??_C@_0BL@NGJENMB@E?3?2Project?2Vipoc?2image?4bmp?$AA@ 000000014006df28     main-423f63.o
 0002:00000f48       ??_C@_0L@OBPOJICL@vipoc_game?$AA@ 000000014006df48     main-423f63.o
 0002:00000f60       __xmm@ffffffffffffffffffffffffffffffff 000000014006df60     libcmt:utility.obj
 0002:00000f78       _pDestructExceptionObject  000000014006df78     libvcruntime:ehhelpers.obj
 0002:00001810       ??_C@_08EHJDFFNH@__based?$CI@ 000000014006e810     libvcruntime:undname.obj
 0002:00001820       ??_C@_07KOLFKCDI@__cdecl@  000000014006e820     libvcruntime:undname.obj
 0002:00001830       ??_C@_08GHMPAG@__pascal@   000000014006e830     libvcruntime:undname.obj
 0002:00001840       ??_C@_09IFJBGAPI@__stdcall@ 000000014006e840     libvcruntime:undname.obj
 0002:00001850       ??_C@_0L@NPHFGOKO@__thiscall@ 000000014006e850     libvcruntime:undname.obj
 0002:00001860       ??_C@_0L@JMKHOMEK@__fastcall@ 000000014006e860     libvcruntime:undname.obj
 0002:00001870       ??_C@_0N@BCKKPABJ@__vectorcall@ 000000014006e870     libvcruntime:undname.obj
 0002:00001880       ??_C@_09HIJEGCPM@__clrcall@ 000000014006e880     libvcruntime:undname.obj
 0002:0000188c       ??_C@_06GHPCKEAG@__eabi@   000000014006e88c     libvcruntime:undname.obj
 0002:00001898       ??_C@_09IOPIDJLG@__swift_1@ 000000014006e898     libvcruntime:undname.obj
 0002:000018a8       ??_C@_09KFNFGKHF@__swift_2@ 000000014006e8a8     libvcruntime:undname.obj
 0002:000018b8       ??_C@_09LMMOFLDE@__swift_3@ 000000014006e8b8     libvcruntime:undname.obj
 0002:000018c8       ??_C@_07JOMMBBKO@__ptr64@  000000014006e8c8     libvcruntime:undname.obj
 0002:000018d8       ??_C@_0L@PILCLIHE@__restrict@ 000000014006e8d8     libvcruntime:undname.obj
 0002:000018e8       ??_C@_0M@GFIIJFMG@__unaligned@ 000000014006e8e8     libvcruntime:undname.obj
 0002:000018f8       ??_C@_09DHDLOLLB@restrict?$CI@ 000000014006e8f8     libvcruntime:undname.obj
 0002:00001904       ??_C@_00CNPNBAHC@@         000000014006e904     libvcruntime:undname.obj
 0002:00001908       ??_C@_04NIHEBCM@?5new@     000000014006e908     libvcruntime:undname.obj
 0002:00001910       ??_C@_07FPCDHGMM@?5delete@ 000000014006e910     libvcruntime:undname.obj
 0002:0000191c       ??_C@_01NEMOKFLO@?$DN@     000000014006e91c     libvcruntime:undname.obj
 0002:00001920       ??_C@_02GPIOPFAK@?$DO?$DO@ 000000014006e920     libvcruntime:undname.obj
 0002:00001924       ??_C@_02FODMEDOG@?$DM?$DM@ 000000014006e924     libvcruntime:undname.obj
 0002:00001928       ??_C@_01DCLJPIOD@?$CB@     000000014006e928     libvcruntime:undname.obj
 0002:0000192c       ??_C@_02EGOFBIJA@?$DN?$DN@ 000000014006e92c     libvcruntime:undname.obj
 0002:00001930       ??_C@_02FDNJECIE@?$CB?$DN@ 000000014006e930     libvcruntime:undname.obj
 0002:00001934       ??_C@_02GPECMEKF@?$FL?$FN@ 000000014006e934     libvcruntime:undname.obj
 0002:00001938       ??_C@_08LHJFAFGD@operator@ 000000014006e938     libvcruntime:undname.obj
 0002:00001944       ??_C@_02HBOOOICD@?9?$DO@   000000014006e944     libvcruntime:undname.obj
 0002:00001948       ??_C@_01NBENCBCI@?$CK@     000000014006e948     libvcruntime:undname.obj
 0002:0000194c       ??_C@_02ECNGHCIF@?$CL?$CL@ 000000014006e94c     libvcruntime:undname.obj
 0002:00001950       ??_C@_02BAABKJLB@?9?9@     000000014006e950     libvcruntime:undname.obj
 0002:00001954       ??_C@_01JOAMLHOP@?9@       000000014006e954     libvcruntime:undname.obj
 0002:00001958       ??_C@_01MIFGBAGJ@?$CL@     000000014006e958     libvcruntime:undname.obj
 0002:0000195c       ??_C@_01HNPIGOCE@?$CG@     000000014006e95c     libvcruntime:undname.obj
 0002:00001960       ??_C@_03MNHNFDLC@?9?$DO?$CK@ 000000014006e960     libvcruntime:undname.obj
 0002:00001964       ??_C@_01KMDKNFGN@?1@       000000014006e964     libvcruntime:undname.obj
 0002:00001968       ??_C@_01FGNFDNOH@?$CF@     000000014006e968     libvcruntime:undname.obj
 0002:0000196c       ??_C@_01MNNFJEPP@?$DM@     000000014006e96c     libvcruntime:undname.obj
 0002:00001970       ??_C@_02EHCHHCKH@?$DM?$DN@ 000000014006e970     libvcruntime:undname.obj
 0002:00001974       ??_C@_01PPODPGHN@?$DO@     000000014006e974     libvcruntime:undname.obj
 0002:00001978       ??_C@_02EEKDKGMJ@?$DO?$DN@ 000000014006e978     libvcruntime:undname.obj
 0002:0000197c       ??_C@_01IHBHIGKO@?0@       000000014006e97c     libvcruntime:undname.obj
 0002:00001980       ??_C@_02HCKGKOFO@?$CI?$CJ@ 000000014006e980     libvcruntime:undname.obj
 0002:00001984       ??_C@_01PJKLJHI@?$HO@      000000014006e984     libvcruntime:undname.obj
 0002:00001988       ??_C@_01JKBOJNNK@?$FO@     000000014006e988     libvcruntime:undname.obj
 0002:0000198c       ??_C@_01DNKMNLPK@?$HM@     000000014006e98c     libvcruntime:undname.obj
 0002:00001990       ??_C@_02PPKAJPJL@?$CG?$CG@ 000000014006e990     libvcruntime:undname.obj
 0002:00001994       ??_C@_02NONPIBCD@?$HM?$HM@ 000000014006e994     libvcruntime:undname.obj
 0002:00001998       ??_C@_02FPIMKNGF@?$CK?$DN@ 000000014006e998     libvcruntime:undname.obj
 0002:0000199c       ??_C@_02FOEOMHFC@?$CL?$DN@ 000000014006e99c     libvcruntime:undname.obj
 0002:000019a0       ??_C@_02FKMDLLOA@?9?$DN@   000000014006e9a0     libvcruntime:undname.obj
 0002:000019a4       ??_C@_02FJEHGPIO@?1?$DN@   000000014006e9a4     libvcruntime:undname.obj
 0002:000019a8       ??_C@_02FENAOKFI@?$CF?$DN@ 000000014006e9a8     libvcruntime:undname.obj
 0002:000019ac       ??_C@_03IKFCCPFF@?$DO?$DO?$DN@ 000000014006e9ac     libvcruntime:undname.obj
 0002:000019b0       ??_C@_03CDNPDDLA@?$DM?$DM?$DN@ 000000014006e9b0     libvcruntime:undname.obj
 0002:000019b4       ??_C@_02FGJGFEAB@?$CG?$DN@ 000000014006e9b4     libvcruntime:undname.obj
 0002:000019b8       ??_C@_02DHLNPPGH@?$HM?$DN@ 000000014006e9b8     libvcruntime:undname.obj
 0002:000019bc       ??_C@_02MHEGNOJ@?$FO?$DN@  000000014006e9bc     libvcruntime:undname.obj
 0002:000019c0       ??_C@_09IFPLHPGF@?$GAvftable?8@ 000000014006e9c0     libvcruntime:undname.obj
 0002:000019d0       ??_C@_09BLBHBJP@?$GAvbtable?8@ 000000014006e9d0     libvcruntime:undname.obj
 0002:000019e0       ??_C@_07FEEIOKP@?$GAvcall?8@ 000000014006e9e0     libvcruntime:undname.obj
 0002:000019f0       ??_C@_08LLFFHHDJ@?$GAtypeof?8@ 000000014006e9f0     libvcruntime:undname.obj
 0002:00001a00       ??_C@_0BF@KDPPACIK@?$GAlocal?5static?5guard?8@ 000000014006ea00     libvcruntime:undname.obj
 0002:00001a20       ??_C@_08OBABFOLI@?$GAstring?8@ 000000014006ea20     libvcruntime:undname.obj
 0002:00001a30       ??_C@_0BD@JDLKDPAB@?$GAvbase?5destructor?8@ 000000014006ea30     libvcruntime:undname.obj
 0002:00001a48       ??_C@_0BN@DEGPLNFK@?$GAvector?5deleting?5destructor?8@ 000000014006ea48     libvcruntime:undname.obj
 0002:00001a70       ??_C@_0BO@OBMKPJIG@?$GAdefault?5constructor?5closure?8@ 000000014006ea70     libvcruntime:undname.obj
 0002:00001a98       ??_C@_0BN@IMDCHIKM@?$GAscalar?5deleting?5destructor?8@ 000000014006ea98     libvcruntime:undname.obj
 0002:00001ac0       ??_C@_0BO@PFGOCPJJ@?$GAvector?5constructor?5iterator?8@ 000000014006eac0     libvcruntime:undname.obj
 0002:00001ae8       ??_C@_0BN@LFPFMEDL@?$GAvector?5destructor?5iterator?8@ 000000014006eae8     libvcruntime:undname.obj
 0002:00001b10       ??_C@_0CE@IKBNEHA@?$GAvector?5vbase?5constructor?5itera@ 000000014006eb10     libvcruntime:undname.obj
 0002:00001b40       ??_C@_0BL@NILFHHPC@?$GAvirtual?5displacement?5map?8@ 000000014006eb40     libvcruntime:undname.obj
 0002:00001b60       ??_C@_0CB@JONCMFFK@?$GAeh?5vector?5constructor?5iterator@ 000000014006eb60     libvcruntime:undname.obj
 0002:00001b88       ??_C@_0CA@GCEOPDGL@?$GAeh?5vector?5destructor?5iterator?8@ 000000014006eb88     libvcruntime:undname.obj
 0002:00001bb0       ??_C@_0CH@OOJPLCPH@?$GAeh?5vector?5vbase?5constructor?5it@ 000000014006ebb0     libvcruntime:undname.obj
 0002:00001be0       ??_C@_0BL@LLKPOHJI@?$GAcopy?5constructor?5closure?8@ 000000014006ebe0     libvcruntime:undname.obj
 0002:00001c00       ??_C@_0BA@KBCDOMBN@?$GAudt?5returning?8@ 000000014006ec00     libvcruntime:undname.obj
 0002:00001c14       ??_C@_03KLGMFNMG@?$GAEH@   000000014006ec14     libvcruntime:undname.obj
 0002:00001c18       ??_C@_05KHLCHHI@?$GARTTI@  000000014006ec18     libvcruntime:undname.obj
 0002:00001c20       ??_C@_0BA@KKLDJDLB@?$GAlocal?5vftable?8@ 000000014006ec20     libvcruntime:undname.obj
 0002:00001c38       ??_C@_0CE@IIHCMGGL@?$GAlocal?5vftable?5constructor?5clos@ 000000014006ec38     libvcruntime:undname.obj
 0002:00001c64       ??_C@_06FHBGPFGH@?5new?$FL?$FN@ 000000014006ec64     libvcruntime:undname.obj
 0002:00001c70       ??_C@_09LBNFPBCA@?5delete?$FL?$FN@ 000000014006ec70     libvcruntime:undname.obj
 0002:00001c80       ??_C@_0P@HJKNJFNN@?$GAomni?5callsig?8@ 000000014006ec80     libvcruntime:undname.obj
 0002:00001c98       ??_C@_0BL@CNOONJFP@?$GAplacement?5delete?5closure?8@ 000000014006ec98     libvcruntime:undname.obj
 0002:00001cb8       ??_C@_0BN@CKNJLHMB@?$GAplacement?5delete?$FL?$FN?5closure?8@ 000000014006ecb8     libvcruntime:undname.obj
 0002:00001ce0       ??_C@_0CG@CFDHKGGD@?$GAmanaged?5vector?5constructor?5ite@ 000000014006ece0     libvcruntime:undname.obj
 0002:00001d10       ??_C@_0CF@IMGKMJNO@?$GAmanaged?5vector?5destructor?5iter@ 000000014006ed10     libvcruntime:undname.obj
 0002:00001d40       ??_C@_0CG@HLDDJMAG@?$GAeh?5vector?5copy?5constructor?5ite@ 000000014006ed40     libvcruntime:undname.obj
 0002:00001d70       ??_C@_0CM@FCBBDIGB@?$GAeh?5vector?5vbase?5copy?5construct@ 000000014006ed70     libvcruntime:undname.obj
 0002:00001da8       ??_C@_0BL@CLIPGLGB@?$GAdynamic?5initializer?5for?5?8@ 000000014006eda8     libvcruntime:undname.obj
 0002:00001dc8       ??_C@_0CB@PDBIFEP@?$GAdynamic?5atexit?5destructor?5for?5@ 000000014006edc8     libvcruntime:undname.obj
 0002:00001df0       ??_C@_0CD@CGAJBKEJ@?$GAvector?5copy?5constructor?5iterat@ 000000014006edf0     libvcruntime:undname.obj
 0002:00001e20       ??_C@_0CJ@GJELGAMM@?$GAvector?5vbase?5copy?5constructor?5@ 000000014006ee20     libvcruntime:undname.obj
 0002:00001e58       ??_C@_0CL@FGIJHLCE@?$GAmanaged?5vector?5copy?5constructo@ 000000014006ee58     libvcruntime:undname.obj
 0002:00001e90       ??_C@_0BM@PMGGMLDN@?$GAlocal?5static?5thread?5guard?8@ 000000014006ee90     libvcruntime:undname.obj
 0002:00001eb8       ??_C@_0N@BDNMDMOL@operator?5?$CC?$CC?5@ 000000014006eeb8     libvcruntime:undname.obj
 0002:00001ec8       ??_C@_0BC@GGEBGALA@operator?5co_await@ 000000014006eec8     libvcruntime:undname.obj
 0002:00001ee0       ??_C@_0M@GAAIMMOH@operator?$DM?$DN?$DO@ 000000014006eee0     libvcruntime:undname.obj
 0002:00001ef0       ??_C@_0BC@DAFEJGAK@?5Type?5Descriptor?8@ 000000014006eef0     libvcruntime:undname.obj
 0002:00001f08       ??_C@_0BM@LDKODKLH@?5Base?5Class?5Descriptor?5at?5?$CI@ 000000014006ef08     libvcruntime:undname.obj
 0002:00001f30       ??_C@_0BD@LGICGFMM@?5Base?5Class?5Array?8@ 000000014006ef30     libvcruntime:undname.obj
 0002:00001f48       ??_C@_0BN@MECKDCOJ@?5Class?5Hierarchy?5Descriptor?8@ 000000014006ef48     libvcruntime:undname.obj
 0002:00001f70       ??_C@_0BK@CFCOFLF@?5Complete?5Object?5Locator?8@ 000000014006ef70     libvcruntime:undname.obj
 0002:00001f90       ??_C@_0BG@JNJLAMPM@?$GAanonymous?5namespace?8@ 000000014006ef90     libvcruntime:undname.obj
 0002:00001fac       ??_C@_04HEJADOOB@CV?3?5@   000000014006efac     libvcruntime:undname.obj
 0002:00001fb4       ??_C@_02MOLJINC@?3?3@      000000014006efb4     libvcruntime:undname.obj
 0002:00001fb8       ??_C@_0BE@JAEOCHPE@template?9parameter?9@ 000000014006efb8     libvcruntime:undname.obj
 0002:00001fd0       ??_C@_0BF@LNLGBBNL@?$GAtemplate?9parameter?9@ 000000014006efd0     libvcruntime:undname.obj
 0002:00001ff0       ??_C@_0O@KHGCOMHP@generic?9type?9@ 000000014006eff0     libvcruntime:undname.obj
 0002:00002000       ??_C@_0P@ODDENDLM@?$GAgeneric?9type?9@ 000000014006f000     libvcruntime:undname.obj
 0002:00002014       ??_C@_02OHHJMEON@?8?8@     000000014006f014     libvcruntime:undname.obj
 0002:00002018       ??_C@_0BN@IBLMMFAP@?$GAnon?9type?9template?9parameter@ 000000014006f018     libvcruntime:undname.obj
 0002:0000203c       ??_C@_03DLDNIBIK@?$CFlf@   000000014006f03c     libvcruntime:undname.obj
 0002:00002040       ??_C@_04OFALKAJ@?$DP?$DP_C@ 000000014006f040     libvcruntime:undname.obj
 0002:00002048       ??_C@_03KHICJKCI@?4?4?4@   000000014006f048     libvcruntime:undname.obj
 0002:0000204c       ??_C@_04HIBGFPH@NULL@      000000014006f04c     libvcruntime:undname.obj
 0002:00002054       ??_C@_02DPKJAMEF@?$CFd@    000000014006f054     libvcruntime:undname.obj
 0002:00002058       ??_C@_0BK@IHCCFNEL@?$GAtemplate?9type?9parameter?9@ 000000014006f058     libvcruntime:undname.obj
 0002:00002078       ??_C@_0BK@OFCNNNKO@?$GAgeneric?9class?9parameter?9@ 000000014006f078     libvcruntime:undname.obj
 0002:00002098       ??_C@_0BL@NGJBLFIL@?$GAgeneric?9method?9parameter?9@ 000000014006f098     libvcruntime:undname.obj
 0002:000020b8       ??_C@_07OHNGEDJK@nullptr@  000000014006f0b8     libvcruntime:undname.obj
 0002:000020c4       ??_C@_06COJIGPIB@lambda@   000000014006f0c4     libvcruntime:undname.obj
 0002:000020cc       ??_C@_04GKJNKENE@void@     000000014006f0cc     libvcruntime:undname.obj
 0002:000020d8       ??_C@_0BE@EODMJLIF@?$GAtemplate?9parameter@ 000000014006f0d8     libvcruntime:undname.obj
 0002:000020f0       ??_C@_03OPGICMGF@?$HN?8?5@ 000000014006f0f0     libvcruntime:undname.obj
 0002:000020f4       ??_C@_02IGFCGPIL@?$HN?8@   000000014006f0f4     libvcruntime:undname.obj
 0002:000020f8       ??_C@_0N@CBHHHENL@?$GAvtordispex?$HL@ 000000014006f0f8     libvcruntime:undname.obj
 0002:00002108       ??_C@_0L@GHPFDFH@?$GAvtordisp?$HL@ 000000014006f108     libvcruntime:undname.obj
 0002:00002118       ??_C@_0L@HNGCOGAE@?$GAadjustor?$HL@ 000000014006f118     libvcruntime:undname.obj
 0002:00002128       ??_C@_0CB@KJDOOODE@?$GAlocal?5static?5destructor?5helper@ 000000014006f128     libvcruntime:undname.obj
 0002:00002150       ??_C@_0DB@ILEFOCIJ@?$GAtemplate?5static?5data?5member?5co@ 000000014006f150     libvcruntime:undname.obj
 0002:00002190       ??_C@_0DA@HGFJFBBE@?$GAtemplate?5static?5data?5member?5de@ 000000014006f190     libvcruntime:undname.obj
 0002:000021d0       ??_C@_07PGOEDBHP@static?5@ 000000014006f1d0     libvcruntime:undname.obj
 0002:000021e0       ??_C@_08NIEOINHE@virtual?5@ 000000014006f1e0     libvcruntime:undname.obj
 0002:000021f0       ??_C@_09LAPHOOG@private?3?5@ 000000014006f1f0     libvcruntime:undname.obj
 0002:00002200       ??_C@_0M@GAIFPFIP@protected?3?5@ 000000014006f200     libvcruntime:undname.obj
 0002:00002210       ??_C@_08GPDDCMKI@public?3?5@ 000000014006f210     libvcruntime:undname.obj
 0002:00002220       ??_C@_08KJLFOPNE@?$FLthunk?$FN?3@ 000000014006f220     libvcruntime:undname.obj
 0002:00002230       ??_C@_0M@DHNBOJMP@extern?5?$CCC?$CC?5@ 000000014006f230     libvcruntime:undname.obj
 0002:00002240       ??_C@_02KCKGHPCA@?$CJ?5@   000000014006f240     libvcruntime:undname.obj
 0002:00002244       ??_C@_05CIHEBHNO@char?5@   000000014006f244     libvcruntime:undname.obj
 0002:0000224c       ??_C@_06EHJMALKF@short?5@  000000014006f24c     libvcruntime:undname.obj
 0002:00002254       ??_C@_04LAHKHJMA@int?5@    000000014006f254     libvcruntime:undname.obj
 0002:0000225c       ??_C@_05CJIMAING@long?5@   000000014006f25c     libvcruntime:undname.obj
 0002:00002268       ??_C@_09EBBEKKIH@unsigned?5@ 000000014006f268     libvcruntime:undname.obj
 0002:00002274       ??_C@_05BEFAKPML@void?5@   000000014006f274     libvcruntime:undname.obj
 0002:00002280       ??_C@_09GAIEOBLP@volatile?5@ 000000014006f280     libvcruntime:undname.obj
 0002:00002290       ??_C@_08PABEKFH@volatile@  000000014006f290     libvcruntime:undname.obj
 0002:000022a0       ??_C@_0BA@LKIJLKPP@std?3?3nullptr_t?5@ 000000014006f2a0     libvcruntime:undname.obj
 0002:000022b8       ??_C@_0P@GCOCNKDM@std?3?3nullptr_t@ 000000014006f2b8     libvcruntime:undname.obj
 0002:000022d0       ??_C@_0L@EGPHHEKN@?$DMellipsis?$DO@ 000000014006f2d0     libvcruntime:undname.obj
 0002:000022e0       ??_C@_04EENFHACM@?0?4?4?4@ 000000014006f2e0     libvcruntime:undname.obj
 0002:000022e8       ??_C@_0M@ELJOJFFH@?0?$DMellipsis?$DO@ 000000014006f2e8     libvcruntime:undname.obj
 0002:000022f8       ??_C@_09DNHFEOJI@?5noexcept@ 000000014006f2f8     libvcruntime:undname.obj
 0002:00002304       ??_C@_03PBJBJNON@cpu@      000000014006f304     libvcruntime:undname.obj
 0002:00002308       ??_C@_03DCBBJBAA@amp@      000000014006f308     libvcruntime:undname.obj
 0002:0000230c       ??_C@_02KEGNLNML@?0?5@     000000014006f30c     libvcruntime:undname.obj
 0002:00002310       ??_C@_04ENMBGAPA@char@     000000014006f310     libvcruntime:undname.obj
 0002:00002318       ??_C@_05BFKKPKCG@short@    000000014006f318     libvcruntime:undname.obj
 0002:00002320       ??_C@_03JBIPMCLC@int@      000000014006f320     libvcruntime:undname.obj
 0002:00002324       ??_C@_04GOKPGOLB@long@     000000014006f324     libvcruntime:undname.obj
 0002:0000232c       ??_C@_05KNFBNCOH@float@    000000014006f32c     libvcruntime:undname.obj
 0002:00002334       ??_C@_06BNJCAIGJ@double@   000000014006f334     libvcruntime:undname.obj
 0002:0000233c       ??_C@_04DDKJGDCM@bool@     000000014006f33c     libvcruntime:undname.obj
 0002:00002344       ??_C@_06EBGKOKIG@__int8@   000000014006f344     libvcruntime:undname.obj
 0002:00002350       ??_C@_07ICFHOGAF@__int16@  000000014006f350     libvcruntime:undname.obj
 0002:00002360       ??_C@_07OFLPPHGP@__int32@  000000014006f360     libvcruntime:undname.obj
 0002:00002370       ??_C@_07LFCOJCAC@__int64@  000000014006f370     libvcruntime:undname.obj
 0002:00002380       ??_C@_08GAHOLHEO@__int128@ 000000014006f380     libvcruntime:undname.obj
 0002:00002390       ??_C@_09EEKGDCPH@?$DMunknown?$DO@ 000000014006f390     libvcruntime:undname.obj
 0002:000023a0       ??_C@_07CFHGOPCN@char8_t@  000000014006f3a0     libvcruntime:undname.obj
 0002:000023b0       ??_C@_08HBIPOFJB@char16_t@ 000000014006f3b0     libvcruntime:undname.obj
 0002:000023c0       ??_C@_08IECNCBKG@char32_t@ 000000014006f3c0     libvcruntime:undname.obj
 0002:000023d0       ??_C@_07CLGGIAMF@wchar_t@  000000014006f3d0     libvcruntime:undname.obj
 0002:000023dc       ??_C@_04HAPDLBFF@auto@     000000014006f3dc     libvcruntime:undname.obj
 0002:000023e8       ??_C@_0P@LHCGKIGK@decltype?$CIauto?$CJ@ 000000014006f3e8     libvcruntime:undname.obj
 0002:000023fc       ??_C@_06GCICPBLB@__w64?5@  000000014006f3fc     libvcruntime:undname.obj
 0002:00002408       ??_C@_07NFANNNEC@UNKNOWN@  000000014006f408     libvcruntime:undname.obj
 0002:00002418       ??_C@_07EDHNAJHC@signed?5@ 000000014006f418     libvcruntime:undname.obj
 0002:00002424       ??_C@_05BNCCCJPP@const@    000000014006f424     libvcruntime:undname.obj
 0002:00002430       ??_C@_09EFNPDFFP@?5volatile@ 000000014006f430     libvcruntime:undname.obj
 0002:00002440       ??_C@_0P@GCIFDJCJ@?$GAunknown?5ecsu?8@ 000000014006f440     libvcruntime:undname.obj
 0002:00002454       ??_C@_06MOJHIBMG@union?5@  000000014006f454     libvcruntime:undname.obj
 0002:00002460       ??_C@_07DIBCDNGL@struct?5@ 000000014006f460     libvcruntime:undname.obj
 0002:0000246c       ??_C@_06LJBABKPM@class?5@  000000014006f46c     libvcruntime:undname.obj
 0002:00002478       ??_C@_08KOFANOFK@coclass?5@ 000000014006f478     libvcruntime:undname.obj
 0002:00002488       ??_C@_0N@DLIEFKNA@cointerface?5@ 000000014006f488     libvcruntime:undname.obj
 0002:00002498       ??_C@_05LJGMCFOG@enum?5@   000000014006f498     libvcruntime:undname.obj
 0002:000024a0       ??_C@_06LIJLOJAG@const?5@  000000014006f4a0     libvcruntime:undname.obj
 0002:000024a8       ??_C@_02KJPKDIBN@?$CG?5@   000000014006f4a8     libvcruntime:undname.obj
 0002:000024ac       ??_C@_03PCKGMOPB@?$CG?$CG?5@ 000000014006f4ac     libvcruntime:undname.obj
 0002:000024b0       ??_C@_0M@EALIELKG@cli?3?3array?$DM@ 000000014006f4b0     libvcruntime:undname.obj
 0002:000024c0       ??_C@_0O@GKABPPIF@cli?3?3pin_ptr?$DM@ 000000014006f4c0     libvcruntime:undname.obj
 0002:000024d0       ??_C@_02GOGNNPBN@?$CJ?$FL@ 000000014006f4d0     libvcruntime:undname.obj
 0002:000024d4       ??_C@_06EEGAIFAK@?$HLflat?$HN@ 000000014006f4d4     libvcruntime:undname.obj
 0002:000024dc       ??_C@_05JIBOFOHK@?$HLfor?5@ 000000014006f4dc     libvcruntime:undname.obj
 0002:000024e4       ??_C@_02MDINNEEG@s?5@      000000014006f4e4     libvcruntime:undname.obj
 0002:000024f0       ??_7DNameNode@@6B@         000000014006f4f0     libvcruntime:undname.obj
 0002:00002520       ??_7charNode@@6B@          000000014006f520     libvcruntime:undname.obj
 0002:00002550       ??_7pcharNode@@6B@         000000014006f550     libvcruntime:undname.obj
 0002:00002580       ??_7pDNameNode@@6B@        000000014006f580     libvcruntime:undname.obj
 0002:000025b0       ??_7DNameStatusNode@@6B@   000000014006f5b0     libvcruntime:undname.obj
 0002:000025e0       ??_7pairNode@@6B@          000000014006f5e0     libvcruntime:undname.obj
 0002:00002744       ??_C@_04OKOHEJBO@?5?$DP?$DP?5@ 000000014006f744     libvcruntime:undname.obj
 0002:00002750       ?nodes@?1??make@DNameStatusNode@@SAPEBV2@W4DNameStatus@@@Z@4QBV2@B 000000014006f750     libvcruntime:undname.obj
 0002:000027c0       ??_C@_1DM@KHCHBNEB@?$AAa?$AAp?$AAi?$AA?9?$AAm?$AAs?$AA?9?$AAw?$AAi?$AAn?$AA?9?$AAc?$AAo?$AAr?$AAe@ 000000014006f7c0     libvcruntime:winapi_downlevel.obj
 0002:00002808       ??_C@_1DK@LPPGFMPP@?$AAa?$AAp?$AAi?$AA?9?$AAm?$AAs?$AA?9?$AAw?$AAi?$AAn?$AA?9?$AAc?$AAo?$AAr?$AAe@ 000000014006f808     libvcruntime:winapi_downlevel.obj
 0002:00002850       ??_C@_1BC@GDMECMAK@?$AAk?$AAe?$AAr?$AAn?$AAe?$AAl?$AA3?$AA2@ 000000014006f850     libvcruntime:winapi_downlevel.obj
 0002:00002868       ??_C@_1BA@PFFKHIOG@?$AAa?$AAp?$AAi?$AA?9?$AAm?$AAs?$AA?9@ 000000014006f868     libvcruntime:winapi_downlevel.obj
 0002:00002890       ??_C@_08KNHFBNJ@FlsAlloc@  000000014006f890     libvcruntime:winapi_downlevel.obj
 0002:000028b0       ??_C@_07PEJMOBNF@FlsFree@  000000014006f8b0     libvcruntime:winapi_downlevel.obj
 0002:000028d0       ??_C@_0M@GDNOONDI@FlsGetValue@ 000000014006f8d0     libvcruntime:winapi_downlevel.obj
 0002:000028f0       ??_C@_0M@JCPCPOEF@FlsSetValue@ 000000014006f8f0     libvcruntime:winapi_downlevel.obj
 0002:00002910       ??_C@_0BM@HCFOFFN@InitializeCriticalSectionEx@ 000000014006f910     libvcruntime:winapi_downlevel.obj
 0002:00002938       ?s_negLengthTab@FH4@@3QBCB 000000014006f938     libvcruntime:risctrnsctrl.obj
 0002:00002950       ?s_shiftTab@FH4@@3QBEB     000000014006f950     libvcruntime:risctrnsctrl.obj
 0002:00002af0       ??_7exception@std@@6B@     000000014006faf0     libvcruntime:frame.obj
 0002:00002b08       ??_C@_0BC@EOODALEL@Unknown?5exception@ 000000014006fb08     libvcruntime:frame.obj
 0002:00002b28       ??_7bad_exception@std@@6B@ 000000014006fb28     libvcruntime:frame.obj
 0002:00002b40       ??_C@_0O@DPKOEFFH@bad?5exception@ 000000014006fb40     libvcruntime:frame.obj
 0002:00002b50       __acrt_exception_action_table 000000014006fb50     libucrt:exception_filter.obj
 0002:00002c38       __acrt_signal_action_table_count 000000014006fc38     libucrt:exception_filter.obj
 0002:00002c48       __acrt_signal_action_table_size 000000014006fc48     libucrt:exception_filter.obj
 0002:00002c58       __acrt_signal_action_first_fpe_index 000000014006fc58     libucrt:exception_filter.obj
 0002:00002c68       __acrt_signal_action_fpe_count 000000014006fc68     libucrt:exception_filter.obj
 0002:00002c78       ??_C@_1DE@JNGNBFGO@?$AAR?$AAu?$AAn?$AAt?$AAi?$AAm?$AAe?$AA?5?$AAE?$AAr?$AAr?$AAo?$AAr?$AA?$CB?$AA?6@ 000000014006fc78     libucrt:report_runtime_error.obj
 0002:00002cb8       ??_C@_1CO@EAEJAADC@?$AA?$DM?$AAp?$AAr?$AAo?$AAg?$AAr?$AAa?$AAm?$AA?5?$AAn?$AAa?$AAm?$AAe?$AA?5?$AAu@ 000000014006fcb8     libucrt:report_runtime_error.obj
 0002:00002cf0       ??_C@_17LGKOMLJ@?$AA?4?$AA?4?$AA?4@ 000000014006fcf0     libucrt:report_runtime_error.obj
 0002:00002cfc       ??_C@_15IABLJNFO@?$AA?6?$AA?6@ 000000014006fcfc     libucrt:report_runtime_error.obj
 0002:00002d10       ??_C@_1EK@MBDPDCGA@?$AAM?$AAi?$AAc?$AAr?$AAo?$AAs?$AAo?$AAf?$AAt?$AA?5?$AAV?$AAi?$AAs?$AAu?$AAa@ 000000014006fd10     libucrt:report_runtime_error.obj
 0002:00002d68       RtlNtPathSeperatorString   000000014006fd68     libucrt:exit.obj
 0002:00002d7c       ??_C@_13FPGAJAPJ@?$AA?2@   000000014006fd7c     libucrt:exit.obj
 0002:00002d80       RtlDosPathSeperatorsString 000000014006fd80     libucrt:exit.obj
 0002:00002d94       ??_C@_15MNCACJLI@?$AA?2?$AA?1@ 000000014006fd94     libucrt:exit.obj
 0002:00002da0       RtlAlternateDosPathSeperatorString 000000014006fda0     libucrt:exit.obj
 0002:00002db4       ??_C@_13CGOKJPIL@?$AA?1@   000000014006fdb4     libucrt:exit.obj
 0002:00002db8       ??_C@_1BI@BGOHAHKC@?$AAm?$AAs?$AAc?$AAo?$AAr?$AAe?$AAe?$AA?4?$AAd?$AAl?$AAl@ 000000014006fdb8     libucrt:exit.obj
 0002:00002dd8       ??_C@_0P@MIGLKIOC@CorExitProcess@ 000000014006fdd8     libucrt:exit.obj
 0002:00002e90       __lc_category              000000014006fe90     libucrt:wsetlocale.obj
 0002:00002f40       ??_C@_1O@GIFLHMA@?$AAL?$AAC?$AA_?$AAA?$AAL?$AAL@ 000000014006ff40     libucrt:wsetlocale.obj
 0002:00002f50       ??_C@_1BG@PPOMIBNJ@?$AAL?$AAC?$AA_?$AAC?$AAO?$AAL?$AAL?$AAA?$AAT?$AAE@ 000000014006ff50     libucrt:wsetlocale.obj
 0002:00002f70       ??_C@_1BC@FFJGAPJM@?$AAL?$AAC?$AA_?$AAC?$AAT?$AAY?$AAP?$AAE@ 000000014006ff70     libucrt:wsetlocale.obj
 0002:00002f88       ??_C@_1BI@PCKFNJFB@?$AAL?$AAC?$AA_?$AAM?$AAO?$AAN?$AAE?$AAT?$AAA?$AAR?$AAY@ 000000014006ff88     libucrt:wsetlocale.obj
 0002:00002fa8       ??_C@_1BG@ENIEDKID@?$AAL?$AAC?$AA_?$AAN?$AAU?$AAM?$AAE?$AAR?$AAI?$AAC@ 000000014006ffa8     libucrt:wsetlocale.obj
 0002:00002fc8       ??_C@_1BA@HAAOMIIG@?$AAL?$AAC?$AA_?$AAT?$AAI?$AAM?$AAE@ 000000014006ffc8     libucrt:wsetlocale.obj
 0002:00002fdc       ??_C@_15NBPDDFIP@?$AA?$DN?$AA?$DL@ 000000014006ffdc     libucrt:wsetlocale.obj
 0002:00002fe4       ??_C@_13PJJBFPED@?$AA?$DL@ 000000014006ffe4     libucrt:wsetlocale.obj
 0002:00002fe8       ??_C@_13NMPKAAJP@?$AA?$DN@ 000000014006ffe8     libucrt:wsetlocale.obj
 0002:00002fec       ??_C@_13IMODFHAA@?$AA?9@   000000014006ffec     libucrt:wsetlocale.obj
 0002:00002ff0       ??_C@_17EFJLDFDO@?$AA?9?$AA_?$AA?4@ 000000014006fff0     libucrt:wsetlocale.obj
 0002:00002ffc       ??_C@_13FHBKNHDA@?$AAC@    000000014006fffc     libucrt:wsetlocale.obj
 0002:00003000       ??_C@_17MBJJLFDM@?$AA_?$AA?4?$AA?0@ 0000000140070000     libucrt:wsetlocale.obj
 0002:0000300c       ??_C@_13ENNFDPBH@?$AA_@    000000014007000c     libucrt:wsetlocale.obj
 0002:00003010       ??_C@_13JOFGPIOO@?$AA?4@   0000000140070010     libucrt:wsetlocale.obj
 0002:00003160       ?standard_lookup_table_spectre@__crt_stdio_output@@3V?$spectre_mitigated_lookup_table@Ustate_transition_pair@__crt_stdio_output@@$0IA@@1@B 0000000140070160     libucrt:output.obj
 0002:00003630       ?format_validation_lookup_table_spectre@__crt_stdio_output@@3V?$spectre_mitigated_lookup_table@Ustate_transition_pair@__crt_stdio_output@@$0IA@@1@B 0000000140070630     libucrt:output.obj
 0002:00003b00       ??_C@_1O@CEDCILHN@?$AA?$CI?$AAn?$AAu?$AAl?$AAl?$AA?$CJ@ 0000000140070b00     libucrt:output.obj
 0002:00003b10       ??_C@_06OJHGLDPL@?$CInull?$CJ@ 0000000140070b10     libucrt:output.obj
 0002:00003b18       _Fenv1                     0000000140070b18     libucrt:atox.obj
 0002:00003d08       ??_C@_1M@HPNHIDJI@?$AAj?$AAa?$AA?9?$AAJ?$AAP@ 0000000140070d08     libucrt:mbctype.obj
 0002:00003d18       ??_C@_1M@BIBDDEMK@?$AAz?$AAh?$AA?9?$AAC?$AAN@ 0000000140070d18     libucrt:mbctype.obj
 0002:00003d28       ??_C@_1M@JLOOOEGK@?$AAk?$AAo?$AA?9?$AAK?$AAR@ 0000000140070d28     libucrt:mbctype.obj
 0002:00003d38       ??_C@_1M@CLNBBOPM@?$AAz?$AAh?$AA?9?$AAT?$AAW@ 0000000140070d38     libucrt:mbctype.obj
 0002:00003d50       __lc_time_c                0000000140070d50     libucrt:nlsdata.obj
 0002:0000409c       ??_C@_03KOEHGMDN@Sun@      000000014007109c     libucrt:nlsdata.obj
 0002:000040a0       ??_C@_03PDAGKDH@Mon@       00000001400710a0     libucrt:nlsdata.obj
 0002:000040a4       ??_C@_03NAGEINEP@Tue@      00000001400710a4     libucrt:nlsdata.obj
 0002:000040a8       ??_C@_03MHOMLAJA@Wed@      00000001400710a8     libucrt:nlsdata.obj
 0002:000040ac       ??_C@_03IOFIKPDN@Thu@      00000001400710ac     libucrt:nlsdata.obj
 0002:000040b0       ??_C@_03IDIOELNC@Fri@      00000001400710b0     libucrt:nlsdata.obj
 0002:000040b4       ??_C@_03FEFJNEK@Sat@       00000001400710b4     libucrt:nlsdata.obj
 0002:000040b8       ??_C@_06OOPIFAJ@Sunday@    00000001400710b8     libucrt:nlsdata.obj
 0002:000040c0       ??_C@_06JLEDEDGH@Monday@   00000001400710c0     libucrt:nlsdata.obj
 0002:000040c8       ??_C@_07BAAGCFCM@Tuesday@  00000001400710c8     libucrt:nlsdata.obj
 0002:000040d8       ??_C@_09DLIGFAKA@Wednesday@ 00000001400710d8     libucrt:nlsdata.obj
 0002:000040e8       ??_C@_08HACCIKIA@Thursday@ 00000001400710e8     libucrt:nlsdata.obj
 0002:000040f4       ??_C@_06JECMNKMI@Friday@   00000001400710f4     libucrt:nlsdata.obj
 0002:00004100       ??_C@_08INBOOONO@Saturday@ 0000000140071100     libucrt:nlsdata.obj
 0002:0000410c       ??_C@_03JIHJHPIE@Jan@      000000014007110c     libucrt:nlsdata.obj
 0002:00004110       ??_C@_03HJBDCHOM@Feb@      0000000140071110     libucrt:nlsdata.obj
 0002:00004114       ??_C@_03ODNJBKGA@Mar@      0000000140071114     libucrt:nlsdata.obj
 0002:00004118       ??_C@_03LEOLGMJP@Apr@      0000000140071118     libucrt:nlsdata.obj
 0002:0000411c       ??_C@_03CNMDKL@May@        000000014007111c     libucrt:nlsdata.obj
 0002:00004120       ??_C@_03IDFGHECI@Jun@      0000000140071120     libucrt:nlsdata.obj
 0002:00004124       ??_C@_03LBGABGKK@Jul@      0000000140071124     libucrt:nlsdata.obj
 0002:00004128       ??_C@_03IFJFEIGA@Aug@      0000000140071128     libucrt:nlsdata.obj
 0002:0000412c       ??_C@_03GGCAPAJC@Sep@      000000014007112c     libucrt:nlsdata.obj
 0002:00004130       ??_C@_03BMAOKBAD@Oct@      0000000140071130     libucrt:nlsdata.obj
 0002:00004134       ??_C@_03JPJOFNIA@Nov@      0000000140071134     libucrt:nlsdata.obj
 0002:00004138       ??_C@_03MKABNOCG@Dec@      0000000140071138     libucrt:nlsdata.obj
 0002:00004140       ??_C@_07CGJPFGJA@January@  0000000140071140     libucrt:nlsdata.obj
 0002:00004150       ??_C@_08GNJGEPFN@February@ 0000000140071150     libucrt:nlsdata.obj
 0002:0000415c       ??_C@_05HPCKOFNC@March@    000000014007115c     libucrt:nlsdata.obj
 0002:00004164       ??_C@_05DMJDNLEJ@April@    0000000140071164     libucrt:nlsdata.obj
 0002:0000416c       ??_C@_04CNLMGBGM@June@     000000014007116c     libucrt:nlsdata.obj
 0002:00004174       ??_C@_04MIEPOIFP@July@     0000000140071174     libucrt:nlsdata.obj
 0002:0000417c       ??_C@_06LBBHFDDG@August@   000000014007117c     libucrt:nlsdata.obj
 0002:00004188       ??_C@_09BHHEALKD@September@ 0000000140071188     libucrt:nlsdata.obj
 0002:00004198       ??_C@_07JJNFCEND@October@  0000000140071198     libucrt:nlsdata.obj
 0002:000041a8       ??_C@_08HCHEGEOA@November@ 00000001400711a8     libucrt:nlsdata.obj
 0002:000041b8       ??_C@_08EDHMEBNP@December@ 00000001400711b8     libucrt:nlsdata.obj
 0002:000041c4       ??_C@_02DEDBPAFC@AM@       00000001400711c4     libucrt:nlsdata.obj
 0002:000041c8       ??_C@_02CJNFDJBF@PM@       00000001400711c8     libucrt:nlsdata.obj
 0002:000041d0       ??_C@_08BPBNCDIB@MM?1dd?1yy@ 00000001400711d0     libucrt:nlsdata.obj
 0002:000041e0       ??_C@_0BE@CKGJFCPC@dddd?0?5MMMM?5dd?0?5yyyy@ 00000001400711e0     libucrt:nlsdata.obj
 0002:000041f8       ??_C@_08JCCMCCIL@HH?3mm?3ss@ 00000001400711f8     libucrt:nlsdata.obj
 0002:00004208       ??_C@_17MBGCMIPB@?$AAS?$AAu?$AAn@ 0000000140071208     libucrt:nlsdata.obj
 0002:00004218       ??_C@_17KBOMKBF@?$AAM?$AAo?$AAn@ 0000000140071218     libucrt:nlsdata.obj
 0002:00004228       ??_C@_17BMKGEGOJ@?$AAT?$AAu?$AAe@ 0000000140071228     libucrt:nlsdata.obj
 0002:00004238       ??_C@_17CJEDCEPE@?$AAW?$AAe?$AAd@ 0000000140071238     libucrt:nlsdata.obj
 0002:00004248       ??_C@_17PDPHAADD@?$AAT?$AAh?$AAu@ 0000000140071248     libucrt:nlsdata.obj
 0002:00004258       ??_C@_17HFOLPPLP@?$AAF?$AAr?$AAi@ 0000000140071258     libucrt:nlsdata.obj
 0002:00004268       ??_C@_17GGIBDPIH@?$AAS?$AAa?$AAt@ 0000000140071268     libucrt:nlsdata.obj
 0002:00004278       ??_C@_1O@IHNHDHPB@?$AAS?$AAu?$AAn?$AAd?$AAa?$AAy@ 0000000140071278     libucrt:nlsdata.obj
 0002:00004288       ??_C@_1O@MMNBFLIA@?$AAM?$AAo?$AAn?$AAd?$AAa?$AAy@ 0000000140071288     libucrt:nlsdata.obj
 0002:00004298       ??_C@_1BA@ENFBFFEK@?$AAT?$AAu?$AAe?$AAs?$AAd?$AAa?$AAy@ 0000000140071298     libucrt:nlsdata.obj
 0002:000042b0       ??_C@_1BE@EBOGMDOH@?$AAW?$AAe?$AAd?$AAn?$AAe?$AAs?$AAd?$AAa?$AAy@ 00000001400712b0     libucrt:nlsdata.obj
 0002:000042c8       ??_C@_1BC@HHMNLIHE@?$AAT?$AAh?$AAu?$AAr?$AAs?$AAd?$AAa?$AAy@ 00000001400712c8     libucrt:nlsdata.obj
 0002:000042e0       ??_C@_1O@PDICJHAG@?$AAF?$AAr?$AAi?$AAd?$AAa?$AAy@ 00000001400712e0     libucrt:nlsdata.obj
 0002:000042f0       ??_C@_1BC@ENMNNPAJ@?$AAS?$AAa?$AAt?$AAu?$AAr?$AAd?$AAa?$AAy@ 00000001400712f0     libucrt:nlsdata.obj
 0002:00004308       ??_C@_17DKNBKCHM@?$AAJ?$AAa?$AAn@ 0000000140071308     libucrt:nlsdata.obj
 0002:00004318       ??_C@_17LMDJEKJN@?$AAF?$AAe?$AAb@ 0000000140071318     libucrt:nlsdata.obj
 0002:00004328       ??_C@_17CKNLEDEC@?$AAM?$AAa?$AAr@ 0000000140071328     libucrt:nlsdata.obj
 0002:00004338       ??_C@_17LFPOIHDD@?$AAA?$AAp?$AAr@ 0000000140071338     libucrt:nlsdata.obj
 0002:00004348       ??_C@_17PNNKMEED@?$AAM?$AAa?$AAy@ 0000000140071348     libucrt:nlsdata.obj
 0002:00004358       ??_C@_17KCJGOCPB@?$AAJ?$AAu?$AAn@ 0000000140071358     libucrt:nlsdata.obj
 0002:00004368       ??_C@_17IJPCKHK@?$AAJ?$AAu?$AAl@ 0000000140071368     libucrt:nlsdata.obj
 0002:00004378       ??_C@_17ICPELBCN@?$AAA?$AAu?$AAg@ 0000000140071378     libucrt:nlsdata.obj
 0002:00004388       ??_C@_17HCHCOKMG@?$AAS?$AAe?$AAp@ 0000000140071388     libucrt:nlsdata.obj
 0002:00004398       ??_C@_17FNLKOI@?$AAO?$AAc?$AAt@ 0000000140071398     libucrt:nlsdata.obj
 0002:000043a8       ??_C@_17BBDMLCIG@?$AAN?$AAo?$AAv@ 00000001400713a8     libucrt:nlsdata.obj
 0002:000043b8       ??_C@_17EGKACKIF@?$AAD?$AAe?$AAc@ 00000001400713b8     libucrt:nlsdata.obj
 0002:000043c8       ??_C@_1BA@EFMEIEBA@?$AAJ?$AAa?$AAn?$AAu?$AAa?$AAr?$AAy@ 00000001400713c8     libucrt:nlsdata.obj
 0002:000043e0       ??_C@_1BC@JGDDFFAM@?$AAF?$AAe?$AAb?$AAr?$AAu?$AAa?$AAr?$AAy@ 00000001400713e0     libucrt:nlsdata.obj
 0002:000043f8       ??_C@_1M@IKEENEDF@?$AAM?$AAa?$AAr?$AAc?$AAh@ 00000001400713f8     libucrt:nlsdata.obj
 0002:00004408       ??_C@_1M@GJNLMHFD@?$AAA?$AAp?$AAr?$AAi?$AAl@ 0000000140071408     libucrt:nlsdata.obj
 0002:00004418       ??_C@_19EPFLPGAP@?$AAJ?$AAu?$AAn?$AAe@ 0000000140071418     libucrt:nlsdata.obj
 0002:00004428       ??_C@_19BIFMLPCD@?$AAJ?$AAu?$AAl?$AAy@ 0000000140071428     libucrt:nlsdata.obj
 0002:00004438       ??_C@_1O@PAHLKOAC@?$AAA?$AAu?$AAg?$AAu?$AAs?$AAt@ 0000000140071438     libucrt:nlsdata.obj
 0002:00004448       ??_C@_1BE@DKAAMBJL@?$AAS?$AAe?$AAp?$AAt?$AAe?$AAm?$AAb?$AAe?$AAr@ 0000000140071448     libucrt:nlsdata.obj
 0002:00004460       ??_C@_1BA@EPANDLNG@?$AAO?$AAc?$AAt?$AAo?$AAb?$AAe?$AAr@ 0000000140071460     libucrt:nlsdata.obj
 0002:00004478       ??_C@_1BC@BGLIFPF@?$AAN?$AAo?$AAv?$AAe?$AAm?$AAb?$AAe?$AAr@ 0000000140071478     libucrt:nlsdata.obj
 0002:00004490       ??_C@_1BC@FEMKIFH@?$AAD?$AAe?$AAc?$AAe?$AAm?$AAb?$AAe?$AAr@ 0000000140071490     libucrt:nlsdata.obj
 0002:000044a8       ??_C@_15ODEHAHHF@?$AAA?$AAM@ 00000001400714a8     libucrt:nlsdata.obj
 0002:000044b0       ??_C@_15CLMNNGEL@?$AAP?$AAM@ 00000001400714b0     libucrt:nlsdata.obj
 0002:000044b8       ??_C@_1BC@IEBCMHCM@?$AAM?$AAM?$AA?1?$AAd?$AAd?$AA?1?$AAy?$AAy@ 00000001400714b8     libucrt:nlsdata.obj
 0002:000044d0       ??_C@_1CI@KNAKOEBC@?$AAd?$AAd?$AAd?$AAd?$AA?0?$AA?5?$AAM?$AAM?$AAM?$AAM?$AA?5?$AAd?$AAd?$AA?0?$AA?5@ 00000001400714d0     libucrt:nlsdata.obj
 0002:00004500       ??_C@_1BC@GDGBMEMK@?$AAH?$AAH?$AA?3?$AAm?$AAm?$AA?3?$AAs?$AAs@ 0000000140071500     libucrt:nlsdata.obj
 0002:00004518       ??_C@_1M@BMHNFIME@?$AAe?$AAn?$AA?9?$AAU?$AAS@ 0000000140071518     libucrt:nlsdata.obj
 0002:00004530       __newctype                 0000000140071530     libucrt:ctype.obj
 0002:000048d0       __newclmap                 00000001400718d0     libucrt:ctype.obj
 0002:00004aa0       __newcumap                 0000000140071aa0     libucrt:ctype.obj
 0002:00004c70       _wctype                    0000000140071c70     libucrt:ctype.obj
 0002:00004ee0       __acrt_rg_language         0000000140071ee0     libucrt:get_qualified_locale.obj
 0002:000053c0       __acrt_rg_language_count   00000001400723c0     libucrt:get_qualified_locale.obj
 0002:000053d0       __acrt_rg_country          00000001400723d0     libucrt:get_qualified_locale.obj
 0002:00005590       __acrt_rg_country_count    0000000140072590     libucrt:get_qualified_locale.obj
 0002:000055a0       ??_C@_1BC@LLOKLNP@?$AAa?$AAm?$AAe?$AAr?$AAi?$AAc?$AAa?$AAn@ 00000001400725a0     libucrt:get_qualified_locale.obj
 0002:000055b8       ??_C@_1CC@HEIGCDGG@?$AAa?$AAm?$AAe?$AAr?$AAi?$AAc?$AAa?$AAn?$AA?5?$AAe?$AAn?$AAg?$AAl?$AAi?$AAs@ 00000001400725b8     libucrt:get_qualified_locale.obj
 0002:000055e0       ??_C@_1CC@IHCNOMIN@?$AAa?$AAm?$AAe?$AAr?$AAi?$AAc?$AAa?$AAn?$AA?9?$AAe?$AAn?$AAg?$AAl?$AAi?$AAs@ 00000001400725e0     libucrt:get_qualified_locale.obj
 0002:00005608       ??_C@_1BG@GKAGPCGG@?$AAa?$AAu?$AAs?$AAt?$AAr?$AAa?$AAl?$AAi?$AAa?$AAn@ 0000000140072608     libucrt:get_qualified_locale.obj
 0002:00005628       ??_C@_1BA@GMENCENF@?$AAb?$AAe?$AAl?$AAg?$AAi?$AAa?$AAn@ 0000000140072628     libucrt:get_qualified_locale.obj
 0002:00005640       ??_C@_1BC@PJMIIAAN@?$AAc?$AAa?$AAn?$AAa?$AAd?$AAi?$AAa?$AAn@ 0000000140072640     libucrt:get_qualified_locale.obj
 0002:00005658       ??_C@_17NOIMNFBF@?$AAc?$AAh?$AAh@ 0000000140072658     libucrt:get_qualified_locale.obj
 0002:00005668       ??_C@_17GGDALCHA@?$AAc?$AAh?$AAi@ 0000000140072668     libucrt:get_qualified_locale.obj
 0002:00005678       ??_C@_1BA@NPNJKIBL@?$AAc?$AAh?$AAi?$AAn?$AAe?$AAs?$AAe@ 0000000140072678     libucrt:get_qualified_locale.obj
 0002:00005690       ??_C@_1CC@DINBAMMJ@?$AAc?$AAh?$AAi?$AAn?$AAe?$AAs?$AAe?$AA?9?$AAh?$AAo?$AAn?$AAg?$AAk?$AAo?$AAn@ 0000000140072690     libucrt:get_qualified_locale.obj
 0002:000056b8       ??_C@_1CG@IOBJPACO@?$AAc?$AAh?$AAi?$AAn?$AAe?$AAs?$AAe?$AA?9?$AAs?$AAi?$AAm?$AAp?$AAl?$AAi?$AAf@ 00000001400726b8     libucrt:get_qualified_locale.obj
 0002:000056e8       ??_C@_1CE@GAJNDCKG@?$AAc?$AAh?$AAi?$AAn?$AAe?$AAs?$AAe?$AA?9?$AAs?$AAi?$AAn?$AAg?$AAa?$AAp?$AAo@ 00000001400726e8     libucrt:get_qualified_locale.obj
 0002:00005718       ??_C@_1CI@PAJPIOOD@?$AAc?$AAh?$AAi?$AAn?$AAe?$AAs?$AAe?$AA?9?$AAt?$AAr?$AAa?$AAd?$AAi?$AAt?$AAi@ 0000000140072718     libucrt:get_qualified_locale.obj
 0002:00005748       ??_C@_1BM@NILJBMMD@?$AAd?$AAu?$AAt?$AAc?$AAh?$AA?9?$AAb?$AAe?$AAl?$AAg?$AAi?$AAa?$AAn@ 0000000140072748     libucrt:get_qualified_locale.obj
 0002:00005770       ??_C@_1CC@OOJPJNEJ@?$AAe?$AAn?$AAg?$AAl?$AAi?$AAs?$AAh?$AA?9?$AAa?$AAm?$AAe?$AAr?$AAi?$AAc?$AAa@ 0000000140072770     libucrt:get_qualified_locale.obj
 0002:00005798       ??_C@_1BI@IOLFEEM@?$AAe?$AAn?$AAg?$AAl?$AAi?$AAs?$AAh?$AA?9?$AAa?$AAu?$AAs@ 0000000140072798     libucrt:get_qualified_locale.obj
 0002:000057b8       ??_C@_1BO@HFFNLENJ@?$AAe?$AAn?$AAg?$AAl?$AAi?$AAs?$AAh?$AA?9?$AAb?$AAe?$AAl?$AAi?$AAz?$AAe@ 00000001400727b8     libucrt:get_qualified_locale.obj
 0002:000057e0       ??_C@_1BI@HAPKJMPO@?$AAe?$AAn?$AAg?$AAl?$AAi?$AAs?$AAh?$AA?9?$AAc?$AAa?$AAn@ 00000001400727e0     libucrt:get_qualified_locale.obj
 0002:00005800       ??_C@_1CE@HLNDMIOJ@?$AAe?$AAn?$AAg?$AAl?$AAi?$AAs?$AAh?$AA?9?$AAc?$AAa?$AAr?$AAi?$AAb?$AAb?$AAe@ 0000000140072800     libucrt:get_qualified_locale.obj
 0002:00005830       ??_C@_1BI@LDHJHHAC@?$AAe?$AAn?$AAg?$AAl?$AAi?$AAs?$AAh?$AA?9?$AAi?$AAr?$AAe@ 0000000140072830     libucrt:get_qualified_locale.obj
 0002:00005850       ??_C@_1CA@NJMMCFOC@?$AAe?$AAn?$AAg?$AAl?$AAi?$AAs?$AAh?$AA?9?$AAj?$AAa?$AAm?$AAa?$AAi?$AAc?$AAa@ 0000000140072850     libucrt:get_qualified_locale.obj
 0002:00005878       ??_C@_1BG@BHJEBBGG@?$AAe?$AAn?$AAg?$AAl?$AAi?$AAs?$AAh?$AA?9?$AAn?$AAz@ 0000000140072878     libucrt:get_qualified_locale.obj
 0002:00005898       ??_C@_1CK@FGOEJJCO@?$AAe?$AAn?$AAg?$AAl?$AAi?$AAs?$AAh?$AA?9?$AAs?$AAo?$AAu?$AAt?$AAh?$AA?5?$AAa@ 0000000140072898     libucrt:get_qualified_locale.obj
 0002:000058d0       ??_C@_1DE@PDBJPCJ@?$AAe?$AAn?$AAg?$AAl?$AAi?$AAs?$AAh?$AA?9?$AAt?$AAr?$AAi?$AAn?$AAi?$AAd?$AAa@ 00000001400728d0     libucrt:get_qualified_locale.obj
 0002:00005910       ??_C@_1BG@JGCANDME@?$AAe?$AAn?$AAg?$AAl?$AAi?$AAs?$AAh?$AA?9?$AAu?$AAk@ 0000000140072910     libucrt:get_qualified_locale.obj
 0002:00005930       ??_C@_1BG@DINKMLE@?$AAe?$AAn?$AAg?$AAl?$AAi?$AAs?$AAh?$AA?9?$AAu?$AAs@ 0000000140072930     libucrt:get_qualified_locale.obj
 0002:00005950       ??_C@_1BI@NMFDBHJE@?$AAe?$AAn?$AAg?$AAl?$AAi?$AAs?$AAh?$AA?9?$AAu?$AAs?$AAa@ 0000000140072950     libucrt:get_qualified_locale.obj
 0002:00005970       ??_C@_1BO@OIHKJKII@?$AAf?$AAr?$AAe?$AAn?$AAc?$AAh?$AA?9?$AAb?$AAe?$AAl?$AAg?$AAi?$AAa?$AAn@ 0000000140072970     libucrt:get_qualified_locale.obj
 0002:00005998       ??_C@_1CA@NKAELJKI@?$AAf?$AAr?$AAe?$AAn?$AAc?$AAh?$AA?9?$AAc?$AAa?$AAn?$AAa?$AAd?$AAi?$AAa?$AAn@ 0000000140072998     libucrt:get_qualified_locale.obj
 0002:000059c0       ??_C@_1CE@MGKCNLGN@?$AAf?$AAr?$AAe?$AAn?$AAc?$AAh?$AA?9?$AAl?$AAu?$AAx?$AAe?$AAm?$AAb?$AAo?$AAu@ 00000001400729c0     libucrt:get_qualified_locale.obj
 0002:000059f0       ??_C@_1BK@CEGEAILM@?$AAf?$AAr?$AAe?$AAn?$AAc?$AAh?$AA?9?$AAs?$AAw?$AAi?$AAs?$AAs@ 00000001400729f0     libucrt:get_qualified_locale.obj
 0002:00005a10       ??_C@_1CA@PAFKEOCC@?$AAg?$AAe?$AAr?$AAm?$AAa?$AAn?$AA?9?$AAa?$AAu?$AAs?$AAt?$AAr?$AAi?$AAa?$AAn@ 0000000140072a10     libucrt:get_qualified_locale.obj
 0002:00005a38       ??_C@_1CI@HCFHGOFD@?$AAg?$AAe?$AAr?$AAm?$AAa?$AAn?$AA?9?$AAl?$AAi?$AAc?$AAh?$AAt?$AAe?$AAn?$AAs@ 0000000140072a38     libucrt:get_qualified_locale.obj
 0002:00005a68       ??_C@_1CE@FEDDNPDG@?$AAg?$AAe?$AAr?$AAm?$AAa?$AAn?$AA?9?$AAl?$AAu?$AAx?$AAe?$AAm?$AAb?$AAo?$AAu@ 0000000140072a68     libucrt:get_qualified_locale.obj
 0002:00005a98       ??_C@_1BK@LIMINNMN@?$AAg?$AAe?$AAr?$AAm?$AAa?$AAn?$AA?9?$AAs?$AAw?$AAi?$AAs?$AAs@ 0000000140072a98     libucrt:get_qualified_locale.obj
 0002:00005ab8       ??_C@_1BM@LGMDBEPD@?$AAi?$AAr?$AAi?$AAs?$AAh?$AA?9?$AAe?$AAn?$AAg?$AAl?$AAi?$AAs?$AAh@ 0000000140072ab8     libucrt:get_qualified_locale.obj
 0002:00005ae0       ??_C@_1BM@NNCFBAEE@?$AAi?$AAt?$AAa?$AAl?$AAi?$AAa?$AAn?$AA?9?$AAs?$AAw?$AAi?$AAs?$AAs@ 0000000140072ae0     libucrt:get_qualified_locale.obj
 0002:00005b08       ??_C@_1BE@FEDJNPIB@?$AAn?$AAo?$AAr?$AAw?$AAe?$AAg?$AAi?$AAa?$AAn@ 0000000140072b08     libucrt:get_qualified_locale.obj
 0002:00005b20       ??_C@_1CC@CILKDEIE@?$AAn?$AAo?$AAr?$AAw?$AAe?$AAg?$AAi?$AAa?$AAn?$AA?9?$AAb?$AAo?$AAk?$AAm?$AAa@ 0000000140072b20     libucrt:get_qualified_locale.obj
 0002:00005b48       ??_C@_1CE@DHMMHEPL@?$AAn?$AAo?$AAr?$AAw?$AAe?$AAg?$AAi?$AAa?$AAn?$AA?9?$AAn?$AAy?$AAn?$AAo?$AAr@ 0000000140072b48     libucrt:get_qualified_locale.obj
 0002:00005b78       ??_C@_1CK@OPNMHECD@?$AAp?$AAo?$AAr?$AAt?$AAu?$AAg?$AAu?$AAe?$AAs?$AAe?$AA?9?$AAb?$AAr?$AAa?$AAz@ 0000000140072b78     libucrt:get_qualified_locale.obj
 0002:00005bb0       ??_C@_1CE@KEEHCDB@?$AAs?$AAp?$AAa?$AAn?$AAi?$AAs?$AAh?$AA?9?$AAa?$AAr?$AAg?$AAe?$AAn?$AAt?$AAi@ 0000000140072bb0     libucrt:get_qualified_locale.obj
 0002:00005be0       ??_C@_1CA@GIAOLHJD@?$AAs?$AAp?$AAa?$AAn?$AAi?$AAs?$AAh?$AA?9?$AAb?$AAo?$AAl?$AAi?$AAv?$AAi?$AAa@ 0000000140072be0     libucrt:get_qualified_locale.obj
 0002:00005c08       ??_C@_1BM@OJNDFNPD@?$AAs?$AAp?$AAa?$AAn?$AAi?$AAs?$AAh?$AA?9?$AAc?$AAh?$AAi?$AAl?$AAe@ 0000000140072c08     libucrt:get_qualified_locale.obj
 0002:00005c30       ??_C@_1CC@OCOLPALL@?$AAs?$AAp?$AAa?$AAn?$AAi?$AAs?$AAh?$AA?9?$AAc?$AAo?$AAl?$AAo?$AAm?$AAb?$AAi@ 0000000140072c30     libucrt:get_qualified_locale.obj
 0002:00005c58       ??_C@_1CG@BPOFMKBB@?$AAs?$AAp?$AAa?$AAn?$AAi?$AAs?$AAh?$AA?9?$AAc?$AAo?$AAs?$AAt?$AAa?$AA?5?$AAr@ 0000000140072c58     libucrt:get_qualified_locale.obj
 0002:00005c88       ??_C@_1DG@IGOBAPBB@?$AAs?$AAp?$AAa?$AAn?$AAi?$AAs?$AAh?$AA?9?$AAd?$AAo?$AAm?$AAi?$AAn?$AAi?$AAc@ 0000000140072c88     libucrt:get_qualified_locale.obj
 0002:00005cc8       ??_C@_1CA@JHAPGEGI@?$AAs?$AAp?$AAa?$AAn?$AAi?$AAs?$AAh?$AA?9?$AAe?$AAc?$AAu?$AAa?$AAd?$AAo?$AAr@ 0000000140072cc8     libucrt:get_qualified_locale.obj
 0002:00005cf0       ??_C@_1CI@LAPALJPP@?$AAs?$AAp?$AAa?$AAn?$AAi?$AAs?$AAh?$AA?9?$AAe?$AAl?$AA?5?$AAs?$AAa?$AAl?$AAv@ 0000000140072cf0     libucrt:get_qualified_locale.obj
 0002:00005d20       ??_C@_1CE@PDGBOFOM@?$AAs?$AAp?$AAa?$AAn?$AAi?$AAs?$AAh?$AA?9?$AAg?$AAu?$AAa?$AAt?$AAe?$AAm?$AAa@ 0000000140072d20     libucrt:get_qualified_locale.obj
 0002:00005d50       ??_C@_1CC@NBEBAODI@?$AAs?$AAp?$AAa?$AAn?$AAi?$AAs?$AAh?$AA?9?$AAh?$AAo?$AAn?$AAd?$AAu?$AAr?$AAa@ 0000000140072d50     libucrt:get_qualified_locale.obj
 0002:00005d78       ??_C@_1CA@LLKGHBMF@?$AAs?$AAp?$AAa?$AAn?$AAi?$AAs?$AAh?$AA?9?$AAm?$AAe?$AAx?$AAi?$AAc?$AAa?$AAn@ 0000000140072d78     libucrt:get_qualified_locale.obj
 0002:00005da0       ??_C@_1BO@LKNDOIGD@?$AAs?$AAp?$AAa?$AAn?$AAi?$AAs?$AAh?$AA?9?$AAm?$AAo?$AAd?$AAe?$AAr?$AAn@ 0000000140072da0     libucrt:get_qualified_locale.obj
 0002:00005dc8       ??_C@_1CE@NMDMOEEB@?$AAs?$AAp?$AAa?$AAn?$AAi?$AAs?$AAh?$AA?9?$AAn?$AAi?$AAc?$AAa?$AAr?$AAa?$AAg@ 0000000140072dc8     libucrt:get_qualified_locale.obj
 0002:00005df8       ??_C@_1BO@LLCBEJGB@?$AAs?$AAp?$AAa?$AAn?$AAi?$AAs?$AAh?$AA?9?$AAp?$AAa?$AAn?$AAa?$AAm?$AAa@ 0000000140072df8     libucrt:get_qualified_locale.obj
 0002:00005e20       ??_C@_1CC@FKPGGIHO@?$AAs?$AAp?$AAa?$AAn?$AAi?$AAs?$AAh?$AA?9?$AAp?$AAa?$AAr?$AAa?$AAg?$AAu?$AAa@ 0000000140072e20     libucrt:get_qualified_locale.obj
 0002:00005e48       ??_C@_1BK@CDEIHOOP@?$AAs?$AAp?$AAa?$AAn?$AAi?$AAs?$AAh?$AA?9?$AAp?$AAe?$AAr?$AAu@ 0000000140072e48     libucrt:get_qualified_locale.obj
 0002:00005e68       ??_C@_1CI@GAHAKKGP@?$AAs?$AAp?$AAa?$AAn?$AAi?$AAs?$AAh?$AA?9?$AAp?$AAu?$AAe?$AAr?$AAt?$AAo?$AA?5@ 0000000140072e68     libucrt:get_qualified_locale.obj
 0002:00005e98       ??_C@_1CA@NKJBCAGP@?$AAs?$AAp?$AAa?$AAn?$AAi?$AAs?$AAh?$AA?9?$AAu?$AAr?$AAu?$AAg?$AAu?$AAa?$AAy@ 0000000140072e98     libucrt:get_qualified_locale.obj
 0002:00005ec0       ??_C@_1CE@ODILCONM@?$AAs?$AAp?$AAa?$AAn?$AAi?$AAs?$AAh?$AA?9?$AAv?$AAe?$AAn?$AAe?$AAz?$AAu?$AAe@ 0000000140072ec0     libucrt:get_qualified_locale.obj
 0002:00005ef0       ??_C@_1CA@OBNMCGFO@?$AAs?$AAw?$AAe?$AAd?$AAi?$AAs?$AAh?$AA?9?$AAf?$AAi?$AAn?$AAl?$AAa?$AAn?$AAd@ 0000000140072ef0     libucrt:get_qualified_locale.obj
 0002:00005f18       ??_C@_1M@PIPDDPPI@?$AAs?$AAw?$AAi?$AAs?$AAs@ 0000000140072f18     libucrt:get_qualified_locale.obj
 0002:00005f28       ??_C@_15PJPFLCCM@?$AAu?$AAk@ 0000000140072f28     libucrt:get_qualified_locale.obj
 0002:00005f30       ??_C@_15GMFIMNFM@?$AAu?$AAs@ 0000000140072f30     libucrt:get_qualified_locale.obj
 0002:00005f38       ??_C@_17HAEBFAGL@?$AAu?$AAs?$AAa@ 0000000140072f38     libucrt:get_qualified_locale.obj
 0002:00005f48       ??_C@_1BA@DPFJEPHB@?$AAa?$AAm?$AAe?$AAr?$AAi?$AAc?$AAa@ 0000000140072f48     libucrt:get_qualified_locale.obj
 0002:00005f60       ??_C@_1BA@ELOGGFK@?$AAb?$AAr?$AAi?$AAt?$AAa?$AAi?$AAn@ 0000000140072f60     libucrt:get_qualified_locale.obj
 0002:00005f78       ??_C@_1M@GHBGIGDA@?$AAc?$AAh?$AAi?$AAn?$AAa@ 0000000140072f78     libucrt:get_qualified_locale.obj
 0002:00005f88       ??_C@_1M@NCHEJOPO@?$AAc?$AAz?$AAe?$AAc?$AAh@ 0000000140072f88     libucrt:get_qualified_locale.obj
 0002:00005f98       ??_C@_1BA@BKPAPBLA@?$AAe?$AAn?$AAg?$AAl?$AAa?$AAn?$AAd@ 0000000140072f98     libucrt:get_qualified_locale.obj
 0002:00005fb0       ??_C@_1BM@HKBCKIPC@?$AAg?$AAr?$AAe?$AAa?$AAt?$AA?5?$AAb?$AAr?$AAi?$AAt?$AAa?$AAi?$AAn@ 0000000140072fb0     libucrt:get_qualified_locale.obj
 0002:00005fd8       ??_C@_1BA@PPCHPGJB@?$AAh?$AAo?$AAl?$AAl?$AAa?$AAn?$AAd@ 0000000140072fd8     libucrt:get_qualified_locale.obj
 0002:00005ff0       ??_C@_1BE@JBMPEGDG@?$AAh?$AAo?$AAn?$AAg?$AA?9?$AAk?$AAo?$AAn?$AAg@ 0000000140072ff0     libucrt:get_qualified_locale.obj
 0002:00006008       ??_C@_1BI@KOELBBPJ@?$AAn?$AAe?$AAw?$AA?9?$AAz?$AAe?$AAa?$AAl?$AAa?$AAn?$AAd@ 0000000140073008     libucrt:get_qualified_locale.obj
 0002:00006024       ??_C@_15HIEBHAIO@?$AAn?$AAz@ 0000000140073024     libucrt:get_qualified_locale.obj
 0002:00006030       ??_C@_1BC@CHBCPFPI@?$AAp?$AAr?$AA?5?$AAc?$AAh?$AAi?$AAn?$AAa@ 0000000140073030     libucrt:get_qualified_locale.obj
 0002:00006048       ??_C@_1BC@JAOIIFKD@?$AAp?$AAr?$AA?9?$AAc?$AAh?$AAi?$AAn?$AAa@ 0000000140073048     libucrt:get_qualified_locale.obj
 0002:00006060       ??_C@_1BI@BEHPPHKC@?$AAp?$AAu?$AAe?$AAr?$AAt?$AAo?$AA?9?$AAr?$AAi?$AAc?$AAo@ 0000000140073060     libucrt:get_qualified_locale.obj
 0002:00006080       ??_C@_1O@PAEOFKDI@?$AAs?$AAl?$AAo?$AAv?$AAa?$AAk@ 0000000140073080     libucrt:get_qualified_locale.obj
 0002:00006090       ??_C@_1BK@FIHMCKAM@?$AAs?$AAo?$AAu?$AAt?$AAh?$AA?5?$AAa?$AAf?$AAr?$AAi?$AAc?$AAa@ 0000000140073090     libucrt:get_qualified_locale.obj
 0002:000060b0       ??_C@_1BI@NAEOODKB@?$AAs?$AAo?$AAu?$AAt?$AAh?$AA?5?$AAk?$AAo?$AAr?$AAe?$AAa@ 00000001400730b0     libucrt:get_qualified_locale.obj
 0002:000060d0       ??_C@_1BK@FBDGGIFF@?$AAs?$AAo?$AAu?$AAt?$AAh?$AA?9?$AAa?$AAf?$AAr?$AAi?$AAc?$AAa@ 00000001400730d0     libucrt:get_qualified_locale.obj
 0002:000060f0       ??_C@_1BI@GHLEJDPK@?$AAs?$AAo?$AAu?$AAt?$AAh?$AA?9?$AAk?$AAo?$AAr?$AAe?$AAa@ 00000001400730f0     libucrt:get_qualified_locale.obj
 0002:00006110       ??_C@_1CE@PLHLOMJF@?$AAt?$AAr?$AAi?$AAn?$AAi?$AAd?$AAa?$AAd?$AA?5?$AA?$CG?$AA?5?$AAt?$AAo?$AAb?$AAa@ 0000000140073110     libucrt:get_qualified_locale.obj
 0002:00006140       ??_C@_1BO@MODIMHHI@?$AAu?$AAn?$AAi?$AAt?$AAe?$AAd?$AA?9?$AAk?$AAi?$AAn?$AAg?$AAd?$AAo?$AAm@ 0000000140073140     libucrt:get_qualified_locale.obj
 0002:00006168       ??_C@_1BM@FFHJONBJ@?$AAu?$AAn?$AAi?$AAt?$AAe?$AAd?$AA?9?$AAs?$AAt?$AAa?$AAt?$AAe?$AAs@ 0000000140073168     libucrt:get_qualified_locale.obj
 0002:00006190       ??_C@_19MPDNHKDG@?$AAu?$AAt?$AAf?$AA8@ 0000000140073190     libucrt:get_qualified_locale.obj
 0002:000061a0       ??_C@_17DNCLJFIF@?$AAA?$AAC?$AAP@ 00000001400731a0     libucrt:get_qualified_locale.obj
 0002:000061b0       ??_C@_1M@FPEIIFAM@?$AAu?$AAt?$AAf?$AA?9?$AA8@ 00000001400731b0     libucrt:get_qualified_locale.obj
 0002:000061c0       ??_C@_17CIKBIHLH@?$AAO?$AAC?$AAP@ 00000001400731c0     libucrt:get_qualified_locale.obj
 0002:000061d0       __rglangidNotDefault       00000001400731d0     libucrt:getqloc_downlevel.obj
 0002:000062b0       ??_C@_1EA@JGEFHKEI@?$AAa?$AAp?$AAi?$AA?9?$AAm?$AAs?$AA?9?$AAw?$AAi?$AAn?$AA?9?$AAc?$AAo?$AAr?$AAe@ 00000001400732b0     libucrt:winapi_thunks.obj
 0002:00006300       ??_C@_1DI@IJCEHOCB@?$AAa?$AAp?$AAi?$AA?9?$AAm?$AAs?$AA?9?$AAw?$AAi?$AAn?$AA?9?$AAc?$AAo?$AAr?$AAe@ 0000000140073300     libucrt:winapi_thunks.obj
 0002:00006350       ??_C@_1EI@MPIAOHOC@?$AAa?$AAp?$AAi?$AA?9?$AAm?$AAs?$AA?9?$AAw?$AAi?$AAn?$AA?9?$AAc?$AAo?$AAr?$AAe@ 0000000140073350     libucrt:winapi_thunks.obj
 0002:000063b0       ??_C@_1FK@FPHCKFIE@?$AAa?$AAp?$AAi?$AA?9?$AAm?$AAs?$AA?9?$AAw?$AAi?$AAn?$AA?9?$AAc?$AAo?$AAr?$AAe@ 00000001400733b0     libucrt:winapi_thunks.obj
 0002:00006420       ??_C@_1EM@DILCGIIO@?$AAa?$AAp?$AAi?$AA?9?$AAm?$AAs?$AA?9?$AAw?$AAi?$AAn?$AA?9?$AAc?$AAo?$AAr?$AAe@ 0000000140073420     libucrt:winapi_thunks.obj
 0002:00006480       ??_C@_1DM@LNCGDDPN@?$AAa?$AAp?$AAi?$AA?9?$AAm?$AAs?$AA?9?$AAw?$AAi?$AAn?$AA?9?$AAc?$AAo?$AAr?$AAe@ 0000000140073480     libucrt:winapi_thunks.obj
 0002:000064c8       ??_C@_1DO@FPAPJEMD@?$AAa?$AAp?$AAi?$AA?9?$AAm?$AAs?$AA?9?$AAw?$AAi?$AAn?$AA?9?$AAc?$AAo?$AAr?$AAe@ 00000001400734c8     libucrt:winapi_thunks.obj
 0002:00006518       ??_C@_1DK@NDHNAHIO@?$AAa?$AAp?$AAi?$AA?9?$AAm?$AAs?$AA?9?$AAw?$AAi?$AAn?$AA?9?$AAc?$AAo?$AAr?$AAe@ 0000000140073518     libucrt:winapi_thunks.obj
 0002:00006560       ??_C@_1DM@KGHDGBCM@?$AAa?$AAp?$AAi?$AA?9?$AAm?$AAs?$AA?9?$AAw?$AAi?$AAn?$AA?9?$AAc?$AAo?$AAr?$AAe@ 0000000140073560     libucrt:winapi_thunks.obj
 0002:000065b0       ??_C@_1EO@IJIOEFOH@?$AAa?$AAp?$AAi?$AA?9?$AAm?$AAs?$AA?9?$AAw?$AAi?$AAn?$AA?9?$AAr?$AAt?$AAc?$AAo@ 00000001400735b0     libucrt:winapi_thunks.obj
 0002:00006610       ??_C@_1FG@HHGEKANL@?$AAa?$AAp?$AAi?$AA?9?$AAm?$AAs?$AA?9?$AAw?$AAi?$AAn?$AA?9?$AAs?$AAe?$AAc?$AAu@ 0000000140073610     libucrt:winapi_thunks.obj
 0002:00006680       ??_C@_1EG@DBIOJECG@?$AAe?$AAx?$AAt?$AA?9?$AAm?$AAs?$AA?9?$AAw?$AAi?$AAn?$AA?9?$AAn?$AAt?$AAu?$AAs@ 0000000140073680     libucrt:winapi_thunks.obj
 0002:000066e0       ??_C@_1EO@FIHMJCLF@?$AAe?$AAx?$AAt?$AA?9?$AAm?$AAs?$AA?9?$AAw?$AAi?$AAn?$AA?9?$AAn?$AAt?$AAu?$AAs@ 00000001400736e0     libucrt:winapi_thunks.obj
 0002:00006740       ??_C@_1BC@DNHGCMLG@?$AAa?$AAd?$AAv?$AAa?$AAp?$AAi?$AA3?$AA2@ 0000000140073740     libucrt:winapi_thunks.obj
 0002:00006758       ??_C@_1M@OAIMIKLP@?$AAn?$AAt?$AAd?$AAl?$AAl@ 0000000140073758     libucrt:winapi_thunks.obj
 0002:00006770       ??_C@_1EG@DPGNFKGC@?$AAa?$AAp?$AAi?$AA?9?$AAm?$AAs?$AA?9?$AAw?$AAi?$AAn?$AA?9?$AAa?$AAp?$AAp?$AAm@ 0000000140073770     libucrt:winapi_thunks.obj
 0002:000067c8       ??_C@_1O@BCCLBEOE@?$AAu?$AAs?$AAe?$AAr?$AA3?$AA2@ 00000001400737c8     libucrt:winapi_thunks.obj
 0002:000067d8       ??_C@_1BA@IAIFMGEF@?$AAe?$AAx?$AAt?$AA?9?$AAm?$AAs?$AA?9@ 00000001400737d8     libucrt:winapi_thunks.obj
 0002:000067f0       ??_C@_0BA@FHFNEAED@AreFileApisANSI@ 00000001400737f0     libucrt:winapi_thunks.obj
 0002:00006818       ??_C@_0BA@IHGNDAEB@CompareStringEx@ 0000000140073818     libucrt:winapi_thunks.obj
 0002:00006840       ??_C@_0BE@LJANKFHF@EnumSystemLocalesEx@ 0000000140073840     libucrt:winapi_thunks.obj
 0002:000068a8       ??_C@_0BA@HNOPNCHB@GetActiveWindow@ 00000001400738a8     libucrt:winapi_thunks.obj
 0002:000068d0       ??_C@_0BA@EPCJIIPD@GetDateFormatEx@ 00000001400738d0     libucrt:winapi_thunks.obj
 0002:000068f8       ??_C@_0BJ@DIBIJBHA@GetEnabledXStateFeatures@ 00000001400738f8     libucrt:winapi_thunks.obj
 0002:00006928       ??_C@_0BD@HHGDFDBJ@GetLastActivePopup@ 0000000140073928     libucrt:winapi_thunks.obj
 0002:00006950       ??_C@_0BA@ONOKGCMP@GetLocaleInfoEx@ 0000000140073950     libucrt:winapi_thunks.obj
 0002:00006978       ??_C@_0BI@DFKBFLJE@GetProcessWindowStation@ 0000000140073978     libucrt:winapi_thunks.obj
 0002:00006998       ??_C@_0BP@FPNJPEJC@GetSystemTimePreciseAsFileTime@ 0000000140073998     libucrt:winapi_thunks.obj
 0002:000069d0       ??_C@_0BA@CIJJKCJJ@GetTimeFormatEx@ 00000001400739d0     libucrt:winapi_thunks.obj
 0002:000069f8       ??_C@_0BJ@PBCCBIPI@GetUserDefaultLocaleName@ 00000001400739f8     libucrt:winapi_thunks.obj
 0002:00006a28       ??_C@_0BK@DEKFELLI@GetUserObjectInformationW@ 0000000140073a28     libucrt:winapi_thunks.obj
 0002:00006a58       ??_C@_0BG@IKLDMBLM@GetXStateFeaturesMask@ 0000000140073a58     libucrt:winapi_thunks.obj
 0002:00006a98       ??_C@_0BC@CELBKLLA@IsValidLocaleName@ 0000000140073a98     libucrt:winapi_thunks.obj
 0002:00006ac0       ??_C@_0O@KKBNKAPF@LCMapStringEx@ 0000000140073ac0     libucrt:winapi_thunks.obj
 0002:00006ae0       ??_C@_0BB@CDHDDLLP@LCIDToLocaleName@ 0000000140073ae0     libucrt:winapi_thunks.obj
 0002:00006b08       ??_C@_0BB@HBDEELFH@LocaleNameToLCID@ 0000000140073b08     libucrt:winapi_thunks.obj
 0002:00006b30       ??_C@_0BE@KINNKFDA@LocateXStateFeature@ 0000000140073b30     libucrt:winapi_thunks.obj
 0002:00006b58       ??_C@_0M@CHKKJDAI@MessageBoxA@ 0000000140073b58     libucrt:winapi_thunks.obj
 0002:00006b78       ??_C@_0M@DLDCCGNP@MessageBoxW@ 0000000140073b78     libucrt:winapi_thunks.obj
 0002:00006b90       ??_C@_0N@PPOMPGGK@RoInitialize@ 0000000140073b90     libucrt:winapi_thunks.obj
 0002:00006ba8       ??_C@_0P@LLFHBIJD@RoUninitialize@ 0000000140073ba8     libucrt:winapi_thunks.obj
 0002:00006bc0       ??_C@_0CF@OJOFEIGO@AppPolicyGetProcessTerminationM@ 0000000140073bc0     libucrt:winapi_thunks.obj
 0002:00006bf0       ??_C@_0CF@NNDFDCOC@AppPolicyGetThreadInitializatio@ 0000000140073bf0     libucrt:winapi_thunks.obj
 0002:00006c20       ??_C@_0CE@OICFMIKE@AppPolicyGetShowDeveloperDiagno@ 0000000140073c20     libucrt:winapi_thunks.obj
 0002:00006c50       ??_C@_0BL@ODDJNEDA@AppPolicyGetWindowingModel@ 0000000140073c50     libucrt:winapi_thunks.obj
 0002:00006c80       ??_C@_0BI@BKLFFAPO@SetThreadStackGuarantee@ 0000000140073c80     libucrt:winapi_thunks.obj
 0002:00006cb0       ??_C@_0BC@JEAENNKH@SystemFunction036@ 0000000140073cb0     libucrt:winapi_thunks.obj
 0002:00006d6c       ??_C@_03OEIAHPBN@INF@      0000000140073d6c     libucrt:cvt.obj
 0002:00006d70       ??_C@_03OJHLLCGB@inf@      0000000140073d70     libucrt:cvt.obj
 0002:00006d74       ??_C@_03LKNCIKJB@NAN@      0000000140073d74     libucrt:cvt.obj
 0002:00006d78       ??_C@_03LHCJEHON@nan@      0000000140073d78     libucrt:cvt.obj
 0002:00006d80       ??_C@_09OFJJIMPC@NAN?$CISNAN?$CJ@ 0000000140073d80     libucrt:cvt.obj
 0002:00006d90       ??_C@_09IPFBKMDL@nan?$CIsnan?$CJ@ 0000000140073d90     libucrt:cvt.obj
 0002:00006da0       ??_C@_08IKHNHAJ@NAN?$CIIND?$CJ@ 0000000140073da0     libucrt:cvt.obj
 0002:00006db0       ??_C@_08OFCDMILK@nan?$CIind?$CJ@ 0000000140073db0     libucrt:cvt.obj
 0002:00006dbc       ??_C@_05KLBDPFGC@e?$CL000@ 0000000140073dbc     libucrt:cvt.obj
 0002:00007eec       ??_C@_15EMKDOKLE@?$AAa?$AAr@ 0000000140074eec     libucrt:lcidtoname_downlevel.obj
 0002:00007ef4       ??_C@_15KNPADPLH@?$AAb?$AAg@ 0000000140074ef4     libucrt:lcidtoname_downlevel.obj
 0002:00007efc       ??_C@_15EDMHLDMO@?$AAc?$AAa@ 0000000140074efc     libucrt:lcidtoname_downlevel.obj
 0002:00007f08       ??_C@_1O@BPEAJADD@?$AAz?$AAh?$AA?9?$AAC?$AAH?$AAS@ 0000000140074f08     libucrt:lcidtoname_downlevel.obj
 0002:00007f18       ??_C@_15LJNHCMNK@?$AAc?$AAs@ 0000000140074f18     libucrt:lcidtoname_downlevel.obj
 0002:00007f20       ??_C@_15FOMCIDHG@?$AAd?$AAa@ 0000000140074f20     libucrt:lcidtoname_downlevel.obj
 0002:00007f28       ??_C@_15NBKABECB@?$AAd?$AAe@ 0000000140074f28     libucrt:lcidtoname_downlevel.obj
 0002:00007f30       ??_C@_15GHPEIIAO@?$AAe?$AAl@ 0000000140074f30     libucrt:lcidtoname_downlevel.obj
 0002:00007f38       ??_C@_15MNPNEAIF@?$AAe?$AAn@ 0000000140074f38     libucrt:lcidtoname_downlevel.obj
 0002:00007f40       ??_C@_15GPIOMPMH@?$AAe?$AAs@ 0000000140074f40     libucrt:lcidtoname_downlevel.obj
 0002:00007f48       ??_C@_15NGLOAKJC@?$AAf?$AAi@ 0000000140074f48     libucrt:lcidtoname_downlevel.obj
 0002:00007f50       ??_C@_15FBKGNKAM@?$AAf?$AAr@ 0000000140074f50     libucrt:lcidtoname_downlevel.obj
 0002:00007f58       ??_C@_15KGGCNEFK@?$AAh?$AAe@ 0000000140074f58     libucrt:lcidtoname_downlevel.obj
 0002:00007f60       ??_C@_15PGHLIDMF@?$AAh?$AAu@ 0000000140074f60     libucrt:lcidtoname_downlevel.obj
 0002:00007f68       ??_C@_15BIEMAPLM@?$AAi?$AAs@ 0000000140074f68     libucrt:lcidtoname_downlevel.obj
 0002:00007f70       ??_C@_15IFJLDHAF@?$AAi?$AAt@ 0000000140074f70     libucrt:lcidtoname_downlevel.obj
 0002:00007f78       ??_C@_15GEMIOCAG@?$AAj?$AAa@ 0000000140074f78     libucrt:lcidtoname_downlevel.obj
 0002:00007f80       ??_C@_15EPELEGJA@?$AAk?$AAo@ 0000000140074f80     libucrt:lcidtoname_downlevel.obj
 0002:00007f88       ??_C@_15NDDHIMN@?$AAn?$AAl@ 0000000140074f88     libucrt:lcidtoname_downlevel.obj
 0002:00007f90       ??_C@_15BPIGNHCD@?$AAn?$AAo@ 0000000140074f90     libucrt:lcidtoname_downlevel.obj
 0002:00007f98       ??_C@_15DEOPBLCG@?$AAp?$AAl@ 0000000140074f98     libucrt:lcidtoname_downlevel.obj
 0002:00007fa0       ??_C@_15KBECGEFG@?$AAp?$AAt@ 0000000140074fa0     libucrt:lcidtoname_downlevel.obj
 0002:00007fa8       ??_C@_15GLJCBFMD@?$AAr?$AAo@ 0000000140074fa8     libucrt:lcidtoname_downlevel.obj
 0002:00007fb0       ??_C@_15FEDGKCDI@?$AAr?$AAu@ 0000000140074fb0     libucrt:lcidtoname_downlevel.obj
 0002:00007fb8       ??_C@_15GLKMLLHM@?$AAh?$AAr@ 0000000140074fb8     libucrt:lcidtoname_downlevel.obj
 0002:00007fc0       ??_C@_15CPKMFBDB@?$AAs?$AAk@ 0000000140074fc0     libucrt:lcidtoname_downlevel.obj
 0002:00007fc8       ??_C@_15BAAIOGMK@?$AAs?$AAq@ 0000000140074fc8     libucrt:lcidtoname_downlevel.obj
 0002:00007fd0       ??_C@_15INNPNOHD@?$AAs?$AAv@ 0000000140074fd0     libucrt:lcidtoname_downlevel.obj
 0002:00007fd8       ??_C@_15CABMMOGH@?$AAt?$AAh@ 0000000140074fd8     libucrt:lcidtoname_downlevel.obj
 0002:00007fe0       ??_C@_15BPLIHJJM@?$AAt?$AAr@ 0000000140074fe0     libucrt:lcidtoname_downlevel.obj
 0002:00007fe8       ??_C@_15NEOEKKDJ@?$AAu?$AAr@ 0000000140074fe8     libucrt:lcidtoname_downlevel.obj
 0002:00007ff0       ??_C@_15NFICGAJK@?$AAi?$AAd@ 0000000140074ff0     libucrt:lcidtoname_downlevel.obj
 0002:00007ff8       ??_C@_15HPJPHDM@?$AAb?$AAe@ 0000000140074ff8     libucrt:lcidtoname_downlevel.obj
 0002:00008000       ??_C@_15LCHLGJII@?$AAs?$AAl@ 0000000140075000     libucrt:lcidtoname_downlevel.obj
 0002:00008008       ??_C@_15PCFJPHHO@?$AAe?$AAt@ 0000000140075008     libucrt:lcidtoname_downlevel.obj
 0002:00008010       ??_C@_15HPFPGODN@?$AAl?$AAv@ 0000000140075010     libucrt:lcidtoname_downlevel.obj
 0002:00008018       ??_C@_15NFFGKGLG@?$AAl?$AAt@ 0000000140075018     libucrt:lcidtoname_downlevel.obj
 0002:00008020       ??_C@_15BDAKCCHN@?$AAf?$AAa@ 0000000140075020     libucrt:lcidtoname_downlevel.obj
 0002:00008028       ??_C@_15NFGIAIAJ@?$AAv?$AAi@ 0000000140075028     libucrt:lcidtoname_downlevel.obj
 0002:00008030       ??_C@_15LMKNDMHN@?$AAh?$AAy@ 0000000140075030     libucrt:lcidtoname_downlevel.obj
 0002:00008038       ??_C@_15IJBHMCFL@?$AAa?$AAz@ 0000000140075038     libucrt:lcidtoname_downlevel.obj
 0002:00008040       ??_C@_15EKOFJABL@?$AAe?$AAu@ 0000000140075040     libucrt:lcidtoname_downlevel.obj
 0002:00008048       ??_C@_15BGHADCNK@?$AAm?$AAk@ 0000000140075048     libucrt:lcidtoname_downlevel.obj
 0002:00008050       ??_C@_15JDNICKHM@?$AAa?$AAf@ 0000000140075050     libucrt:lcidtoname_downlevel.obj
 0002:00008058       ??_C@_15KPJEDBKD@?$AAk?$AAa@ 0000000140075058     libucrt:lcidtoname_downlevel.obj
 0002:00008060       ??_C@_15PDNFFFEO@?$AAf?$AAo@ 0000000140075060     libucrt:lcidtoname_downlevel.obj
 0002:00008068       ??_C@_15OMLEGLOC@?$AAh?$AAi@ 0000000140075068     libucrt:lcidtoname_downlevel.obj
 0002:00008070       ??_C@_15IDNNENKK@?$AAm?$AAs@ 0000000140075070     libucrt:lcidtoname_downlevel.obj
 0002:00008078       ??_C@_15MACJNBMH@?$AAk?$AAk@ 0000000140075078     libucrt:lcidtoname_downlevel.obj
 0002:00008080       ??_C@_15DKDJEOND@?$AAk?$AAy@ 0000000140075080     libucrt:lcidtoname_downlevel.obj
 0002:00008088       ??_C@_15DFGDLJBG@?$AAs?$AAw@ 0000000140075088     libucrt:lcidtoname_downlevel.obj
 0002:00008090       ??_C@_15BBFAICNG@?$AAu?$AAz@ 0000000140075090     libucrt:lcidtoname_downlevel.obj
 0002:00008098       ??_C@_15DKNDCGEA@?$AAt?$AAt@ 0000000140075098     libucrt:lcidtoname_downlevel.obj
 0002:000080a0       ??_C@_15MGIFMDPL@?$AAp?$AAa@ 00000001400750a0     libucrt:lcidtoname_downlevel.obj
 0002:000080a8       ??_C@_15HCNDBBA@?$AAg?$AAu@ 00000001400750a8     libucrt:lcidtoname_downlevel.obj
 0002:000080b0       ??_C@_15FNBEIBON@?$AAt?$AAa@ 00000001400750b0     libucrt:lcidtoname_downlevel.obj
 0002:000080b8       ??_C@_15NCHGBGLK@?$AAt?$AAe@ 00000001400750b8     libucrt:lcidtoname_downlevel.obj
 0002:000080c0       ??_C@_15PHPHCBPF@?$AAk?$AAn@ 00000001400750c0     libucrt:lcidtoname_downlevel.obj
 0002:000080c8       ??_C@_15DLGBCKMP@?$AAm?$AAr@ 00000001400750c8     libucrt:lcidtoname_downlevel.obj
 0002:000080d0       ??_C@_15EABBLBFF@?$AAs?$AAa@ 00000001400750d0     libucrt:lcidtoname_downlevel.obj
 0002:000080d8       ??_C@_15CBKOMCOI@?$AAm?$AAn@ 00000001400750d8     libucrt:lcidtoname_downlevel.obj
 0002:000080e0       ??_C@_15CKDMCJAF@?$AAg?$AAl@ 00000001400750e0     libucrt:lcidtoname_downlevel.obj
 0002:000080e8       ??_C@_17CNJFBPG@?$AAk?$AAo?$AAk@ 00000001400750e8     libucrt:lcidtoname_downlevel.obj
 0002:000080f8       ??_C@_17FFBJICPL@?$AAs?$AAy?$AAr@ 00000001400750f8     libucrt:lcidtoname_downlevel.obj
 0002:00008108       ??_C@_17KPNDCPAF@?$AAd?$AAi?$AAv@ 0000000140075108     libucrt:lcidtoname_downlevel.obj
 0002:00008114       ??_C@_11LOCGONAA@@         0000000140075114     libucrt:lcidtoname_downlevel.obj
 0002:00008118       ??_C@_1M@OKAHONE@?$AAa?$AAr?$AA?9?$AAS?$AAA@ 0000000140075118     libucrt:lcidtoname_downlevel.obj
 0002:00008128       ??_C@_1M@FFFIGIGK@?$AAb?$AAg?$AA?9?$AAB?$AAG@ 0000000140075128     libucrt:lcidtoname_downlevel.obj
 0002:00008138       ??_C@_1M@BJNKEDC@?$AAc?$AAa?$AA?9?$AAE?$AAS@ 0000000140075138     libucrt:lcidtoname_downlevel.obj
 0002:00008148       ??_C@_1M@IJJHFJHA@?$AAc?$AAs?$AA?9?$AAC?$AAZ@ 0000000140075148     libucrt:lcidtoname_downlevel.obj
 0002:00008158       ??_C@_1M@CLPEOBGI@?$AAd?$AAa?$AA?9?$AAD?$AAK@ 0000000140075158     libucrt:lcidtoname_downlevel.obj
 0002:00008168       ??_C@_1M@MCMADGCB@?$AAd?$AAe?$AA?9?$AAD?$AAE@ 0000000140075168     libucrt:lcidtoname_downlevel.obj
 0002:00008178       ??_C@_1M@OOCKEMAM@?$AAe?$AAl?$AA?9?$AAG?$AAR@ 0000000140075178     libucrt:lcidtoname_downlevel.obj
 0002:00008188       ??_C@_1M@DDNJFGID@?$AAf?$AAi?$AA?9?$AAF?$AAI@ 0000000140075188     libucrt:lcidtoname_downlevel.obj
 0002:00008198       ??_C@_1M@GLIPPMAC@?$AAf?$AAr?$AA?9?$AAF?$AAR@ 0000000140075198     libucrt:lcidtoname_downlevel.obj
 0002:000081a8       ??_C@_1M@GFMCHPE@?$AAh?$AAe?$AA?9?$AAI?$AAL@ 00000001400751a8     libucrt:lcidtoname_downlevel.obj
 0002:000081b8       ??_C@_1M@MHLPGNKM@?$AAh?$AAu?$AA?9?$AAH?$AAU@ 00000001400751b8     libucrt:lcidtoname_downlevel.obj
 0002:000081c8       ??_C@_1M@LPDDNNPN@?$AAi?$AAs?$AA?9?$AAI?$AAS@ 00000001400751c8     libucrt:lcidtoname_downlevel.obj
 0002:000081d8       ??_C@_1M@MADIPODN@?$AAi?$AAt?$AA?9?$AAI?$AAT@ 00000001400751d8     libucrt:lcidtoname_downlevel.obj
 0002:000081e8       ??_C@_1M@IHBJJGG@?$AAn?$AAl?$AA?9?$AAN?$AAL@ 00000001400751e8     libucrt:lcidtoname_downlevel.obj
 0002:000081f8       ??_C@_1M@EANAGDL@?$AAn?$AAb?$AA?9?$AAN?$AAO@ 00000001400751f8     libucrt:lcidtoname_downlevel.obj
 0002:00008208       ??_C@_1M@NEIEMEGP@?$AAp?$AAl?$AA?9?$AAP?$AAL@ 0000000140075208     libucrt:lcidtoname_downlevel.obj
 0002:00008218       ??_C@_1M@BOCFIGEP@?$AAp?$AAt?$AA?9?$AAB?$AAR@ 0000000140075218     libucrt:lcidtoname_downlevel.obj
 0002:00008228       ??_C@_1M@IMPFOPBG@?$AAr?$AAo?$AA?9?$AAR?$AAO@ 0000000140075228     libucrt:lcidtoname_downlevel.obj
 0002:00008238       ??_C@_1M@IDNNEJMM@?$AAr?$AAu?$AA?9?$AAR?$AAU@ 0000000140075238     libucrt:lcidtoname_downlevel.obj
 0002:00008248       ??_C@_1M@LILEEOGM@?$AAh?$AAr?$AA?9?$AAH?$AAR@ 0000000140075248     libucrt:lcidtoname_downlevel.obj
 0002:00008258       ??_C@_1M@FKIFEHPB@?$AAs?$AAk?$AA?9?$AAS?$AAK@ 0000000140075258     libucrt:lcidtoname_downlevel.obj
 0002:00008268       ??_C@_1M@LJMAMNPJ@?$AAs?$AAq?$AA?9?$AAA?$AAL@ 0000000140075268     libucrt:lcidtoname_downlevel.obj
 0002:00008278       ??_C@_1M@GIAKDKJK@?$AAs?$AAv?$AA?9?$AAS?$AAE@ 0000000140075278     libucrt:lcidtoname_downlevel.obj
 0002:00008288       ??_C@_1M@MKJKIKCL@?$AAt?$AAh?$AA?9?$AAT?$AAH@ 0000000140075288     libucrt:lcidtoname_downlevel.obj
 0002:00008298       ??_C@_1M@MFLCCMPB@?$AAt?$AAr?$AA?9?$AAT?$AAR@ 0000000140075298     libucrt:lcidtoname_downlevel.obj
 0002:000082a8       ??_C@_1M@OIJHDKJN@?$AAu?$AAr?$AA?9?$AAP?$AAK@ 00000001400752a8     libucrt:lcidtoname_downlevel.obj
 0002:000082b8       ??_C@_1M@LHIPCIEK@?$AAi?$AAd?$AA?9?$AAI?$AAD@ 00000001400752b8     libucrt:lcidtoname_downlevel.obj
 0002:000082c8       ??_C@_1M@MFMOBGI@?$AAu?$AAk?$AA?9?$AAU?$AAA@ 00000001400752c8     libucrt:lcidtoname_downlevel.obj
 0002:000082d8       ??_C@_1M@OBGLJIPL@?$AAb?$AAe?$AA?9?$AAB?$AAY@ 00000001400752d8     libucrt:lcidtoname_downlevel.obj
 0002:000082e8       ??_C@_1M@BCFAJEAD@?$AAs?$AAl?$AA?9?$AAS?$AAI@ 00000001400752e8     libucrt:lcidtoname_downlevel.obj
 0002:000082f8       ??_C@_1M@FKFFEDDN@?$AAe?$AAt?$AA?9?$AAE?$AAE@ 00000001400752f8     libucrt:lcidtoname_downlevel.obj
 0002:00008308       ??_C@_1M@KGKKAACI@?$AAl?$AAv?$AA?9?$AAL?$AAV@ 0000000140075308     libucrt:lcidtoname_downlevel.obj
 0002:00008318       ??_C@_1M@IFGBIJO@?$AAl?$AAt?$AA?9?$AAL?$AAT@ 0000000140075318     libucrt:lcidtoname_downlevel.obj
 0002:00008328       ??_C@_1M@FGEAHEDM@?$AAf?$AAa?$AA?9?$AAI?$AAR@ 0000000140075328     libucrt:lcidtoname_downlevel.obj
 0002:00008338       ??_C@_1M@KBMAIBFN@?$AAv?$AAi?$AA?9?$AAV?$AAN@ 0000000140075338     libucrt:lcidtoname_downlevel.obj
 0002:00008348       ??_C@_1M@GPCBKDJK@?$AAh?$AAy?$AA?9?$AAA?$AAM@ 0000000140075348     libucrt:lcidtoname_downlevel.obj
 0002:00008358       ??_C@_1BG@BECMDDJB@?$AAa?$AAz?$AA?9?$AAA?$AAZ?$AA?9?$AAL?$AAa?$AAt?$AAn@ 0000000140075358     libucrt:lcidtoname_downlevel.obj
 0002:00008378       ??_C@_1M@MAOFCAEA@?$AAe?$AAu?$AA?9?$AAE?$AAS@ 0000000140075378     libucrt:lcidtoname_downlevel.obj
 0002:00008388       ??_C@_1M@IGHABKPI@?$AAm?$AAk?$AA?9?$AAM?$AAK@ 0000000140075388     libucrt:lcidtoname_downlevel.obj
 0002:00008398       ??_C@_1M@IAIGNEJG@?$AAt?$AAn?$AA?9?$AAZ?$AAA@ 0000000140075398     libucrt:lcidtoname_downlevel.obj
 0002:000083a8       ??_C@_1M@IIJCOJFA@?$AAx?$AAh?$AA?9?$AAZ?$AAA@ 00000001400753a8     libucrt:lcidtoname_downlevel.obj
 0002:000083b8       ??_C@_1M@LGPJHNJH@?$AAz?$AAu?$AA?9?$AAZ?$AAA@ 00000001400753b8     libucrt:lcidtoname_downlevel.obj
 0002:000083c8       ??_C@_1M@HOKAOIO@?$AAa?$AAf?$AA?9?$AAZ?$AAA@ 00000001400753c8     libucrt:lcidtoname_downlevel.obj
 0002:000083d8       ??_C@_1M@DPCLHLIE@?$AAk?$AAa?$AA?9?$AAG?$AAE@ 00000001400753d8     libucrt:lcidtoname_downlevel.obj
 0002:000083e8       ??_C@_1M@BLKMHJBI@?$AAf?$AAo?$AA?9?$AAF?$AAO@ 00000001400753e8     libucrt:lcidtoname_downlevel.obj
 0002:000083f8       ??_C@_1M@LGGJAPPB@?$AAh?$AAi?$AA?9?$AAI?$AAN@ 00000001400753f8     libucrt:lcidtoname_downlevel.obj
 0002:00008408       ??_C@_1M@FIKPIHFE@?$AAm?$AAt?$AA?9?$AAM?$AAT@ 0000000140075408     libucrt:lcidtoname_downlevel.obj
 0002:00008418       ??_C@_1M@HEGGPBFA@?$AAs?$AAe?$AA?9?$AAN?$AAO@ 0000000140075418     libucrt:lcidtoname_downlevel.obj
 0002:00008428       ??_C@_1M@EIBJEEPA@?$AAm?$AAs?$AA?9?$AAM?$AAY@ 0000000140075428     libucrt:lcidtoname_downlevel.obj
 0002:00008438       ??_C@_1M@FHLBGMPP@?$AAk?$AAk?$AA?9?$AAK?$AAZ@ 0000000140075438     libucrt:lcidtoname_downlevel.obj
 0002:00008448       ??_C@_1M@NGJJLCGI@?$AAk?$AAy?$AA?9?$AAK?$AAG@ 0000000140075448     libucrt:lcidtoname_downlevel.obj
 0002:00008458       ??_C@_1M@GIENNBFC@?$AAs?$AAw?$AA?9?$AAK?$AAE@ 0000000140075458     libucrt:lcidtoname_downlevel.obj
 0002:00008468       ??_C@_1BG@NDGMJIMJ@?$AAu?$AAz?$AA?9?$AAU?$AAZ?$AA?9?$AAL?$AAa?$AAt?$AAn@ 0000000140075468     libucrt:lcidtoname_downlevel.obj
 0002:00008488       ??_C@_1M@IDCCIHBC@?$AAt?$AAt?$AA?9?$AAR?$AAU@ 0000000140075488     libucrt:lcidtoname_downlevel.obj
 0002:00008498       ??_C@_1M@LOICPMOJ@?$AAb?$AAn?$AA?9?$AAI?$AAN@ 0000000140075498     libucrt:lcidtoname_downlevel.obj
 0002:000084a8       ??_C@_1M@KPKKNEAH@?$AAp?$AAa?$AA?9?$AAI?$AAN@ 00000001400754a8     libucrt:lcidtoname_downlevel.obj
 0002:000084b8       ??_C@_1M@PJGPPBOG@?$AAg?$AAu?$AA?9?$AAI?$AAN@ 00000001400754b8     libucrt:lcidtoname_downlevel.obj
 0002:000084c8       ??_C@_1M@KMKMOPHI@?$AAt?$AAa?$AA?9?$AAI?$AAN@ 00000001400754c8     libucrt:lcidtoname_downlevel.obj
 0002:000084d8       ??_C@_1M@KFEHEPAC@?$AAt?$AAe?$AA?9?$AAI?$AAN@ 00000001400754d8     libucrt:lcidtoname_downlevel.obj
 0002:000084e8       ??_C@_1M@CDCLMGHI@?$AAk?$AAn?$AA?9?$AAI?$AAN@ 00000001400754e8     libucrt:lcidtoname_downlevel.obj
 0002:000084f8       ??_C@_1M@MIODLDKF@?$AAm?$AAl?$AA?9?$AAI?$AAN@ 00000001400754f8     libucrt:lcidtoname_downlevel.obj
 0002:00008508       ??_C@_1M@PBIEACPO@?$AAm?$AAr?$AA?9?$AAI?$AAN@ 0000000140075508     libucrt:lcidtoname_downlevel.obj
 0002:00008518       ??_C@_1M@NIDEAGPH@?$AAs?$AAa?$AA?9?$AAI?$AAN@ 0000000140075518     libucrt:lcidtoname_downlevel.obj
 0002:00008528       ??_C@_1M@FHIHCBIO@?$AAm?$AAn?$AA?9?$AAM?$AAN@ 0000000140075528     libucrt:lcidtoname_downlevel.obj
 0002:00008538       ??_C@_1M@JAIJPENP@?$AAc?$AAy?$AA?9?$AAG?$AAB@ 0000000140075538     libucrt:lcidtoname_downlevel.obj
 0002:00008548       ??_C@_1M@PHGFBEPN@?$AAg?$AAl?$AA?9?$AAE?$AAS@ 0000000140075548     libucrt:lcidtoname_downlevel.obj
 0002:00008558       ??_C@_1O@KPIPDNCP@?$AAk?$AAo?$AAk?$AA?9?$AAI?$AAN@ 0000000140075558     libucrt:lcidtoname_downlevel.obj
 0002:00008568       ??_C@_1O@KNHJLDJA@?$AAs?$AAy?$AAr?$AA?9?$AAS?$AAY@ 0000000140075568     libucrt:lcidtoname_downlevel.obj
 0002:00008578       ??_C@_1O@MKEKBLAH@?$AAd?$AAi?$AAv?$AA?9?$AAM?$AAV@ 0000000140075578     libucrt:lcidtoname_downlevel.obj
 0002:00008588       ??_C@_1O@OHDCKDDF@?$AAq?$AAu?$AAz?$AA?9?$AAB?$AAO@ 0000000140075588     libucrt:lcidtoname_downlevel.obj
 0002:00008598       ??_C@_1M@LEPJNLFD@?$AAn?$AAs?$AA?9?$AAZ?$AAA@ 0000000140075598     libucrt:lcidtoname_downlevel.obj
 0002:000085a8       ??_C@_1M@OMLEIIJB@?$AAm?$AAi?$AA?9?$AAN?$AAZ@ 00000001400755a8     libucrt:lcidtoname_downlevel.obj
 0002:000085b8       ??_C@_1M@PMPEAILG@?$AAa?$AAr?$AA?9?$AAI?$AAQ@ 00000001400755b8     libucrt:lcidtoname_downlevel.obj
 0002:000085c8       ??_C@_1M@CNKPNOEE@?$AAd?$AAe?$AA?9?$AAC?$AAH@ 00000001400755c8     libucrt:lcidtoname_downlevel.obj
 0002:000085d8       ??_C@_1M@LKMGMLKO@?$AAe?$AAn?$AA?9?$AAG?$AAB@ 00000001400755d8     libucrt:lcidtoname_downlevel.obj
 0002:000085e8       ??_C@_1M@PGKJFFGL@?$AAe?$AAs?$AA?9?$AAM?$AAX@ 00000001400755e8     libucrt:lcidtoname_downlevel.obj
 0002:000085f8       ??_C@_1M@DNNANBDC@?$AAf?$AAr?$AA?9?$AAB?$AAE@ 00000001400755f8     libucrt:lcidtoname_downlevel.obj
 0002:00008608       ??_C@_1M@HLGMDFHM@?$AAi?$AAt?$AA?9?$AAC?$AAH@ 0000000140075608     libucrt:lcidtoname_downlevel.obj
 0002:00008618       ??_C@_1M@CLLBGJH@?$AAn?$AAl?$AA?9?$AAB?$AAE@ 0000000140075618     libucrt:lcidtoname_downlevel.obj
 0002:00008628       ??_C@_1M@BODBOGLF@?$AAn?$AAn?$AA?9?$AAN?$AAO@ 0000000140075628     libucrt:lcidtoname_downlevel.obj
 0002:00008638       ??_C@_1M@HFFAHKAD@?$AAp?$AAt?$AA?9?$AAP?$AAT@ 0000000140075638     libucrt:lcidtoname_downlevel.obj
 0002:00008648       ??_C@_1BG@LNOAKHIE@?$AAs?$AAr?$AA?9?$AAS?$AAP?$AA?9?$AAL?$AAa?$AAt?$AAn@ 0000000140075648     libucrt:lcidtoname_downlevel.obj
 0002:00008668       ??_C@_1M@HBMHBGAK@?$AAs?$AAv?$AA?9?$AAF?$AAI@ 0000000140075668     libucrt:lcidtoname_downlevel.obj
 0002:00008678       ??_C@_1BG@DGCJGJBE@?$AAa?$AAz?$AA?9?$AAA?$AAZ?$AA?9?$AAC?$AAy?$AAr?$AAl@ 0000000140075678     libucrt:lcidtoname_downlevel.obj
 0002:00008698       ??_C@_1M@KEJDAAHB@?$AAs?$AAe?$AA?9?$AAS?$AAE@ 0000000140075698     libucrt:lcidtoname_downlevel.obj
 0002:000086a8       ??_C@_1M@HEIBJJAD@?$AAm?$AAs?$AA?9?$AAB?$AAN@ 00000001400756a8     libucrt:lcidtoname_downlevel.obj
 0002:000086b8       ??_C@_1BG@PBGJMCEM@?$AAu?$AAz?$AA?9?$AAU?$AAZ?$AA?9?$AAC?$AAy?$AAr?$AAl@ 00000001400756b8     libucrt:lcidtoname_downlevel.obj
 0002:000086d8       ??_C@_1O@LAOBCMDF@?$AAq?$AAu?$AAz?$AA?9?$AAE?$AAC@ 00000001400756d8     libucrt:lcidtoname_downlevel.obj
 0002:000086e8       ??_C@_1M@POEEMAIO@?$AAa?$AAr?$AA?9?$AAE?$AAG@ 00000001400756e8     libucrt:lcidtoname_downlevel.obj
 0002:000086f8       ??_C@_1M@EFAKDEDL@?$AAz?$AAh?$AA?9?$AAH?$AAK@ 00000001400756f8     libucrt:lcidtoname_downlevel.obj
 0002:00008708       ??_C@_1M@HKKIJHGI@?$AAd?$AAe?$AA?9?$AAA?$AAT@ 0000000140075708     libucrt:lcidtoname_downlevel.obj
 0002:00008718       ??_C@_1M@KBFBEHJF@?$AAe?$AAn?$AA?9?$AAA?$AAU@ 0000000140075718     libucrt:lcidtoname_downlevel.obj
 0002:00008728       ??_C@_1M@MNPLFAAH@?$AAe?$AAs?$AA?9?$AAE?$AAS@ 0000000140075728     libucrt:lcidtoname_downlevel.obj
 0002:00008738       ??_C@_1M@HJOOJFMA@?$AAf?$AAr?$AA?9?$AAC?$AAA@ 0000000140075738     libucrt:lcidtoname_downlevel.obj
 0002:00008748       ??_C@_1BG@JPOFPNAB@?$AAs?$AAr?$AA?9?$AAS?$AAP?$AA?9?$AAC?$AAy?$AAr?$AAl@ 0000000140075748     libucrt:lcidtoname_downlevel.obj
 0002:00008768       ??_C@_1M@LNFOCMOB@?$AAs?$AAe?$AA?9?$AAF?$AAI@ 0000000140075768     libucrt:lcidtoname_downlevel.obj
 0002:00008778       ??_C@_1O@MGJBOAMB@?$AAq?$AAu?$AAz?$AA?9?$AAP?$AAE@ 0000000140075778     libucrt:lcidtoname_downlevel.obj
 0002:00008788       ??_C@_1M@GJINLBOK@?$AAa?$AAr?$AA?9?$AAL?$AAY@ 0000000140075788     libucrt:lcidtoname_downlevel.obj
 0002:00008798       ??_C@_1M@GGMNHJNL@?$AAz?$AAh?$AA?9?$AAS?$AAG@ 0000000140075798     libucrt:lcidtoname_downlevel.obj
 0002:000087a8       ??_C@_1M@HOIKODND@?$AAd?$AAe?$AA?9?$AAL?$AAU@ 00000001400757a8     libucrt:lcidtoname_downlevel.obj
 0002:000087b8       ??_C@_1M@DDOCCGFG@?$AAe?$AAn?$AA?9?$AAC?$AAA@ 00000001400757b8     libucrt:lcidtoname_downlevel.obj
 0002:000087c8       ??_C@_1M@BNOEMJLF@?$AAe?$AAs?$AA?9?$AAG?$AAT@ 00000001400757c8     libucrt:lcidtoname_downlevel.obj
 0002:000087d8       ??_C@_1M@EOGNKEK@?$AAf?$AAr?$AA?9?$AAC?$AAH@ 00000001400757d8     libucrt:lcidtoname_downlevel.obj
 0002:000087e8       ??_C@_1M@FLIDJFHL@?$AAh?$AAr?$AA?9?$AAB?$AAA@ 00000001400757e8     libucrt:lcidtoname_downlevel.obj
 0002:000087f8       ??_C@_1O@FMCELNAJ@?$AAs?$AAm?$AAj?$AA?9?$AAN?$AAO@ 00000001400757f8     libucrt:lcidtoname_downlevel.obj
 0002:00008808       ??_C@_1M@JHGLJMGJ@?$AAa?$AAr?$AA?9?$AAD?$AAZ@ 0000000140075808     libucrt:lcidtoname_downlevel.obj
 0002:00008818       ??_C@_1M@JKKFDCNP@?$AAz?$AAh?$AA?9?$AAM?$AAO@ 0000000140075818     libucrt:lcidtoname_downlevel.obj
 0002:00008828       ??_C@_1M@GEEFALPE@?$AAd?$AAe?$AA?9?$AAL?$AAI@ 0000000140075828     libucrt:lcidtoname_downlevel.obj
 0002:00008838       ??_C@_1M@IGEOFBG@?$AAe?$AAn?$AA?9?$AAN?$AAZ@ 0000000140075838     libucrt:lcidtoname_downlevel.obj
 0002:00008848       ??_C@_1M@KDBONEHP@?$AAe?$AAs?$AA?9?$AAC?$AAR@ 0000000140075848     libucrt:lcidtoname_downlevel.obj
 0002:00008858       ??_C@_1M@FHMDOHNN@?$AAf?$AAr?$AA?9?$AAL?$AAU@ 0000000140075858     libucrt:lcidtoname_downlevel.obj
 0002:00008868       ??_C@_1BG@NFKKMAFG@?$AAb?$AAs?$AA?9?$AAB?$AAA?$AA?9?$AAL?$AAa?$AAt?$AAn@ 0000000140075868     libucrt:lcidtoname_downlevel.obj
 0002:00008888       ??_C@_1O@IMNBEMCI@?$AAs?$AAm?$AAj?$AA?9?$AAS?$AAE@ 0000000140075888     libucrt:lcidtoname_downlevel.obj
 0002:00008898       ??_C@_1M@DHHMBNDP@?$AAa?$AAr?$AA?9?$AAM?$AAA@ 0000000140075898     libucrt:lcidtoname_downlevel.obj
 0002:000088a8       ??_C@_1M@BNBLJCGH@?$AAe?$AAn?$AA?9?$AAI?$AAE@ 00000001400758a8     libucrt:lcidtoname_downlevel.obj
 0002:000088b8       ??_C@_1M@GEPAFMDL@?$AAe?$AAs?$AA?9?$AAP?$AAA@ 00000001400758b8     libucrt:lcidtoname_downlevel.obj
 0002:000088c8       ??_C@_1M@OJONDMDL@?$AAf?$AAr?$AA?9?$AAM?$AAC@ 00000001400758c8     libucrt:lcidtoname_downlevel.obj
 0002:000088d8       ??_C@_1BG@OBCNFJB@?$AAs?$AAr?$AA?9?$AAB?$AAA?$AA?9?$AAL?$AAa?$AAt?$AAn@ 00000001400758d8     libucrt:lcidtoname_downlevel.obj
 0002:000088f8       ??_C@_1O@KEMEEGPO@?$AAs?$AAm?$AAa?$AA?9?$AAN?$AAO@ 00000001400758f8     libucrt:lcidtoname_downlevel.obj
 0002:00008908       ??_C@_1M@ELMGFODK@?$AAa?$AAr?$AA?9?$AAT?$AAN@ 0000000140075908     libucrt:lcidtoname_downlevel.obj
 0002:00008918       ??_C@_1M@BHDLHFAF@?$AAe?$AAn?$AA?9?$AAZ?$AAA@ 0000000140075918     libucrt:lcidtoname_downlevel.obj
 0002:00008928       ??_C@_1M@BMGIGLIF@?$AAe?$AAs?$AA?9?$AAD?$AAO@ 0000000140075928     libucrt:lcidtoname_downlevel.obj
 0002:00008938       ??_C@_1BG@CMBHIPBE@?$AAs?$AAr?$AA?9?$AAB?$AAA?$AA?9?$AAC?$AAy?$AAr?$AAl@ 0000000140075938     libucrt:lcidtoname_downlevel.obj
 0002:00008958       ??_C@_1O@HEDBLHNP@?$AAs?$AAm?$AAa?$AA?9?$AAS?$AAE@ 0000000140075958     libucrt:lcidtoname_downlevel.obj
 0002:00008968       ??_C@_1M@DAGCADIM@?$AAa?$AAr?$AA?9?$AAO?$AAM@ 0000000140075968     libucrt:lcidtoname_downlevel.obj
 0002:00008978       ??_C@_1M@FODLMICG@?$AAe?$AAn?$AA?9?$AAJ?$AAM@ 0000000140075978     libucrt:lcidtoname_downlevel.obj
 0002:00008988       ??_C@_1M@DNMLCIHB@?$AAe?$AAs?$AA?9?$AAV?$AAE@ 0000000140075988     libucrt:lcidtoname_downlevel.obj
 0002:00008998       ??_C@_1O@EOKHMKJK@?$AAs?$AAm?$AAs?$AA?9?$AAF?$AAI@ 0000000140075998     libucrt:lcidtoname_downlevel.obj
 0002:000089a8       ??_C@_1M@CAFJMKOF@?$AAa?$AAr?$AA?9?$AAY?$AAE@ 00000001400759a8     libucrt:lcidtoname_downlevel.obj
 0002:000089b8       ??_C@_1M@CBFHIJLI@?$AAe?$AAn?$AA?9?$AAC?$AAB@ 00000001400759b8     libucrt:lcidtoname_downlevel.obj
 0002:000089c8       ??_C@_1M@BGNFLDN@?$AAe?$AAs?$AA?9?$AAC?$AAO@ 00000001400759c8     libucrt:lcidtoname_downlevel.obj
 0002:000089d8       ??_C@_1O@JMPHMAMC@?$AAs?$AAm?$AAn?$AA?9?$AAF?$AAI@ 00000001400759d8     libucrt:lcidtoname_downlevel.obj
 0002:000089e8       ??_C@_1M@JLANABKE@?$AAa?$AAr?$AA?9?$AAS?$AAY@ 00000001400759e8     libucrt:lcidtoname_downlevel.obj
 0002:000089f8       ??_C@_1M@HPKGCFGN@?$AAe?$AAn?$AA?9?$AAB?$AAZ@ 00000001400759f8     libucrt:lcidtoname_downlevel.obj
 0002:00008a08       ??_C@_1M@OLJCMLGM@?$AAe?$AAs?$AA?9?$AAP?$AAE@ 0000000140075a08     libucrt:lcidtoname_downlevel.obj
 0002:00008a18       ??_C@_1M@MKKGFKLE@?$AAa?$AAr?$AA?9?$AAJ?$AAO@ 0000000140075a18     libucrt:lcidtoname_downlevel.obj
 0002:00008a28       ??_C@_1M@EKPGLDNI@?$AAe?$AAn?$AA?9?$AAT?$AAT@ 0000000140075a28     libucrt:lcidtoname_downlevel.obj
 0002:00008a38       ??_C@_1M@OONGHFHE@?$AAe?$AAs?$AA?9?$AAA?$AAR@ 0000000140075a38     libucrt:lcidtoname_downlevel.obj
 0002:00008a48       ??_C@_1M@OOJFGBHE@?$AAa?$AAr?$AA?9?$AAL?$AAB@ 0000000140075a48     libucrt:lcidtoname_downlevel.obj
 0002:00008a58       ??_C@_1M@GCEJHNEG@?$AAe?$AAn?$AA?9?$AAZ?$AAW@ 0000000140075a58     libucrt:lcidtoname_downlevel.obj
 0002:00008a68       ??_C@_1M@JNOCAHJI@?$AAe?$AAs?$AA?9?$AAE?$AAC@ 0000000140075a68     libucrt:lcidtoname_downlevel.obj
 0002:00008a78       ??_C@_1M@JEFHPGGB@?$AAa?$AAr?$AA?9?$AAK?$AAW@ 0000000140075a78     libucrt:lcidtoname_downlevel.obj
 0002:00008a88       ??_C@_1M@MLKIBJOJ@?$AAe?$AAn?$AA?9?$AAP?$AAH@ 0000000140075a88     libucrt:lcidtoname_downlevel.obj
 0002:00008a98       ??_C@_1M@BDNIPEND@?$AAe?$AAs?$AA?9?$AAC?$AAL@ 0000000140075a98     libucrt:lcidtoname_downlevel.obj
 0002:00008aa8       ??_C@_1M@MPNMEKBD@?$AAa?$AAr?$AA?9?$AAA?$AAE@ 0000000140075aa8     libucrt:lcidtoname_downlevel.obj
 0002:00008ab8       ??_C@_1M@KBJALCPI@?$AAe?$AAs?$AA?9?$AAU?$AAY@ 0000000140075ab8     libucrt:lcidtoname_downlevel.obj
 0002:00008ac8       ??_C@_1M@LLCCOAGA@?$AAa?$AAr?$AA?9?$AAB?$AAH@ 0000000140075ac8     libucrt:lcidtoname_downlevel.obj
 0002:00008ad8       ??_C@_1M@PBFNCDEL@?$AAe?$AAs?$AA?9?$AAP?$AAY@ 0000000140075ad8     libucrt:lcidtoname_downlevel.obj
 0002:00008ae8       ??_C@_1M@EDGINPNP@?$AAa?$AAr?$AA?9?$AAQ?$AAA@ 0000000140075ae8     libucrt:lcidtoname_downlevel.obj
 0002:00008af8       ??_C@_1M@MKDBIIJI@?$AAe?$AAs?$AA?9?$AAB?$AAO@ 0000000140075af8     libucrt:lcidtoname_downlevel.obj
 0002:00008b08       ??_C@_1M@CPKKEBLD@?$AAe?$AAs?$AA?9?$AAS?$AAV@ 0000000140075b08     libucrt:lcidtoname_downlevel.obj
 0002:00008b18       ??_C@_1M@NDBGMMJL@?$AAe?$AAs?$AA?9?$AAH?$AAN@ 0000000140075b18     libucrt:lcidtoname_downlevel.obj
 0002:00008b28       ??_C@_1M@JIJIBHDP@?$AAe?$AAs?$AA?9?$AAN?$AAI@ 0000000140075b28     libucrt:lcidtoname_downlevel.obj
 0002:00008b38       ??_C@_1M@CGFMKEEK@?$AAe?$AAs?$AA?9?$AAP?$AAR@ 0000000140075b38     libucrt:lcidtoname_downlevel.obj
 0002:00008b48       ??_C@_1O@ICJHKIIK@?$AAz?$AAh?$AA?9?$AAC?$AAH?$AAT@ 0000000140075b48     libucrt:lcidtoname_downlevel.obj
 0002:00008b58       ??_C@_15CLNEJCE@?$AAs?$AAr@ 0000000140075b58     libucrt:lcidtoname_downlevel.obj
 0002:00009c80       ??_C@_1M@KAHEKEIG@?$AAa?$AAf?$AA?9?$AAz?$AAa@ 0000000140076c80     libucrt:lcidtoname_downlevel.obj
 0002:00009c90       ??_C@_1M@GIECOABL@?$AAa?$AAr?$AA?9?$AAa?$AAe@ 0000000140076c90     libucrt:lcidtoname_downlevel.obj
 0002:00009ca0       ??_C@_1M@BMLMEKGI@?$AAa?$AAr?$AA?9?$AAb?$AAh@ 0000000140076ca0     libucrt:lcidtoname_downlevel.obj
 0002:00009cb0       ??_C@_1M@DAPFDGGB@?$AAa?$AAr?$AA?9?$AAd?$AAz@ 0000000140076cb0     libucrt:lcidtoname_downlevel.obj
 0002:00009cc0       ??_C@_1M@FJNKGKIG@?$AAa?$AAr?$AA?9?$AAe?$AAg@ 0000000140076cc0     libucrt:lcidtoname_downlevel.obj
 0002:00009cd0       ??_C@_1M@FLGKKCLO@?$AAa?$AAr?$AA?9?$AAi?$AAq@ 0000000140076cd0     libucrt:lcidtoname_downlevel.obj
 0002:00009ce0       ??_C@_1M@GNDIPALM@?$AAa?$AAr?$AA?9?$AAj?$AAo@ 0000000140076ce0     libucrt:lcidtoname_downlevel.obj
 0002:00009cf0       ??_C@_1M@DDMJFMGJ@?$AAa?$AAr?$AA?9?$AAk?$AAw@ 0000000140076cf0     libucrt:lcidtoname_downlevel.obj
 0002:00009d00       ??_C@_1M@EJALMLHM@?$AAa?$AAr?$AA?9?$AAl?$AAb@ 0000000140076d00     libucrt:lcidtoname_downlevel.obj
 0002:00009d10       ??_C@_1M@MOBDBLOC@?$AAa?$AAr?$AA?9?$AAl?$AAy@ 0000000140076d10     libucrt:lcidtoname_downlevel.obj
 0002:00009d20       ??_C@_1M@JAOCLHDH@?$AAa?$AAr?$AA?9?$AAm?$AAa@ 0000000140076d20     libucrt:lcidtoname_downlevel.obj
 0002:00009d30       ??_C@_1M@JHPMKJIE@?$AAa?$AAr?$AA?9?$AAo?$AAm@ 0000000140076d30     libucrt:lcidtoname_downlevel.obj
 0002:00009d40       ??_C@_1M@OEPGHFNH@?$AAa?$AAr?$AA?9?$AAq?$AAa@ 0000000140076d40     libucrt:lcidtoname_downlevel.obj
 0002:00009d50       ??_C@_1M@KJDONENM@?$AAa?$AAr?$AA?9?$AAs?$AAa@ 0000000140076d50     libucrt:lcidtoname_downlevel.obj
 0002:00009d60       ??_C@_1M@DMJDKLKM@?$AAa?$AAr?$AA?9?$AAs?$AAy@ 0000000140076d60     libucrt:lcidtoname_downlevel.obj
 0002:00009d70       ??_C@_1M@OMFIPEDC@?$AAa?$AAr?$AA?9?$AAt?$AAn@ 0000000140076d70     libucrt:lcidtoname_downlevel.obj
 0002:00009d80       ??_C@_1M@IHMHGAON@?$AAa?$AAr?$AA?9?$AAy?$AAe@ 0000000140076d80     libucrt:lcidtoname_downlevel.obj
 0002:00009d90       ??_C@_1BG@KDCPGJGB@?$AAa?$AAz?$AA?9?$AAa?$AAz?$AA?9?$AAc?$AAy?$AAr?$AAl@ 0000000140076d90     libucrt:lcidtoname_downlevel.obj
 0002:00009db0       ??_C@_1BG@IBCKDDOE@?$AAa?$AAz?$AA?9?$AAa?$AAz?$AA?9?$AAl?$AAa?$AAt?$AAn@ 0000000140076db0     libucrt:lcidtoname_downlevel.obj
 0002:00009dd0       ??_C@_1M@EGPFDCPD@?$AAb?$AAe?$AA?9?$AAb?$AAy@ 0000000140076dd0     libucrt:lcidtoname_downlevel.obj
 0002:00009de0       ??_C@_1M@PCMGMCGC@?$AAb?$AAg?$AA?9?$AAb?$AAg@ 0000000140076de0     libucrt:lcidtoname_downlevel.obj
 0002:00009df0       ??_C@_1M@BJBMFGOB@?$AAb?$AAn?$AA?9?$AAi?$AAn@ 0000000140076df0     libucrt:lcidtoname_downlevel.obj
 0002:00009e00       ??_C@_1BG@EAKMMACD@?$AAb?$AAs?$AA?9?$AAb?$AAa?$AA?9?$AAl?$AAa?$AAt?$AAn@ 0000000140076e00     libucrt:lcidtoname_downlevel.obj
 0002:00009e20       ??_C@_1M@KGADAODK@?$AAc?$AAa?$AA?9?$AAe?$AAs@ 0000000140076e20     libucrt:lcidtoname_downlevel.obj
 0002:00009e30       ??_C@_1M@COAJPDHI@?$AAc?$AAs?$AA?9?$AAc?$AAz@ 0000000140076e30     libucrt:lcidtoname_downlevel.obj
 0002:00009e40       ??_C@_1M@DHBHFONH@?$AAc?$AAy?$AA?9?$AAg?$AAb@ 0000000140076e40     libucrt:lcidtoname_downlevel.obj
 0002:00009e50       ??_C@_1M@IMGKELGA@?$AAd?$AAa?$AA?9?$AAd?$AAk@ 0000000140076e50     libucrt:lcidtoname_downlevel.obj
 0002:00009e60       ??_C@_1M@NNDGDNGA@?$AAd?$AAe?$AA?9?$AAa?$AAt@ 0000000140076e60     libucrt:lcidtoname_downlevel.obj
 0002:00009e70       ??_C@_1M@IKDBHEEM@?$AAd?$AAe?$AA?9?$AAc?$AAh@ 0000000140076e70     libucrt:lcidtoname_downlevel.obj
 0002:00009e80       ??_C@_1M@GFFOJMCJ@?$AAd?$AAe?$AA?9?$AAd?$AAe@ 0000000140076e80     libucrt:lcidtoname_downlevel.obj
 0002:00009e90       ??_C@_1M@MDNLKBPM@?$AAd?$AAe?$AA?9?$AAl?$AAi@ 0000000140076e90     libucrt:lcidtoname_downlevel.obj
 0002:00009ea0       ??_C@_1M@NJBEEJNL@?$AAd?$AAe?$AA?9?$AAl?$AAu@ 0000000140076ea0     libucrt:lcidtoname_downlevel.obj
 0002:00009eb0       ??_C@_1O@GNNELBAP@?$AAd?$AAi?$AAv?$AA?9?$AAm?$AAv@ 0000000140076eb0     libucrt:lcidtoname_downlevel.obj
 0002:00009ec0       ??_C@_1M@EJLEOGAE@?$AAe?$AAl?$AA?9?$AAg?$AAr@ 0000000140076ec0     libucrt:lcidtoname_downlevel.obj
 0002:00009ed0       ??_C@_1M@GMPONJN@?$AAe?$AAn?$AA?9?$AAa?$AAu@ 0000000140076ed0     libucrt:lcidtoname_downlevel.obj
 0002:00009ee0       ??_C@_1M@NIDIIPGF@?$AAe?$AAn?$AA?9?$AAb?$AAz@ 0000000140076ee0     libucrt:lcidtoname_downlevel.obj
 0002:00009ef0       ??_C@_1M@JEHMIMFO@?$AAe?$AAn?$AA?9?$AAc?$AAa@ 0000000140076ef0     libucrt:lcidtoname_downlevel.obj
 0002:00009f00       ??_C@_1M@IGMJCDLA@?$AAe?$AAn?$AA?9?$AAc?$AAb@ 0000000140076f00     libucrt:lcidtoname_downlevel.obj
 0002:00009f10       ??_C@_1M@BNFIGBKG@?$AAe?$AAn?$AA?9?$AAg?$AAb@ 0000000140076f10     libucrt:lcidtoname_downlevel.obj
 0002:00009f20       ??_C@_1M@LKIFDIGP@?$AAe?$AAn?$AA?9?$AAi?$AAe@ 0000000140076f20     libucrt:lcidtoname_downlevel.obj
 0002:00009f30       ??_C@_1M@PJKFGCCO@?$AAe?$AAn?$AA?9?$AAj?$AAm@ 0000000140076f30     libucrt:lcidtoname_downlevel.obj
 0002:00009f40       ??_C@_1M@KPPKEPBO@?$AAe?$AAn?$AA?9?$AAn?$AAz@ 0000000140076f40     libucrt:lcidtoname_downlevel.obj
 0002:00009f50       ??_C@_1M@GMDGLDOB@?$AAe?$AAn?$AA?9?$AAp?$AAh@ 0000000140076f50     libucrt:lcidtoname_downlevel.obj
 0002:00009f60       ??_C@_1M@ONGIBJNA@?$AAe?$AAn?$AA?9?$AAt?$AAt@ 0000000140076f60     libucrt:lcidtoname_downlevel.obj
 0002:00009f70       ??_C@_1M@LLODPCMM@?$AAe?$AAn?$AA?9?$AAu?$AAs@ 0000000140076f70     libucrt:lcidtoname_downlevel.obj
 0002:00009f80       ??_C@_1M@LAKFNPAN@?$AAe?$AAn?$AA?9?$AAz?$AAa@ 0000000140076f80     libucrt:lcidtoname_downlevel.obj
 0002:00009f90       ??_C@_1M@MFNHNHEO@?$AAe?$AAn?$AA?9?$AAz?$AAw@ 0000000140076f90     libucrt:lcidtoname_downlevel.obj
 0002:00009fa0       ??_C@_1M@EJEINPHM@?$AAe?$AAs?$AA?9?$AAa?$AAr@ 0000000140076fa0     libucrt:lcidtoname_downlevel.obj
 0002:00009fb0       ??_C@_1M@GNKPCCJA@?$AAe?$AAs?$AA?9?$AAb?$AAo@ 0000000140076fb0     libucrt:lcidtoname_downlevel.obj
 0002:00009fc0       ??_C@_1M@LEEGFONL@?$AAe?$AAs?$AA?9?$AAc?$AAl@ 0000000140076fc0     libucrt:lcidtoname_downlevel.obj
 0002:00009fd0       ??_C@_1M@KGPDPBDF@?$AAe?$AAs?$AA?9?$AAc?$AAo@ 0000000140076fd0     libucrt:lcidtoname_downlevel.obj
 0002:00009fe0       ??_C@_1M@EIAHOHH@?$AAe?$AAs?$AA?9?$AAc?$AAr@ 0000000140076fe0     libucrt:lcidtoname_downlevel.obj
 0002:00009ff0       ??_C@_1M@LLPGMBIN@?$AAe?$AAs?$AA?9?$AAd?$AAo@ 0000000140076ff0     libucrt:lcidtoname_downlevel.obj
 0002:0000a000       ??_C@_1M@DKHMKNJA@?$AAe?$AAs?$AA?9?$AAe?$AAc@ 0000000140077000     libucrt:lcidtoname_downlevel.obj
 0002:0000a010       ??_C@_1M@GKGFPKAP@?$AAe?$AAs?$AA?9?$AAe?$AAs@ 0000000140077010     libucrt:lcidtoname_downlevel.obj
 0002:0000a020       ??_C@_1M@LKHKGDLN@?$AAe?$AAs?$AA?9?$AAg?$AAt@ 0000000140077020     libucrt:lcidtoname_downlevel.obj
 0002:0000a030       ??_C@_1M@HEIIGGJD@?$AAe?$AAs?$AA?9?$AAh?$AAn@ 0000000140077030     libucrt:lcidtoname_downlevel.obj
 0002:0000a040       ??_C@_1M@FBDHPPGD@?$AAe?$AAs?$AA?9?$AAm?$AAx@ 0000000140077040     libucrt:lcidtoname_downlevel.obj
 0002:0000a050       ??_C@_1M@DPAGLNDH@?$AAe?$AAs?$AA?9?$AAn?$AAi@ 0000000140077050     libucrt:lcidtoname_downlevel.obj
 0002:0000a060       ??_C@_1M@MDGOPGDD@?$AAe?$AAs?$AA?9?$AAp?$AAa@ 0000000140077060     libucrt:lcidtoname_downlevel.obj
 0002:0000a070       ??_C@_1M@EMAMGBGE@?$AAe?$AAs?$AA?9?$AAp?$AAe@ 0000000140077070     libucrt:lcidtoname_downlevel.obj
 0002:0000a080       ??_C@_1M@IBMCAOEC@?$AAe?$AAs?$AA?9?$AAp?$AAr@ 0000000140077080     libucrt:lcidtoname_downlevel.obj
 0002:0000a090       ??_C@_1M@FGMDIJED@?$AAe?$AAs?$AA?9?$AAp?$AAy@ 0000000140077090     libucrt:lcidtoname_downlevel.obj
 0002:0000a0a0       ??_C@_1M@IIDEOLLL@?$AAe?$AAs?$AA?9?$AAs?$AAv@ 00000001400770a0     libucrt:lcidtoname_downlevel.obj
 0002:0000a0b0       ??_C@_1M@GAOBIPA@?$AAe?$AAs?$AA?9?$AAu?$AAy@ 00000001400770b0     libucrt:lcidtoname_downlevel.obj
 0002:0000a0c0       ??_C@_1M@JKFFICHJ@?$AAe?$AAs?$AA?9?$AAv?$AAe@ 00000001400770c0     libucrt:lcidtoname_downlevel.obj
 0002:0000a0d0       ??_C@_1M@PNMLOJDF@?$AAe?$AAt?$AA?9?$AAe?$AAe@ 00000001400770d0     libucrt:lcidtoname_downlevel.obj
 0002:0000a0e0       ??_C@_1M@GHHLIKEI@?$AAe?$AAu?$AA?9?$AAe?$AAs@ 00000001400770e0     libucrt:lcidtoname_downlevel.obj
 0002:0000a0f0       ??_C@_1M@PBNONODE@?$AAf?$AAa?$AA?9?$AAi?$AAr@ 00000001400770f0     libucrt:lcidtoname_downlevel.obj
 0002:0000a100       ??_C@_1M@JEEHPMIL@?$AAf?$AAi?$AA?9?$AAf?$AAi@ 0000000140077100     libucrt:lcidtoname_downlevel.obj
 0002:0000a110       ??_C@_1M@LMDCNDBA@?$AAf?$AAo?$AA?9?$AAf?$AAo@ 0000000140077110     libucrt:lcidtoname_downlevel.obj
 0002:0000a120       ??_C@_1M@JKEOHLDK@?$AAf?$AAr?$AA?9?$AAb?$AAe@ 0000000140077120     libucrt:lcidtoname_downlevel.obj
 0002:0000a130       ??_C@_1M@NOHADPMI@?$AAf?$AAr?$AA?9?$AAc?$AAa@ 0000000140077130     libucrt:lcidtoname_downlevel.obj
 0002:0000a140       ??_C@_1M@KDHIHAEC@?$AAf?$AAr?$AA?9?$AAc?$AAh@ 0000000140077140     libucrt:lcidtoname_downlevel.obj
 0002:0000a150       ??_C@_1M@MMBBFGAK@?$AAf?$AAr?$AA?9?$AAf?$AAr@ 0000000140077150     libucrt:lcidtoname_downlevel.obj
 0002:0000a160       ??_C@_1M@PAFNENNF@?$AAf?$AAr?$AA?9?$AAl?$AAu@ 0000000140077160     libucrt:lcidtoname_downlevel.obj
 0002:0000a170       ??_C@_1M@EOHDJGDD@?$AAf?$AAr?$AA?9?$AAm?$AAc@ 0000000140077170     libucrt:lcidtoname_downlevel.obj
 0002:0000a180       ??_C@_1M@FAPLLOPF@?$AAg?$AAl?$AA?9?$AAe?$AAs@ 0000000140077180     libucrt:lcidtoname_downlevel.obj
 0002:0000a190       ??_C@_1M@FOPBFLOO@?$AAg?$AAu?$AA?9?$AAi?$AAn@ 0000000140077190     libucrt:lcidtoname_downlevel.obj
 0002:0000a1a0       ??_C@_1M@KBMCINPM@?$AAh?$AAe?$AA?9?$AAi?$AAl@ 00000001400771a0     libucrt:lcidtoname_downlevel.obj
 0002:0000a1b0       ??_C@_1M@BBPHKFPJ@?$AAh?$AAi?$AA?9?$AAi?$AAn@ 00000001400771b0     libucrt:lcidtoname_downlevel.obj
 0002:0000a1c0       ??_C@_1M@PMBNDPHD@?$AAh?$AAr?$AA?9?$AAb?$AAa@ 00000001400771c0     libucrt:lcidtoname_downlevel.obj
 0002:0000a1d0       ??_C@_1M@BPCKOEGE@?$AAh?$AAr?$AA?9?$AAh?$AAr@ 00000001400771d0     libucrt:lcidtoname_downlevel.obj
 0002:0000a1e0       ??_C@_1M@GACBMHKE@?$AAh?$AAu?$AA?9?$AAh?$AAu@ 00000001400771e0     libucrt:lcidtoname_downlevel.obj
 0002:0000a1f0       ??_C@_1M@MILPAJJC@?$AAh?$AAy?$AA?9?$AAa?$AAm@ 00000001400771f0     libucrt:lcidtoname_downlevel.obj
 0002:0000a200       ??_C@_1M@BABBICEC@?$AAi?$AAd?$AA?9?$AAi?$AAd@ 0000000140077200     libucrt:lcidtoname_downlevel.obj
 0002:0000a210       ??_C@_1M@BIKNHHPF@?$AAi?$AAs?$AA?9?$AAi?$AAs@ 0000000140077210     libucrt:lcidtoname_downlevel.obj
 0002:0000a220       ??_C@_1M@NMPCJPHE@?$AAi?$AAt?$AA?9?$AAc?$AAh@ 0000000140077220     libucrt:lcidtoname_downlevel.obj
 0002:0000a230       ??_C@_1M@GHKGFEDF@?$AAi?$AAt?$AA?9?$AAi?$AAt@ 0000000140077230     libucrt:lcidtoname_downlevel.obj
 0002:0000a240       ??_C@_1M@NIEJCJJA@?$AAj?$AAa?$AA?9?$AAj?$AAp@ 0000000140077240     libucrt:lcidtoname_downlevel.obj
 0002:0000a250       ??_C@_1M@JILFNBIM@?$AAk?$AAa?$AA?9?$AAg?$AAe@ 0000000140077250     libucrt:lcidtoname_downlevel.obj
 0002:0000a260       ??_C@_1M@PACPMGPH@?$AAk?$AAk?$AA?9?$AAk?$AAz@ 0000000140077260     libucrt:lcidtoname_downlevel.obj
 0002:0000a270       ??_C@_1M@IELFGMHA@?$AAk?$AAn?$AA?9?$AAi?$AAn@ 0000000140077270     libucrt:lcidtoname_downlevel.obj
 0002:0000a280       ??_C@_1O@IBBJHCH@?$AAk?$AAo?$AAk?$AA?9?$AAi?$AAn@ 0000000140077280     libucrt:lcidtoname_downlevel.obj
 0002:0000a290       ??_C@_1M@DMHAEOGC@?$AAk?$AAo?$AA?9?$AAk?$AAr@ 0000000140077290     libucrt:lcidtoname_downlevel.obj
 0002:0000a2a0       ??_C@_1M@HBAHBIGA@?$AAk?$AAy?$AA?9?$AAk?$AAg@ 00000001400772a0     libucrt:lcidtoname_downlevel.obj
 0002:0000a2b0       ??_C@_1M@KPMILCJG@?$AAl?$AAt?$AA?9?$AAl?$AAt@ 00000001400772b0     libucrt:lcidtoname_downlevel.obj
 0002:0000a2c0       ??_C@_1M@BDEKKCA@?$AAl?$AAv?$AA?9?$AAl?$AAv@ 00000001400772c0     libucrt:lcidtoname_downlevel.obj
 0002:0000a2d0       ??_C@_1M@ELCKCCJJ@?$AAm?$AAi?$AA?9?$AAn?$AAz@ 00000001400772d0     libucrt:lcidtoname_downlevel.obj
 0002:0000a2e0       ??_C@_1M@CBOOLAPA@?$AAm?$AAk?$AA?9?$AAm?$AAk@ 00000001400772e0     libucrt:lcidtoname_downlevel.obj
 0002:0000a2f0       ??_C@_1M@GPHNBJKN@?$AAm?$AAl?$AA?9?$AAi?$AAn@ 00000001400772f0     libucrt:lcidtoname_downlevel.obj
 0002:0000a300       ??_C@_1M@PABJILIG@?$AAm?$AAn?$AA?9?$AAm?$AAn@ 0000000140077300     libucrt:lcidtoname_downlevel.obj
 0002:0000a310       ??_C@_1M@FGBKKIPG@?$AAm?$AAr?$AA?9?$AAi?$AAn@ 0000000140077310     libucrt:lcidtoname_downlevel.obj
 0002:0000a320       ??_C@_1M@NDBPDDAL@?$AAm?$AAs?$AA?9?$AAb?$AAn@ 0000000140077320     libucrt:lcidtoname_downlevel.obj
 0002:0000a330       ??_C@_1M@OPIHOOPI@?$AAm?$AAs?$AA?9?$AAm?$AAy@ 0000000140077330     libucrt:lcidtoname_downlevel.obj
 0002:0000a340       ??_C@_1M@PPDBCNFM@?$AAm?$AAt?$AA?9?$AAm?$AAt@ 0000000140077340     libucrt:lcidtoname_downlevel.obj
 0002:0000a350       ??_C@_1M@KDJDKMDD@?$AAn?$AAb?$AA?9?$AAn?$AAo@ 0000000140077350     libucrt:lcidtoname_downlevel.obj
 0002:0000a360       ??_C@_1M@KFCFLMJP@?$AAn?$AAl?$AA?9?$AAb?$AAe@ 0000000140077360     libucrt:lcidtoname_downlevel.obj
 0002:0000a370       ??_C@_1M@KPOPDDGO@?$AAn?$AAl?$AA?9?$AAn?$AAl@ 0000000140077370     libucrt:lcidtoname_downlevel.obj
 0002:0000a380       ??_C@_1M@LJKPEMLN@?$AAn?$AAn?$AA?9?$AAn?$AAo@ 0000000140077380     libucrt:lcidtoname_downlevel.obj
 0002:0000a390       ??_C@_1M@BDGHHBFL@?$AAn?$AAs?$AA?9?$AAz?$AAa@ 0000000140077390     libucrt:lcidtoname_downlevel.obj
 0002:0000a3a0       ??_C@_1M@IDEHOAP@?$AAp?$AAa?$AA?9?$AAi?$AAn@ 00000001400773a0     libucrt:lcidtoname_downlevel.obj
 0002:0000a3b0       ??_C@_1M@HDBKGOGH@?$AAp?$AAl?$AA?9?$AAp?$AAl@ 00000001400773b0     libucrt:lcidtoname_downlevel.obj
 0002:0000a3c0       ??_C@_1M@LJLLCMEH@?$AAp?$AAt?$AA?9?$AAb?$AAr@ 00000001400773c0     libucrt:lcidtoname_downlevel.obj
 0002:0000a3d0       ??_C@_1M@NCMONAAL@?$AAp?$AAt?$AA?9?$AAp?$AAt@ 00000001400773d0     libucrt:lcidtoname_downlevel.obj
 0002:0000a3e0       ??_C@_1O@EAKMAJDN@?$AAq?$AAu?$AAz?$AA?9?$AAb?$AAo@ 00000001400773e0     libucrt:lcidtoname_downlevel.obj
 0002:0000a3f0       ??_C@_1O@BHHPIGDN@?$AAq?$AAu?$AAz?$AA?9?$AAe?$AAc@ 00000001400773f0     libucrt:lcidtoname_downlevel.obj
 0002:0000a400       ??_C@_1O@GBAPEKMJ@?$AAq?$AAu?$AAz?$AA?9?$AAp?$AAe@ 0000000140077400     libucrt:lcidtoname_downlevel.obj
 0002:0000a410       ??_C@_1M@CLGLEFBO@?$AAr?$AAo?$AA?9?$AAr?$AAo@ 0000000140077410     libucrt:lcidtoname_downlevel.obj
 0002:0000a420       ??_C@_1M@CEEDODME@?$AAr?$AAu?$AA?9?$AAr?$AAu@ 0000000140077420     libucrt:lcidtoname_downlevel.obj
 0002:0000a430       ??_C@_1M@HPKKKMPP@?$AAs?$AAa?$AA?9?$AAi?$AAn@ 0000000140077430     libucrt:lcidtoname_downlevel.obj
 0002:0000a440       ??_C@_1M@BKMAIGOJ@?$AAs?$AAe?$AA?9?$AAf?$AAi@ 0000000140077440     libucrt:lcidtoname_downlevel.obj
 0002:0000a450       ??_C@_1M@NDPIFLFI@?$AAs?$AAe?$AA?9?$AAn?$AAo@ 0000000140077450     libucrt:lcidtoname_downlevel.obj
 0002:0000a460       ??_C@_1M@DANKKHJ@?$AAs?$AAe?$AA?9?$AAs?$AAe@ 0000000140077460     libucrt:lcidtoname_downlevel.obj
 0002:0000a470       ??_C@_1M@PNBLONPJ@?$AAs?$AAk?$AA?9?$AAs?$AAk@ 0000000140077470     libucrt:lcidtoname_downlevel.obj
 0002:0000a480       ??_C@_1M@LFMODOAL@?$AAs?$AAl?$AA?9?$AAs?$AAi@ 0000000140077480     libucrt:lcidtoname_downlevel.obj
 0002:0000a490       ??_C@_1O@DFKOMPG@?$AAs?$AAm?$AAa?$AA?9?$AAn?$AAo@ 0000000140077490     libucrt:lcidtoname_downlevel.obj
 0002:0000a4a0       ??_C@_1O@NDKPBNNH@?$AAs?$AAm?$AAa?$AA?9?$AAs?$AAe@ 00000001400774a0     libucrt:lcidtoname_downlevel.obj
 0002:0000a4b0       ??_C@_1O@PLLKBHAB@?$AAs?$AAm?$AAj?$AA?9?$AAn?$AAo@ 00000001400774b0     libucrt:lcidtoname_downlevel.obj
 0002:0000a4c0       ??_C@_1O@CLEPOGCA@?$AAs?$AAm?$AAj?$AA?9?$AAs?$AAe@ 00000001400774c0     libucrt:lcidtoname_downlevel.obj
 0002:0000a4d0       ??_C@_1O@DLGJGKMK@?$AAs?$AAm?$AAn?$AA?9?$AAf?$AAi@ 00000001400774d0     libucrt:lcidtoname_downlevel.obj
 0002:0000a4e0       ??_C@_1O@OJDJGAJC@?$AAs?$AAm?$AAs?$AA?9?$AAf?$AAi@ 00000001400774e0     libucrt:lcidtoname_downlevel.obj
 0002:0000a4f0       ??_C@_1M@BOFOGHPB@?$AAs?$AAq?$AA?9?$AAa?$AAl@ 00000001400774f0     libucrt:lcidtoname_downlevel.obj
 0002:0000a500       ??_C@_1BG@LJBBIPGB@?$AAs?$AAr?$AA?9?$AAb?$AAa?$AA?9?$AAc?$AAy?$AAr?$AAl@ 0000000140077500     libucrt:lcidtoname_downlevel.obj
 0002:0000a520       ??_C@_1BG@JLBENFOE@?$AAs?$AAr?$AA?9?$AAb?$AAa?$AA?9?$AAl?$AAa?$AAt?$AAn@ 0000000140077520     libucrt:lcidtoname_downlevel.obj
 0002:0000a540       ??_C@_1BG@KODPNHE@?$AAs?$AAr?$AA?9?$AAs?$AAp?$AA?9?$AAc?$AAy?$AAr?$AAl@ 0000000140077540     libucrt:lcidtoname_downlevel.obj
 0002:0000a560       ??_C@_1BG@CIOGKHPB@?$AAs?$AAr?$AA?9?$AAs?$AAp?$AA?9?$AAl?$AAa?$AAt?$AAn@ 0000000140077560     libucrt:lcidtoname_downlevel.obj
 0002:0000a580       ??_C@_1M@NGFJLMAC@?$AAs?$AAv?$AA?9?$AAf?$AAi@ 0000000140077580     libucrt:lcidtoname_downlevel.obj
 0002:0000a590       ??_C@_1M@MPJEJAJC@?$AAs?$AAv?$AA?9?$AAs?$AAe@ 0000000140077590     libucrt:lcidtoname_downlevel.obj
 0002:0000a5a0       ??_C@_1M@MPNDHLFK@?$AAs?$AAw?$AA?9?$AAk?$AAe@ 00000001400775a0     libucrt:lcidtoname_downlevel.obj
 0002:0000a5b0       ??_C@_1O@KOHBJJI@?$AAs?$AAy?$AAr?$AA?9?$AAs?$AAy@ 00000001400775b0     libucrt:lcidtoname_downlevel.obj
